ARM GAS  C:\Users\PRAJWA~1\AppData\Local\Temp\ccGEYBzy.s 			page 1


   1              		.syntax unified
   2              		.cpu cortex-m0
   3              		.fpu softvfp
   4              		.eabi_attribute 20, 1
   5              		.eabi_attribute 21, 1
   6              		.eabi_attribute 23, 3
   7              		.eabi_attribute 24, 1
   8              		.eabi_attribute 25, 1
   9              		.eabi_attribute 26, 1
  10              		.eabi_attribute 30, 1
  11              		.eabi_attribute 34, 0
  12              		.eabi_attribute 18, 4
  13              		.thumb
  14              		.syntax unified
  15              		.file	"cyfitter_cfg.c"
  16              		.text
  17              	.Ltext0:
  18              		.cfi_sections	.debug_frame
  19              		.section	.text.cfg_write_bytes32,"ax",%progbits
  20              		.align	2
  21              		.code	16
  22              		.thumb_func
  23              		.type	cfg_write_bytes32, %function
  24              	cfg_write_bytes32:
  25              	.LFB4:
  26              		.file 1 "Generated_Source\\PSoC4\\cyfitter_cfg.c"
   1:Generated_Source\PSoC4/cyfitter_cfg.c **** 
   2:Generated_Source\PSoC4/cyfitter_cfg.c **** /*******************************************************************************
   3:Generated_Source\PSoC4/cyfitter_cfg.c **** * File Name: cyfitter_cfg.c
   4:Generated_Source\PSoC4/cyfitter_cfg.c **** * 
   5:Generated_Source\PSoC4/cyfitter_cfg.c **** * PSoC Creator  4.4
   6:Generated_Source\PSoC4/cyfitter_cfg.c **** *
   7:Generated_Source\PSoC4/cyfitter_cfg.c **** * Description:
   8:Generated_Source\PSoC4/cyfitter_cfg.c **** * This file contains device initialization code.
   9:Generated_Source\PSoC4/cyfitter_cfg.c **** * Except for the user defined sections in CyClockStartupError(), this file should not be modified.
  10:Generated_Source\PSoC4/cyfitter_cfg.c **** * This file is automatically generated by PSoC Creator.
  11:Generated_Source\PSoC4/cyfitter_cfg.c **** *
  12:Generated_Source\PSoC4/cyfitter_cfg.c **** ********************************************************************************
  13:Generated_Source\PSoC4/cyfitter_cfg.c **** * Copyright (c) 2007-2020 Cypress Semiconductor.  All rights reserved.
  14:Generated_Source\PSoC4/cyfitter_cfg.c **** * You may use this file only in accordance with the license, terms, conditions, 
  15:Generated_Source\PSoC4/cyfitter_cfg.c **** * disclaimers, and limitations in the end user license agreement accompanying 
  16:Generated_Source\PSoC4/cyfitter_cfg.c **** * the software package with which this file was provided.
  17:Generated_Source\PSoC4/cyfitter_cfg.c **** ********************************************************************************/
  18:Generated_Source\PSoC4/cyfitter_cfg.c **** 
  19:Generated_Source\PSoC4/cyfitter_cfg.c **** #include <string.h>
  20:Generated_Source\PSoC4/cyfitter_cfg.c **** #include "cytypes.h"
  21:Generated_Source\PSoC4/cyfitter_cfg.c **** #include "cydevice_trm.h"
  22:Generated_Source\PSoC4/cyfitter_cfg.c **** #include "cyfitter.h"
  23:Generated_Source\PSoC4/cyfitter_cfg.c **** #include "CyLib.h"
  24:Generated_Source\PSoC4/cyfitter_cfg.c **** #include "CyLFClk.h"
  25:Generated_Source\PSoC4/cyfitter_cfg.c **** #include "cyfitter_cfg.h"
  26:Generated_Source\PSoC4/cyfitter_cfg.c **** #include "cyapicallbacks.h"
  27:Generated_Source\PSoC4/cyfitter_cfg.c **** 
  28:Generated_Source\PSoC4/cyfitter_cfg.c **** 
  29:Generated_Source\PSoC4/cyfitter_cfg.c **** #if defined(__GNUC__) || defined(__ARMCC_VERSION)
  30:Generated_Source\PSoC4/cyfitter_cfg.c ****     #define CYPACKED 
  31:Generated_Source\PSoC4/cyfitter_cfg.c ****     #define CYPACKED_ATTR __attribute__ ((packed))
ARM GAS  C:\Users\PRAJWA~1\AppData\Local\Temp\ccGEYBzy.s 			page 2


  32:Generated_Source\PSoC4/cyfitter_cfg.c ****     #define CYALIGNED __attribute__ ((aligned))
  33:Generated_Source\PSoC4/cyfitter_cfg.c ****     #define CY_CFG_UNUSED __attribute__ ((unused))
  34:Generated_Source\PSoC4/cyfitter_cfg.c ****     #ifndef CY_CFG_SECTION
  35:Generated_Source\PSoC4/cyfitter_cfg.c ****         #define CY_CFG_SECTION __attribute__ ((section(".psocinit")))
  36:Generated_Source\PSoC4/cyfitter_cfg.c ****     #endif
  37:Generated_Source\PSoC4/cyfitter_cfg.c ****     
  38:Generated_Source\PSoC4/cyfitter_cfg.c ****     #if defined(__ARMCC_VERSION)
  39:Generated_Source\PSoC4/cyfitter_cfg.c ****         #define CY_CFG_MEMORY_BARRIER() __memory_changed()
  40:Generated_Source\PSoC4/cyfitter_cfg.c ****     #else
  41:Generated_Source\PSoC4/cyfitter_cfg.c ****         #define CY_CFG_MEMORY_BARRIER() __sync_synchronize()
  42:Generated_Source\PSoC4/cyfitter_cfg.c ****     #endif
  43:Generated_Source\PSoC4/cyfitter_cfg.c ****     
  44:Generated_Source\PSoC4/cyfitter_cfg.c **** #elif defined(__ICCARM__)
  45:Generated_Source\PSoC4/cyfitter_cfg.c ****     #include <intrinsics.h>
  46:Generated_Source\PSoC4/cyfitter_cfg.c **** 
  47:Generated_Source\PSoC4/cyfitter_cfg.c ****     #define CYPACKED __packed
  48:Generated_Source\PSoC4/cyfitter_cfg.c ****     #define CYPACKED_ATTR 
  49:Generated_Source\PSoC4/cyfitter_cfg.c ****     #define CYALIGNED _Pragma("data_alignment=4")
  50:Generated_Source\PSoC4/cyfitter_cfg.c ****     #define CY_CFG_UNUSED _Pragma("diag_suppress=Pe177")
  51:Generated_Source\PSoC4/cyfitter_cfg.c ****     #define CY_CFG_SECTION _Pragma("location=\".psocinit\"")
  52:Generated_Source\PSoC4/cyfitter_cfg.c ****     
  53:Generated_Source\PSoC4/cyfitter_cfg.c ****     #define CY_CFG_MEMORY_BARRIER() __DMB()
  54:Generated_Source\PSoC4/cyfitter_cfg.c ****     
  55:Generated_Source\PSoC4/cyfitter_cfg.c **** #else
  56:Generated_Source\PSoC4/cyfitter_cfg.c ****     #error Unsupported toolchain
  57:Generated_Source\PSoC4/cyfitter_cfg.c **** #endif
  58:Generated_Source\PSoC4/cyfitter_cfg.c **** 
  59:Generated_Source\PSoC4/cyfitter_cfg.c **** #ifndef CYCODE
  60:Generated_Source\PSoC4/cyfitter_cfg.c ****     #define CYCODE
  61:Generated_Source\PSoC4/cyfitter_cfg.c **** #endif
  62:Generated_Source\PSoC4/cyfitter_cfg.c **** #ifndef CYDATA
  63:Generated_Source\PSoC4/cyfitter_cfg.c ****     #define CYDATA
  64:Generated_Source\PSoC4/cyfitter_cfg.c **** #endif
  65:Generated_Source\PSoC4/cyfitter_cfg.c **** #ifndef CYFAR
  66:Generated_Source\PSoC4/cyfitter_cfg.c ****     #define CYFAR
  67:Generated_Source\PSoC4/cyfitter_cfg.c **** #endif
  68:Generated_Source\PSoC4/cyfitter_cfg.c **** #ifndef CYXDATA
  69:Generated_Source\PSoC4/cyfitter_cfg.c ****     #define CYXDATA
  70:Generated_Source\PSoC4/cyfitter_cfg.c **** #endif
  71:Generated_Source\PSoC4/cyfitter_cfg.c **** 
  72:Generated_Source\PSoC4/cyfitter_cfg.c **** 
  73:Generated_Source\PSoC4/cyfitter_cfg.c **** CY_CFG_UNUSED
  74:Generated_Source\PSoC4/cyfitter_cfg.c **** static void CYMEMZERO(void *s, size_t n);
  75:Generated_Source\PSoC4/cyfitter_cfg.c **** CY_CFG_UNUSED
  76:Generated_Source\PSoC4/cyfitter_cfg.c **** static void CYMEMZERO(void *s, size_t n)
  77:Generated_Source\PSoC4/cyfitter_cfg.c **** {
  78:Generated_Source\PSoC4/cyfitter_cfg.c **** 	(void)memset(s, 0, n);
  79:Generated_Source\PSoC4/cyfitter_cfg.c **** }
  80:Generated_Source\PSoC4/cyfitter_cfg.c **** CY_CFG_UNUSED
  81:Generated_Source\PSoC4/cyfitter_cfg.c **** static void CYCONFIGCPY(void *dest, const void *src, size_t n);
  82:Generated_Source\PSoC4/cyfitter_cfg.c **** CY_CFG_UNUSED
  83:Generated_Source\PSoC4/cyfitter_cfg.c **** static void CYCONFIGCPY(void *dest, const void *src, size_t n)
  84:Generated_Source\PSoC4/cyfitter_cfg.c **** {
  85:Generated_Source\PSoC4/cyfitter_cfg.c **** 	(void)memcpy(dest, src, n);
  86:Generated_Source\PSoC4/cyfitter_cfg.c **** }
  87:Generated_Source\PSoC4/cyfitter_cfg.c **** CY_CFG_UNUSED
  88:Generated_Source\PSoC4/cyfitter_cfg.c **** static void CYCONFIGCPYCODE(void *dest, const void *src, size_t n);
ARM GAS  C:\Users\PRAJWA~1\AppData\Local\Temp\ccGEYBzy.s 			page 3


  89:Generated_Source\PSoC4/cyfitter_cfg.c **** CY_CFG_UNUSED
  90:Generated_Source\PSoC4/cyfitter_cfg.c **** static void CYCONFIGCPYCODE(void *dest, const void *src, size_t n)
  91:Generated_Source\PSoC4/cyfitter_cfg.c **** {
  92:Generated_Source\PSoC4/cyfitter_cfg.c **** 	(void)memcpy(dest, src, n);
  93:Generated_Source\PSoC4/cyfitter_cfg.c **** }
  94:Generated_Source\PSoC4/cyfitter_cfg.c **** 
  95:Generated_Source\PSoC4/cyfitter_cfg.c **** 
  96:Generated_Source\PSoC4/cyfitter_cfg.c **** 
  97:Generated_Source\PSoC4/cyfitter_cfg.c **** 
  98:Generated_Source\PSoC4/cyfitter_cfg.c **** /* Clock startup error codes                                                   */
  99:Generated_Source\PSoC4/cyfitter_cfg.c **** #define CYCLOCKSTART_NO_ERROR    0u
 100:Generated_Source\PSoC4/cyfitter_cfg.c **** #define CYCLOCKSTART_XTAL_ERROR  1u
 101:Generated_Source\PSoC4/cyfitter_cfg.c **** #define CYCLOCKSTART_32KHZ_ERROR 2u
 102:Generated_Source\PSoC4/cyfitter_cfg.c **** #define CYCLOCKSTART_PLL_ERROR   3u
 103:Generated_Source\PSoC4/cyfitter_cfg.c **** #define CYCLOCKSTART_FLL_ERROR   4u
 104:Generated_Source\PSoC4/cyfitter_cfg.c **** #define CYCLOCKSTART_WCO_ERROR   5u
 105:Generated_Source\PSoC4/cyfitter_cfg.c **** 
 106:Generated_Source\PSoC4/cyfitter_cfg.c **** 
 107:Generated_Source\PSoC4/cyfitter_cfg.c **** #ifdef CY_NEED_CYCLOCKSTARTUPERROR
 108:Generated_Source\PSoC4/cyfitter_cfg.c **** /*******************************************************************************
 109:Generated_Source\PSoC4/cyfitter_cfg.c **** * Function Name: CyClockStartupError
 110:Generated_Source\PSoC4/cyfitter_cfg.c **** ********************************************************************************
 111:Generated_Source\PSoC4/cyfitter_cfg.c **** * Summary:
 112:Generated_Source\PSoC4/cyfitter_cfg.c **** *  If an error is encountered during clock configuration (crystal startup error,
 113:Generated_Source\PSoC4/cyfitter_cfg.c **** *  PLL lock error, etc.), the system will end up here.  Unless reimplemented by
 114:Generated_Source\PSoC4/cyfitter_cfg.c **** *  the customer, this function will stop in an infinite loop.
 115:Generated_Source\PSoC4/cyfitter_cfg.c **** *
 116:Generated_Source\PSoC4/cyfitter_cfg.c **** * Parameters:
 117:Generated_Source\PSoC4/cyfitter_cfg.c **** *   void
 118:Generated_Source\PSoC4/cyfitter_cfg.c **** *
 119:Generated_Source\PSoC4/cyfitter_cfg.c **** * Return:
 120:Generated_Source\PSoC4/cyfitter_cfg.c **** *   void
 121:Generated_Source\PSoC4/cyfitter_cfg.c **** *
 122:Generated_Source\PSoC4/cyfitter_cfg.c **** *******************************************************************************/
 123:Generated_Source\PSoC4/cyfitter_cfg.c **** CY_CFG_UNUSED
 124:Generated_Source\PSoC4/cyfitter_cfg.c **** static void CyClockStartupError(uint8 errorCode);
 125:Generated_Source\PSoC4/cyfitter_cfg.c **** CY_CFG_UNUSED
 126:Generated_Source\PSoC4/cyfitter_cfg.c **** static void CyClockStartupError(uint8 errorCode)
 127:Generated_Source\PSoC4/cyfitter_cfg.c **** {
 128:Generated_Source\PSoC4/cyfitter_cfg.c ****     /* To remove the compiler warning if errorCode not used.                */
 129:Generated_Source\PSoC4/cyfitter_cfg.c ****     errorCode = errorCode;
 130:Generated_Source\PSoC4/cyfitter_cfg.c **** 
 131:Generated_Source\PSoC4/cyfitter_cfg.c ****     /* If we have a clock startup error (bad MHz crystal, PLL lock, etc.),  */
 132:Generated_Source\PSoC4/cyfitter_cfg.c ****     /* we will end up here to allow the customer to implement something to  */
 133:Generated_Source\PSoC4/cyfitter_cfg.c ****     /* deal with the clock condition.                                       */
 134:Generated_Source\PSoC4/cyfitter_cfg.c **** 
 135:Generated_Source\PSoC4/cyfitter_cfg.c **** #ifdef CY_CFG_CLOCK_STARTUP_ERROR_CALLBACK
 136:Generated_Source\PSoC4/cyfitter_cfg.c ****     CY_CFG_Clock_Startup_ErrorCallback();
 137:Generated_Source\PSoC4/cyfitter_cfg.c **** #else
 138:Generated_Source\PSoC4/cyfitter_cfg.c ****     /*  If not using CY_CFG_CLOCK_STARTUP_ERROR_CALLBACK, place your clock startup code here. */
 139:Generated_Source\PSoC4/cyfitter_cfg.c ****     /* `#START CyClockStartupError` */
 140:Generated_Source\PSoC4/cyfitter_cfg.c **** 
 141:Generated_Source\PSoC4/cyfitter_cfg.c **** 
 142:Generated_Source\PSoC4/cyfitter_cfg.c **** 
 143:Generated_Source\PSoC4/cyfitter_cfg.c ****     /* `#END` */
 144:Generated_Source\PSoC4/cyfitter_cfg.c **** 
 145:Generated_Source\PSoC4/cyfitter_cfg.c ****     while(1) {}
ARM GAS  C:\Users\PRAJWA~1\AppData\Local\Temp\ccGEYBzy.s 			page 4


 146:Generated_Source\PSoC4/cyfitter_cfg.c **** #endif /* CY_CFG_CLOCK_STARTUP_ERROR_CALLBACK */
 147:Generated_Source\PSoC4/cyfitter_cfg.c **** }
 148:Generated_Source\PSoC4/cyfitter_cfg.c **** #endif
 149:Generated_Source\PSoC4/cyfitter_cfg.c **** 
 150:Generated_Source\PSoC4/cyfitter_cfg.c **** #define CY_CFG_BASE_ADDR_COUNT 10u
 151:Generated_Source\PSoC4/cyfitter_cfg.c **** CYPACKED typedef struct
 152:Generated_Source\PSoC4/cyfitter_cfg.c **** {
 153:Generated_Source\PSoC4/cyfitter_cfg.c **** 	uint8 offset;
 154:Generated_Source\PSoC4/cyfitter_cfg.c **** 	uint8 value;
 155:Generated_Source\PSoC4/cyfitter_cfg.c **** } CYPACKED_ATTR cy_cfg_addrvalue_t;
 156:Generated_Source\PSoC4/cyfitter_cfg.c **** 
 157:Generated_Source\PSoC4/cyfitter_cfg.c **** 
 158:Generated_Source\PSoC4/cyfitter_cfg.c **** 
 159:Generated_Source\PSoC4/cyfitter_cfg.c **** /*******************************************************************************
 160:Generated_Source\PSoC4/cyfitter_cfg.c **** * Function Name: cfg_write_bytes32
 161:Generated_Source\PSoC4/cyfitter_cfg.c **** ********************************************************************************
 162:Generated_Source\PSoC4/cyfitter_cfg.c **** * Summary:
 163:Generated_Source\PSoC4/cyfitter_cfg.c **** *  This function is used for setting up the chip configuration areas that
 164:Generated_Source\PSoC4/cyfitter_cfg.c **** *  contain relatively sparse data.
 165:Generated_Source\PSoC4/cyfitter_cfg.c **** *
 166:Generated_Source\PSoC4/cyfitter_cfg.c **** * Parameters:
 167:Generated_Source\PSoC4/cyfitter_cfg.c **** *   void
 168:Generated_Source\PSoC4/cyfitter_cfg.c **** *
 169:Generated_Source\PSoC4/cyfitter_cfg.c **** * Return:
 170:Generated_Source\PSoC4/cyfitter_cfg.c **** *   void
 171:Generated_Source\PSoC4/cyfitter_cfg.c **** *
 172:Generated_Source\PSoC4/cyfitter_cfg.c **** *******************************************************************************/
 173:Generated_Source\PSoC4/cyfitter_cfg.c **** static void cfg_write_bytes32(const uint32 addr_table[], const cy_cfg_addrvalue_t data_table[]);
 174:Generated_Source\PSoC4/cyfitter_cfg.c **** static void cfg_write_bytes32(const uint32 addr_table[], const cy_cfg_addrvalue_t data_table[])
 175:Generated_Source\PSoC4/cyfitter_cfg.c **** {
  27              		.loc 1 175 0
  28              		.cfi_startproc
  29              		@ args = 0, pretend = 0, frame = 0
  30              		@ frame_needed = 0, uses_anonymous_args = 0
  31              	.LVL0:
  32 0000 F0B5     		push	{r4, r5, r6, r7, lr}
  33              		.cfi_def_cfa_offset 20
  34              		.cfi_offset 4, -20
  35              		.cfi_offset 5, -16
  36              		.cfi_offset 6, -12
  37              		.cfi_offset 7, -8
  38              		.cfi_offset 14, -4
  39              	.LVL1:
 176:Generated_Source\PSoC4/cyfitter_cfg.c **** 	/* For 32-bit little-endian architectures */
 177:Generated_Source\PSoC4/cyfitter_cfg.c **** 	uint32 i, j = 0u;
  40              		.loc 1 177 0
  41 0002 0025     		movs	r5, #0
 178:Generated_Source\PSoC4/cyfitter_cfg.c **** 	for (i = 0u; i < CY_CFG_BASE_ADDR_COUNT; i++)
  42              		.loc 1 178 0
  43 0004 0027     		movs	r7, #0
  44 0006 11E0     		b	.L2
  45              	.LVL2:
  46              	.L5:
  47              	.LBB2:
 179:Generated_Source\PSoC4/cyfitter_cfg.c **** 	{
 180:Generated_Source\PSoC4/cyfitter_cfg.c **** 		uint32 baseAddr = addr_table[i];
  48              		.loc 1 180 0
ARM GAS  C:\Users\PRAJWA~1\AppData\Local\Temp\ccGEYBzy.s 			page 5


  49 0008 BB00     		lsls	r3, r7, #2
  50 000a C658     		ldr	r6, [r0, r3]
  51              	.LVL3:
 181:Generated_Source\PSoC4/cyfitter_cfg.c **** 		uint8 count = (uint8)baseAddr;
  52              		.loc 1 181 0
  53 000c F3B2     		uxtb	r3, r6
  54              	.LVL4:
 182:Generated_Source\PSoC4/cyfitter_cfg.c **** 		baseAddr &= 0xFFFFFF00u;
  55              		.loc 1 182 0
  56 000e FF22     		movs	r2, #255
  57 0010 9643     		bics	r6, r2
  58              	.LVL5:
 183:Generated_Source\PSoC4/cyfitter_cfg.c **** 		while (count != 0u)
  59              		.loc 1 183 0
  60 0012 08E0     		b	.L3
  61              	.L4:
 184:Generated_Source\PSoC4/cyfitter_cfg.c **** 		{
 185:Generated_Source\PSoC4/cyfitter_cfg.c **** 			CY_SET_REG8((void *)(baseAddr + data_table[j].offset), data_table[j].value);
  62              		.loc 1 185 0
  63 0014 6A00     		lsls	r2, r5, #1
  64 0016 8A18     		adds	r2, r1, r2
  65 0018 1478     		ldrb	r4, [r2]
  66 001a A419     		adds	r4, r4, r6
  67 001c 5278     		ldrb	r2, [r2, #1]
  68 001e 2270     		strb	r2, [r4]
 186:Generated_Source\PSoC4/cyfitter_cfg.c **** 			j++;
  69              		.loc 1 186 0
  70 0020 0135     		adds	r5, r5, #1
  71              	.LVL6:
 187:Generated_Source\PSoC4/cyfitter_cfg.c **** 			count--;
  72              		.loc 1 187 0
  73 0022 013B     		subs	r3, r3, #1
  74              	.LVL7:
  75 0024 DBB2     		uxtb	r3, r3
  76              	.LVL8:
  77              	.L3:
 183:Generated_Source\PSoC4/cyfitter_cfg.c **** 		{
  78              		.loc 1 183 0
  79 0026 002B     		cmp	r3, #0
  80 0028 F4D1     		bne	.L4
  81              	.LBE2:
 178:Generated_Source\PSoC4/cyfitter_cfg.c **** 	{
  82              		.loc 1 178 0 discriminator 2
  83 002a 0137     		adds	r7, r7, #1
  84              	.LVL9:
  85              	.L2:
 178:Generated_Source\PSoC4/cyfitter_cfg.c **** 	{
  86              		.loc 1 178 0 is_stmt 0 discriminator 1
  87 002c 092F     		cmp	r7, #9
  88 002e EBD9     		bls	.L5
 188:Generated_Source\PSoC4/cyfitter_cfg.c **** 		}
 189:Generated_Source\PSoC4/cyfitter_cfg.c **** 	}
 190:Generated_Source\PSoC4/cyfitter_cfg.c **** }
  89              		.loc 1 190 0 is_stmt 1
  90              		@ sp needed
  91              	.LVL10:
  92              	.LVL11:
ARM GAS  C:\Users\PRAJWA~1\AppData\Local\Temp\ccGEYBzy.s 			page 6


  93 0030 F0BD     		pop	{r4, r5, r6, r7, pc}
  94              		.cfi_endproc
  95              	.LFE4:
  96              		.size	cfg_write_bytes32, .-cfg_write_bytes32
  97 0032 C046     		.section	.text.CYMEMZERO,"ax",%progbits
  98              		.align	2
  99              		.code	16
 100              		.thumb_func
 101              		.type	CYMEMZERO, %function
 102              	CYMEMZERO:
 103              	.LFB1:
  77:Generated_Source\PSoC4/cyfitter_cfg.c **** 	(void)memset(s, 0, n);
 104              		.loc 1 77 0
 105              		.cfi_startproc
 106              		@ args = 0, pretend = 0, frame = 0
 107              		@ frame_needed = 0, uses_anonymous_args = 0
 108              	.LVL12:
 109 0000 10B5     		push	{r4, lr}
 110              		.cfi_def_cfa_offset 8
 111              		.cfi_offset 4, -8
 112              		.cfi_offset 14, -4
 113 0002 0A00     		movs	r2, r1
  78:Generated_Source\PSoC4/cyfitter_cfg.c **** }
 114              		.loc 1 78 0
 115 0004 0021     		movs	r1, #0
 116              	.LVL13:
 117 0006 FFF7FEFF 		bl	memset
 118              	.LVL14:
  79:Generated_Source\PSoC4/cyfitter_cfg.c **** CY_CFG_UNUSED
 119              		.loc 1 79 0
 120              		@ sp needed
 121 000a 10BD     		pop	{r4, pc}
 122              		.cfi_endproc
 123              	.LFE1:
 124              		.size	CYMEMZERO, .-CYMEMZERO
 125              		.section	.psocinit,"ax",%progbits
 126              		.align	2
 127              		.code	16
 128              		.thumb_func
 129              		.type	ClockSetup, %function
 130              	ClockSetup:
 131              	.LFB5:
 191:Generated_Source\PSoC4/cyfitter_cfg.c **** 
 192:Generated_Source\PSoC4/cyfitter_cfg.c **** 
 193:Generated_Source\PSoC4/cyfitter_cfg.c **** /*******************************************************************************
 194:Generated_Source\PSoC4/cyfitter_cfg.c **** * Function Name: ClockSetup
 195:Generated_Source\PSoC4/cyfitter_cfg.c **** ********************************************************************************
 196:Generated_Source\PSoC4/cyfitter_cfg.c **** *
 197:Generated_Source\PSoC4/cyfitter_cfg.c **** * Summary:
 198:Generated_Source\PSoC4/cyfitter_cfg.c **** *   Performs the initialization of all of the clocks in the device based on the
 199:Generated_Source\PSoC4/cyfitter_cfg.c **** *   settings in the Clock tab of the DWR.  This includes enabling the requested
 200:Generated_Source\PSoC4/cyfitter_cfg.c **** *   clocks and setting the necessary dividers to produce the desired frequency. 
 201:Generated_Source\PSoC4/cyfitter_cfg.c **** *
 202:Generated_Source\PSoC4/cyfitter_cfg.c **** * Parameters:
 203:Generated_Source\PSoC4/cyfitter_cfg.c **** *   void
 204:Generated_Source\PSoC4/cyfitter_cfg.c **** *
 205:Generated_Source\PSoC4/cyfitter_cfg.c **** * Return:
ARM GAS  C:\Users\PRAJWA~1\AppData\Local\Temp\ccGEYBzy.s 			page 7


 206:Generated_Source\PSoC4/cyfitter_cfg.c **** *   void
 207:Generated_Source\PSoC4/cyfitter_cfg.c **** *
 208:Generated_Source\PSoC4/cyfitter_cfg.c **** *******************************************************************************/
 209:Generated_Source\PSoC4/cyfitter_cfg.c **** static void ClockSetup(void);
 210:Generated_Source\PSoC4/cyfitter_cfg.c **** CY_CFG_SECTION
 211:Generated_Source\PSoC4/cyfitter_cfg.c **** static void ClockSetup(void)
 212:Generated_Source\PSoC4/cyfitter_cfg.c **** {
 132              		.loc 1 212 0
 133              		.cfi_startproc
 134              		@ args = 0, pretend = 0, frame = 0
 135              		@ frame_needed = 0, uses_anonymous_args = 0
 136 0000 10B5     		push	{r4, lr}
 137              		.cfi_def_cfa_offset 8
 138              		.cfi_offset 4, -8
 139              		.cfi_offset 14, -4
 213:Generated_Source\PSoC4/cyfitter_cfg.c **** 
 214:Generated_Source\PSoC4/cyfitter_cfg.c **** 	/* Set Flash Cycles based on max possible frequency in case a glitch occurs during ClockSetup(). *
 215:Generated_Source\PSoC4/cyfitter_cfg.c **** 	CY_SET_REG32((void CYXDATA *)(CYREG_CPUSS_FLASH_CTL), (0x0012u));
 140              		.loc 1 215 0
 141 0002 1222     		movs	r2, #18
 142 0004 2B4B     		ldr	r3, .L8
 143 0006 1A60     		str	r2, [r3]
 216:Generated_Source\PSoC4/cyfitter_cfg.c **** 	/* Setup and trim IMO based on desired frequency. */
 217:Generated_Source\PSoC4/cyfitter_cfg.c **** 	CySysClkWriteImoFreq(48u);
 144              		.loc 1 217 0
 145 0008 3020     		movs	r0, #48
 146 000a FFF7FEFF 		bl	CySysClkWriteImoFreq
 147              	.LVL15:
 218:Generated_Source\PSoC4/cyfitter_cfg.c **** 	/* CYDEV_CLK_ILO_CONFIG Starting address: CYDEV_CLK_ILO_CONFIG */
 219:Generated_Source\PSoC4/cyfitter_cfg.c **** 	CY_SET_REG32((void *)(CYREG_CLK_ILO_CONFIG), 0x80000006u);
 148              		.loc 1 219 0
 149 000e 2A4A     		ldr	r2, .L8+4
 150 0010 2A4B     		ldr	r3, .L8+8
 151 0012 1A60     		str	r2, [r3]
 220:Generated_Source\PSoC4/cyfitter_cfg.c **** 
 221:Generated_Source\PSoC4/cyfitter_cfg.c **** 
 222:Generated_Source\PSoC4/cyfitter_cfg.c **** 	/* Setup phase aligned clocks */
 223:Generated_Source\PSoC4/cyfitter_cfg.c **** 	CY_SET_REG32((void *)CYREG_PERI_DIV_16_CTL5, 0x00001700u);
 152              		.loc 1 223 0
 153 0014 B822     		movs	r2, #184
 154 0016 5201     		lsls	r2, r2, #5
 155 0018 294B     		ldr	r3, .L8+12
 156 001a 1A60     		str	r2, [r3]
 224:Generated_Source\PSoC4/cyfitter_cfg.c **** 	CY_SET_REG32((void *)CYREG_PERI_DIV_CMD, 0x8000FF45u);
 157              		.loc 1 224 0
 158 001c 294B     		ldr	r3, .L8+16
 159 001e 2A4A     		ldr	r2, .L8+20
 160 0020 1A60     		str	r2, [r3]
 225:Generated_Source\PSoC4/cyfitter_cfg.c **** 	CY_SET_REG32((void *)CYREG_PERI_DIV_16_CTL0, 0x0000FE00u);
 161              		.loc 1 225 0
 162 0022 FE22     		movs	r2, #254
 163 0024 1202     		lsls	r2, r2, #8
 164 0026 2949     		ldr	r1, .L8+24
 165 0028 0A60     		str	r2, [r1]
 226:Generated_Source\PSoC4/cyfitter_cfg.c **** 	CY_SET_REG32((void *)CYREG_PERI_DIV_CMD, 0x8000FF40u);
 166              		.loc 1 226 0
 167 002a 2949     		ldr	r1, .L8+28
ARM GAS  C:\Users\PRAJWA~1\AppData\Local\Temp\ccGEYBzy.s 			page 8


 168 002c 1960     		str	r1, [r3]
 227:Generated_Source\PSoC4/cyfitter_cfg.c **** 	CY_SET_REG32((void *)CYREG_PERI_DIV_16_CTL1, 0x0000FE00u);
 169              		.loc 1 227 0
 170 002e 2949     		ldr	r1, .L8+32
 171 0030 0A60     		str	r2, [r1]
 228:Generated_Source\PSoC4/cyfitter_cfg.c **** 	CY_SET_REG32((void *)CYREG_PERI_DIV_CMD, 0x8000FF41u);
 172              		.loc 1 228 0
 173 0032 294A     		ldr	r2, .L8+36
 174 0034 1A60     		str	r2, [r3]
 229:Generated_Source\PSoC4/cyfitter_cfg.c **** 	CY_SET_REG32((void *)CYREG_PERI_DIV_16_CTL4, 0x00000500u);
 175              		.loc 1 229 0
 176 0036 A022     		movs	r2, #160
 177 0038 D200     		lsls	r2, r2, #3
 178 003a 2849     		ldr	r1, .L8+40
 179 003c 0A60     		str	r2, [r1]
 230:Generated_Source\PSoC4/cyfitter_cfg.c **** 	CY_SET_REG32((void *)CYREG_PERI_DIV_CMD, 0x8000FF44u);
 180              		.loc 1 230 0
 181 003e 2849     		ldr	r1, .L8+44
 182 0040 1960     		str	r1, [r3]
 231:Generated_Source\PSoC4/cyfitter_cfg.c **** 	CY_SET_REG32((void *)CYREG_PERI_DIV_16_CTL6, 0x00002200u);
 183              		.loc 1 231 0
 184 0042 8820     		movs	r0, #136
 185 0044 8001     		lsls	r0, r0, #6
 186 0046 2749     		ldr	r1, .L8+48
 187 0048 0860     		str	r0, [r1]
 232:Generated_Source\PSoC4/cyfitter_cfg.c **** 	CY_SET_REG32((void *)CYREG_PERI_DIV_CMD, 0x8000FF46u);
 188              		.loc 1 232 0
 189 004a 2749     		ldr	r1, .L8+52
 190 004c 1960     		str	r1, [r3]
 233:Generated_Source\PSoC4/cyfitter_cfg.c **** 	CY_SET_REG32((void *)CYREG_PERI_DIV_16_CTL3, 0x00000500u);
 191              		.loc 1 233 0
 192 004e 2749     		ldr	r1, .L8+56
 193 0050 0A60     		str	r2, [r1]
 234:Generated_Source\PSoC4/cyfitter_cfg.c **** 	CY_SET_REG32((void *)CYREG_PERI_DIV_CMD, 0x8000FF43u);
 194              		.loc 1 234 0
 195 0052 274A     		ldr	r2, .L8+60
 196 0054 1A60     		str	r2, [r3]
 235:Generated_Source\PSoC4/cyfitter_cfg.c **** 	CY_SET_REG32((void *)CYREG_PERI_DIV_16_CTL2, 0x00000200u);
 197              		.loc 1 235 0
 198 0056 8021     		movs	r1, #128
 199 0058 8900     		lsls	r1, r1, #2
 200 005a 264A     		ldr	r2, .L8+64
 201 005c 1160     		str	r1, [r2]
 236:Generated_Source\PSoC4/cyfitter_cfg.c **** 	CY_SET_REG32((void *)CYREG_PERI_DIV_CMD, 0x8000FF42u);
 202              		.loc 1 236 0
 203 005e 264A     		ldr	r2, .L8+68
 204 0060 1A60     		str	r2, [r3]
 237:Generated_Source\PSoC4/cyfitter_cfg.c **** 
 238:Generated_Source\PSoC4/cyfitter_cfg.c **** 	/* CYDEV_CLK_IMO_CONFIG Starting address: CYDEV_CLK_IMO_CONFIG */
 239:Generated_Source\PSoC4/cyfitter_cfg.c **** 	CY_SET_REG32((void *)(CYREG_CLK_IMO_CONFIG), 0x80000000u);
 205              		.loc 1 239 0
 206 0062 8022     		movs	r2, #128
 207 0064 1206     		lsls	r2, r2, #24
 208 0066 254B     		ldr	r3, .L8+72
 209 0068 1A60     		str	r2, [r3]
 240:Generated_Source\PSoC4/cyfitter_cfg.c **** 
 241:Generated_Source\PSoC4/cyfitter_cfg.c **** 	/* CYDEV_CLK_SELECT Starting address: CYDEV_CLK_SELECT */
ARM GAS  C:\Users\PRAJWA~1\AppData\Local\Temp\ccGEYBzy.s 			page 9


 242:Generated_Source\PSoC4/cyfitter_cfg.c **** 	CY_SET_REG32((void *)(CYREG_CLK_SELECT), 0x00040000u);
 210              		.loc 1 242 0
 211 006a 8022     		movs	r2, #128
 212 006c D202     		lsls	r2, r2, #11
 213 006e 244B     		ldr	r3, .L8+76
 214 0070 1A60     		str	r2, [r3]
 243:Generated_Source\PSoC4/cyfitter_cfg.c **** 
 244:Generated_Source\PSoC4/cyfitter_cfg.c **** 	/* CYDEV_PERI_PCLK_CTL19 Starting address: CYDEV_PERI_PCLK_CTL19 */
 245:Generated_Source\PSoC4/cyfitter_cfg.c **** 	CY_SET_REG32((void *)(CYREG_PERI_PCLK_CTL19), 0x00000045u);
 215              		.loc 1 245 0
 216 0072 4522     		movs	r2, #69
 217 0074 234B     		ldr	r3, .L8+80
 218 0076 1A60     		str	r2, [r3]
 246:Generated_Source\PSoC4/cyfitter_cfg.c **** 
 247:Generated_Source\PSoC4/cyfitter_cfg.c **** 	/* CYDEV_PERI_PCLK_CTL7 Starting address: CYDEV_PERI_PCLK_CTL7 */
 248:Generated_Source\PSoC4/cyfitter_cfg.c **** 	CY_SET_REG32((void *)(CYREG_PERI_PCLK_CTL7), 0x00000040u);
 219              		.loc 1 248 0
 220 0078 053A     		subs	r2, r2, #5
 221 007a 234B     		ldr	r3, .L8+84
 222 007c 1A60     		str	r2, [r3]
 249:Generated_Source\PSoC4/cyfitter_cfg.c **** 
 250:Generated_Source\PSoC4/cyfitter_cfg.c **** 	/* CYDEV_PERI_PCLK_CTL6 Starting address: CYDEV_PERI_PCLK_CTL6 */
 251:Generated_Source\PSoC4/cyfitter_cfg.c **** 	CY_SET_REG32((void *)(CYREG_PERI_PCLK_CTL6), 0x00000041u);
 223              		.loc 1 251 0
 224 007e 0132     		adds	r2, r2, #1
 225 0080 224B     		ldr	r3, .L8+88
 226 0082 1A60     		str	r2, [r3]
 252:Generated_Source\PSoC4/cyfitter_cfg.c **** 
 253:Generated_Source\PSoC4/cyfitter_cfg.c **** 	/* CYDEV_PERI_PCLK_CTL5 Starting address: CYDEV_PERI_PCLK_CTL5 */
 254:Generated_Source\PSoC4/cyfitter_cfg.c **** 	CY_SET_REG32((void *)(CYREG_PERI_PCLK_CTL5), 0x00000044u);
 227              		.loc 1 254 0
 228 0084 0332     		adds	r2, r2, #3
 229 0086 224B     		ldr	r3, .L8+92
 230 0088 1A60     		str	r2, [r3]
 255:Generated_Source\PSoC4/cyfitter_cfg.c **** 
 256:Generated_Source\PSoC4/cyfitter_cfg.c **** 	/* CYDEV_PERI_PCLK_CTL4 Starting address: CYDEV_PERI_PCLK_CTL4 */
 257:Generated_Source\PSoC4/cyfitter_cfg.c **** 	CY_SET_REG32((void *)(CYREG_PERI_PCLK_CTL4), 0x00000046u);
 231              		.loc 1 257 0
 232 008a 0232     		adds	r2, r2, #2
 233 008c 214B     		ldr	r3, .L8+96
 234 008e 1A60     		str	r2, [r3]
 258:Generated_Source\PSoC4/cyfitter_cfg.c **** 
 259:Generated_Source\PSoC4/cyfitter_cfg.c **** 	/* CYDEV_PERI_PCLK_CTL3 Starting address: CYDEV_PERI_PCLK_CTL3 */
 260:Generated_Source\PSoC4/cyfitter_cfg.c **** 	CY_SET_REG32((void *)(CYREG_PERI_PCLK_CTL3), 0x00000043u);
 235              		.loc 1 260 0
 236 0090 033A     		subs	r2, r2, #3
 237 0092 214B     		ldr	r3, .L8+100
 238 0094 1A60     		str	r2, [r3]
 261:Generated_Source\PSoC4/cyfitter_cfg.c **** 
 262:Generated_Source\PSoC4/cyfitter_cfg.c **** 	/* CYDEV_PERI_PCLK_CTL2 Starting address: CYDEV_PERI_PCLK_CTL2 */
 263:Generated_Source\PSoC4/cyfitter_cfg.c **** 	CY_SET_REG32((void *)(CYREG_PERI_PCLK_CTL2), 0x00000042u);
 239              		.loc 1 263 0
 240 0096 013A     		subs	r2, r2, #1
 241 0098 204B     		ldr	r3, .L8+104
 242 009a 1A60     		str	r2, [r3]
 264:Generated_Source\PSoC4/cyfitter_cfg.c **** 
 265:Generated_Source\PSoC4/cyfitter_cfg.c **** 	(void)CyIntSetVector(7u, &CySysWdtIsr);
ARM GAS  C:\Users\PRAJWA~1\AppData\Local\Temp\ccGEYBzy.s 			page 10


 243              		.loc 1 265 0
 244 009c 2049     		ldr	r1, .L8+108
 245 009e 0720     		movs	r0, #7
 246 00a0 FFF7FEFF 		bl	CyIntSetVector
 247              	.LVL16:
 266:Generated_Source\PSoC4/cyfitter_cfg.c **** 	CyIntEnable(7u);
 248              		.loc 1 266 0
 249 00a4 0720     		movs	r0, #7
 250 00a6 FFF7FEFF 		bl	CyIntEnable
 251              	.LVL17:
 267:Generated_Source\PSoC4/cyfitter_cfg.c **** 	CY_SET_REG32((void *)(CYREG_WDT_CONFIG), 0x00000000u);
 252              		.loc 1 267 0
 253 00aa 0022     		movs	r2, #0
 254 00ac 1D4B     		ldr	r3, .L8+112
 255 00ae 1A60     		str	r2, [r3]
 268:Generated_Source\PSoC4/cyfitter_cfg.c **** }
 256              		.loc 1 268 0
 257              		@ sp needed
 258 00b0 10BD     		pop	{r4, pc}
 259              	.L9:
 260 00b2 C046     		.align	2
 261              	.L8:
 262 00b4 30001040 		.word	1074790448
 263 00b8 06000080 		.word	-2147483642
 264 00bc 04010B40 		.word	1074462980
 265 00c0 14030140 		.word	1073808148
 266 00c4 00000140 		.word	1073807360
 267 00c8 45FF0080 		.word	-2147418299
 268 00cc 00030140 		.word	1073808128
 269 00d0 40FF0080 		.word	-2147418304
 270 00d4 04030140 		.word	1073808132
 271 00d8 41FF0080 		.word	-2147418303
 272 00dc 10030140 		.word	1073808144
 273 00e0 44FF0080 		.word	-2147418300
 274 00e4 18030140 		.word	1073808152
 275 00e8 46FF0080 		.word	-2147418298
 276 00ec 0C030140 		.word	1073808140
 277 00f0 43FF0080 		.word	-2147418301
 278 00f4 08030140 		.word	1073808136
 279 00f8 42FF0080 		.word	-2147418302
 280 00fc 08010B40 		.word	1074462984
 281 0100 00010B40 		.word	1074462976
 282 0104 4C010140 		.word	1073807692
 283 0108 1C010140 		.word	1073807644
 284 010c 18010140 		.word	1073807640
 285 0110 14010140 		.word	1073807636
 286 0114 10010140 		.word	1073807632
 287 0118 0C010140 		.word	1073807628
 288 011c 08010140 		.word	1073807624
 289 0120 00000000 		.word	CySysWdtIsr
 290 0124 0C020B40 		.word	1074463244
 291              		.cfi_endproc
 292              	.LFE5:
 293              		.size	ClockSetup, .-ClockSetup
 294              		.section	.text.SetAnalogRoutingPumps,"ax",%progbits
 295              		.align	2
 296              		.global	SetAnalogRoutingPumps
ARM GAS  C:\Users\PRAJWA~1\AppData\Local\Temp\ccGEYBzy.s 			page 11


 297              		.code	16
 298              		.thumb_func
 299              		.type	SetAnalogRoutingPumps, %function
 300              	SetAnalogRoutingPumps:
 301              	.LFB7:
 269:Generated_Source\PSoC4/cyfitter_cfg.c **** 
 270:Generated_Source\PSoC4/cyfitter_cfg.c **** 
 271:Generated_Source\PSoC4/cyfitter_cfg.c **** /* Analog API Functions */
 272:Generated_Source\PSoC4/cyfitter_cfg.c **** 
 273:Generated_Source\PSoC4/cyfitter_cfg.c **** 
 274:Generated_Source\PSoC4/cyfitter_cfg.c **** /*******************************************************************************
 275:Generated_Source\PSoC4/cyfitter_cfg.c **** * Function Name: AnalogSetDefault
 276:Generated_Source\PSoC4/cyfitter_cfg.c **** ********************************************************************************
 277:Generated_Source\PSoC4/cyfitter_cfg.c **** *
 278:Generated_Source\PSoC4/cyfitter_cfg.c **** * Summary:
 279:Generated_Source\PSoC4/cyfitter_cfg.c **** *  Sets up the analog portions of the chip to default values based on chip
 280:Generated_Source\PSoC4/cyfitter_cfg.c **** *  configuration options from the project.
 281:Generated_Source\PSoC4/cyfitter_cfg.c **** *
 282:Generated_Source\PSoC4/cyfitter_cfg.c **** * Parameters:
 283:Generated_Source\PSoC4/cyfitter_cfg.c **** *  void
 284:Generated_Source\PSoC4/cyfitter_cfg.c **** *
 285:Generated_Source\PSoC4/cyfitter_cfg.c **** * Return:
 286:Generated_Source\PSoC4/cyfitter_cfg.c **** *  void
 287:Generated_Source\PSoC4/cyfitter_cfg.c **** *
 288:Generated_Source\PSoC4/cyfitter_cfg.c **** *******************************************************************************/
 289:Generated_Source\PSoC4/cyfitter_cfg.c **** static void AnalogSetDefault(void);
 290:Generated_Source\PSoC4/cyfitter_cfg.c **** static void AnalogSetDefault(void)
 291:Generated_Source\PSoC4/cyfitter_cfg.c **** {
 292:Generated_Source\PSoC4/cyfitter_cfg.c **** 	CY_SET_XTND_REG32((void CYFAR *)CYREG_HSIOM_AMUX_SPLIT_CTL1, 0x00000003u);
 293:Generated_Source\PSoC4/cyfitter_cfg.c **** 	CY_SET_XTND_REG32((void CYFAR *)CYREG_CTBM0_DFT_CTRL, 0x00000003u);
 294:Generated_Source\PSoC4/cyfitter_cfg.c **** 	CY_SET_XTND_REG32((void CYFAR *)CYREG_CTBM1_DFT_CTRL, 0x00000003u);
 295:Generated_Source\PSoC4/cyfitter_cfg.c **** 	CY_SET_XTND_REG32((void CYFAR *)CYREG_PASS_DSAB_DSAB_CTRL, 0x00000000u);
 296:Generated_Source\PSoC4/cyfitter_cfg.c **** 	SetAnalogRoutingPumps(1);
 297:Generated_Source\PSoC4/cyfitter_cfg.c **** }
 298:Generated_Source\PSoC4/cyfitter_cfg.c **** 
 299:Generated_Source\PSoC4/cyfitter_cfg.c **** 
 300:Generated_Source\PSoC4/cyfitter_cfg.c **** /*******************************************************************************
 301:Generated_Source\PSoC4/cyfitter_cfg.c **** * Function Name: SetAnalogRoutingPumps
 302:Generated_Source\PSoC4/cyfitter_cfg.c **** ********************************************************************************
 303:Generated_Source\PSoC4/cyfitter_cfg.c **** *
 304:Generated_Source\PSoC4/cyfitter_cfg.c **** * Summary:
 305:Generated_Source\PSoC4/cyfitter_cfg.c **** * Enables or disables the analog pumps feeding analog routing switches.
 306:Generated_Source\PSoC4/cyfitter_cfg.c **** * Intended to be called at startup, based on the Vdda system configuration;
 307:Generated_Source\PSoC4/cyfitter_cfg.c **** * may be called during operation when the user informs us that the Vdda voltage crossed the pump th
 308:Generated_Source\PSoC4/cyfitter_cfg.c **** *
 309:Generated_Source\PSoC4/cyfitter_cfg.c **** * Parameters:
 310:Generated_Source\PSoC4/cyfitter_cfg.c **** *  enabled - 1 to enable the pumps, 0 to disable the pumps
 311:Generated_Source\PSoC4/cyfitter_cfg.c **** *
 312:Generated_Source\PSoC4/cyfitter_cfg.c **** * Return:
 313:Generated_Source\PSoC4/cyfitter_cfg.c **** *  void
 314:Generated_Source\PSoC4/cyfitter_cfg.c **** *
 315:Generated_Source\PSoC4/cyfitter_cfg.c **** *******************************************************************************/
 316:Generated_Source\PSoC4/cyfitter_cfg.c **** void SetAnalogRoutingPumps(uint8 enabled)
 317:Generated_Source\PSoC4/cyfitter_cfg.c **** {
 302              		.loc 1 317 0
 303              		.cfi_startproc
 304              		@ args = 0, pretend = 0, frame = 0
ARM GAS  C:\Users\PRAJWA~1\AppData\Local\Temp\ccGEYBzy.s 			page 12


 305              		@ frame_needed = 0, uses_anonymous_args = 0
 306              		@ link register save eliminated.
 307              	.LVL18:
 318:Generated_Source\PSoC4/cyfitter_cfg.c **** 	uint32 regValue = CY_GET_XTND_REG32((void *)(CYREG_SAR_PUMP_CTRL));
 308              		.loc 1 318 0
 309 0000 0C4B     		ldr	r3, .L15
 310 0002 1B68     		ldr	r3, [r3]
 311              	.LVL19:
 319:Generated_Source\PSoC4/cyfitter_cfg.c **** 	if (enabled != 0u)
 312              		.loc 1 319 0
 313 0004 0028     		cmp	r0, #0
 314 0006 03D0     		beq	.L11
 320:Generated_Source\PSoC4/cyfitter_cfg.c **** 	{
 321:Generated_Source\PSoC4/cyfitter_cfg.c **** 		regValue |= 0x80000000u;
 315              		.loc 1 321 0
 316 0008 8022     		movs	r2, #128
 317 000a 1206     		lsls	r2, r2, #24
 318 000c 1343     		orrs	r3, r2
 319              	.LVL20:
 320 000e 01E0     		b	.L12
 321              	.L11:
 322:Generated_Source\PSoC4/cyfitter_cfg.c **** 	}
 323:Generated_Source\PSoC4/cyfitter_cfg.c **** 	else
 324:Generated_Source\PSoC4/cyfitter_cfg.c **** 	{
 325:Generated_Source\PSoC4/cyfitter_cfg.c **** 		regValue &= ~0x80000000u;
 322              		.loc 1 325 0
 323 0010 5B00     		lsls	r3, r3, #1
 324              	.LVL21:
 325 0012 5B08     		lsrs	r3, r3, #1
 326              	.LVL22:
 327              	.L12:
 326:Generated_Source\PSoC4/cyfitter_cfg.c **** 	}
 327:Generated_Source\PSoC4/cyfitter_cfg.c **** 	CY_SET_XTND_REG32((void *)(CYREG_SAR_PUMP_CTRL), regValue);
 328              		.loc 1 327 0
 329 0014 074A     		ldr	r2, .L15
 330 0016 1360     		str	r3, [r2]
 328:Generated_Source\PSoC4/cyfitter_cfg.c **** 	regValue = CY_GET_XTND_REG32((void *)(CYREG_CLK_IMO_CONFIG));
 331              		.loc 1 328 0
 332 0018 074B     		ldr	r3, .L15+4
 333              	.LVL23:
 334 001a 1B68     		ldr	r3, [r3]
 335              	.LVL24:
 329:Generated_Source\PSoC4/cyfitter_cfg.c **** 	if (enabled != 0u)
 336              		.loc 1 329 0
 337 001c 0028     		cmp	r0, #0
 338 001e 03D0     		beq	.L13
 330:Generated_Source\PSoC4/cyfitter_cfg.c **** 	{
 331:Generated_Source\PSoC4/cyfitter_cfg.c **** 		regValue |= 0x02000000u;
 339              		.loc 1 331 0
 340 0020 8022     		movs	r2, #128
 341 0022 9204     		lsls	r2, r2, #18
 342 0024 1343     		orrs	r3, r2
 343              	.LVL25:
 344 0026 01E0     		b	.L14
 345              	.L13:
 332:Generated_Source\PSoC4/cyfitter_cfg.c **** 	}
 333:Generated_Source\PSoC4/cyfitter_cfg.c **** 	else
ARM GAS  C:\Users\PRAJWA~1\AppData\Local\Temp\ccGEYBzy.s 			page 13


 334:Generated_Source\PSoC4/cyfitter_cfg.c **** 	{
 335:Generated_Source\PSoC4/cyfitter_cfg.c **** 		regValue &= ~0x02000000u;
 346              		.loc 1 335 0
 347 0028 044A     		ldr	r2, .L15+8
 348 002a 1340     		ands	r3, r2
 349              	.LVL26:
 350              	.L14:
 336:Generated_Source\PSoC4/cyfitter_cfg.c **** 	}
 337:Generated_Source\PSoC4/cyfitter_cfg.c **** 	CY_SET_XTND_REG32((void *)(CYREG_CLK_IMO_CONFIG), regValue);
 351              		.loc 1 337 0
 352 002c 024A     		ldr	r2, .L15+4
 353 002e 1360     		str	r3, [r2]
 338:Generated_Source\PSoC4/cyfitter_cfg.c **** }
 354              		.loc 1 338 0
 355              		@ sp needed
 356 0030 7047     		bx	lr
 357              	.L16:
 358 0032 C046     		.align	2
 359              	.L15:
 360 0034 80033A40 		.word	1077543808
 361 0038 08010B40 		.word	1074462984
 362 003c FFFFFFFD 		.word	-33554433
 363              		.cfi_endproc
 364              	.LFE7:
 365              		.size	SetAnalogRoutingPumps, .-SetAnalogRoutingPumps
 366              		.section	.text.AnalogSetDefault,"ax",%progbits
 367              		.align	2
 368              		.code	16
 369              		.thumb_func
 370              		.type	AnalogSetDefault, %function
 371              	AnalogSetDefault:
 372              	.LFB6:
 291:Generated_Source\PSoC4/cyfitter_cfg.c **** 	CY_SET_XTND_REG32((void CYFAR *)CYREG_HSIOM_AMUX_SPLIT_CTL1, 0x00000003u);
 373              		.loc 1 291 0
 374              		.cfi_startproc
 375              		@ args = 0, pretend = 0, frame = 0
 376              		@ frame_needed = 0, uses_anonymous_args = 0
 377 0000 10B5     		push	{r4, lr}
 378              		.cfi_def_cfa_offset 8
 379              		.cfi_offset 4, -8
 380              		.cfi_offset 14, -4
 292:Generated_Source\PSoC4/cyfitter_cfg.c **** 	CY_SET_XTND_REG32((void CYFAR *)CYREG_CTBM0_DFT_CTRL, 0x00000003u);
 381              		.loc 1 292 0
 382 0002 0323     		movs	r3, #3
 383 0004 064A     		ldr	r2, .L18
 384 0006 1360     		str	r3, [r2]
 293:Generated_Source\PSoC4/cyfitter_cfg.c **** 	CY_SET_XTND_REG32((void CYFAR *)CYREG_CTBM1_DFT_CTRL, 0x00000003u);
 385              		.loc 1 293 0
 386 0008 064A     		ldr	r2, .L18+4
 387 000a 1360     		str	r3, [r2]
 294:Generated_Source\PSoC4/cyfitter_cfg.c **** 	CY_SET_XTND_REG32((void CYFAR *)CYREG_PASS_DSAB_DSAB_CTRL, 0x00000000u);
 388              		.loc 1 294 0
 389 000c 064A     		ldr	r2, .L18+8
 390 000e 1360     		str	r3, [r2]
 295:Generated_Source\PSoC4/cyfitter_cfg.c **** 	SetAnalogRoutingPumps(1);
 391              		.loc 1 295 0
 392 0010 0022     		movs	r2, #0
ARM GAS  C:\Users\PRAJWA~1\AppData\Local\Temp\ccGEYBzy.s 			page 14


 393 0012 064B     		ldr	r3, .L18+12
 394 0014 1A60     		str	r2, [r3]
 296:Generated_Source\PSoC4/cyfitter_cfg.c **** }
 395              		.loc 1 296 0
 396 0016 0120     		movs	r0, #1
 397 0018 FFF7FEFF 		bl	SetAnalogRoutingPumps
 398              	.LVL27:
 297:Generated_Source\PSoC4/cyfitter_cfg.c **** 
 399              		.loc 1 297 0
 400              		@ sp needed
 401 001c 10BD     		pop	{r4, pc}
 402              	.L19:
 403 001e C046     		.align	2
 404              	.L18:
 405 0020 04210240 		.word	1073881348
 406 0024 30003040 		.word	1076887600
 407 0028 30003140 		.word	1076953136
 408 002c 000E3F40 		.word	1077874176
 409              		.cfi_endproc
 410              	.LFE6:
 411              		.size	AnalogSetDefault, .-AnalogSetDefault
 412              		.section	.psocinit
 413              		.align	2
 414              		.global	cyfitter_cfg
 415              		.code	16
 416              		.thumb_func
 417              		.type	cyfitter_cfg, %function
 418              	cyfitter_cfg:
 419              	.LFB8:
 339:Generated_Source\PSoC4/cyfitter_cfg.c **** 
 340:Generated_Source\PSoC4/cyfitter_cfg.c **** 
 341:Generated_Source\PSoC4/cyfitter_cfg.c **** 
 342:Generated_Source\PSoC4/cyfitter_cfg.c **** 
 343:Generated_Source\PSoC4/cyfitter_cfg.c **** /*******************************************************************************
 344:Generated_Source\PSoC4/cyfitter_cfg.c **** * Function Name: cyfitter_cfg
 345:Generated_Source\PSoC4/cyfitter_cfg.c **** ********************************************************************************
 346:Generated_Source\PSoC4/cyfitter_cfg.c **** * Summary:
 347:Generated_Source\PSoC4/cyfitter_cfg.c **** *  This function is called by the start-up code for the selected device. It
 348:Generated_Source\PSoC4/cyfitter_cfg.c **** *  performs all of the necessary device configuration based on the design
 349:Generated_Source\PSoC4/cyfitter_cfg.c **** *  settings.  This includes settings from the Design Wide Resources (DWR) such
 350:Generated_Source\PSoC4/cyfitter_cfg.c **** *  as Clocks and Pins as well as any component configuration that is necessary.
 351:Generated_Source\PSoC4/cyfitter_cfg.c **** *
 352:Generated_Source\PSoC4/cyfitter_cfg.c **** * Parameters:
 353:Generated_Source\PSoC4/cyfitter_cfg.c **** *   void
 354:Generated_Source\PSoC4/cyfitter_cfg.c **** *
 355:Generated_Source\PSoC4/cyfitter_cfg.c **** * Return:
 356:Generated_Source\PSoC4/cyfitter_cfg.c **** *   void
 357:Generated_Source\PSoC4/cyfitter_cfg.c **** *
 358:Generated_Source\PSoC4/cyfitter_cfg.c **** *******************************************************************************/
 359:Generated_Source\PSoC4/cyfitter_cfg.c **** CY_CFG_SECTION
 360:Generated_Source\PSoC4/cyfitter_cfg.c **** void cyfitter_cfg(void)
 361:Generated_Source\PSoC4/cyfitter_cfg.c **** {
 420              		.loc 1 361 0
 421              		.cfi_startproc
 422              		@ args = 0, pretend = 0, frame = 0
 423              		@ frame_needed = 0, uses_anonymous_args = 0
 424 0128 10B5     		push	{r4, lr}
ARM GAS  C:\Users\PRAJWA~1\AppData\Local\Temp\ccGEYBzy.s 			page 15


 425              		.cfi_def_cfa_offset 8
 426              		.cfi_offset 4, -8
 427              		.cfi_offset 14, -4
 362:Generated_Source\PSoC4/cyfitter_cfg.c **** 	/* Disable interrupts by default. Let user enable if/when they want. */
 363:Generated_Source\PSoC4/cyfitter_cfg.c **** 	CyGlobalIntDisable;
 428              		.loc 1 363 0
 429              		.syntax divided
 430              	@ 363 "Generated_Source\PSoC4\cyfitter_cfg.c" 1
 431 012a 72B6     		CPSID   i
 432              	@ 0 "" 2
 364:Generated_Source\PSoC4/cyfitter_cfg.c **** 
 365:Generated_Source\PSoC4/cyfitter_cfg.c **** 	/* Enable the clock in the interrupt controller for the routed interrupts */
 366:Generated_Source\PSoC4/cyfitter_cfg.c **** 	CY_SET_REG8((void *)CYREG_UDB_UDBIF_INT_CLK_CTL, 0x01u);
 433              		.loc 1 366 0
 434              		.thumb
 435              		.syntax unified
 436 012c 0122     		movs	r2, #1
 437 012e 434B     		ldr	r3, .L23
 438 0130 1A70     		strb	r2, [r3]
 439              	.LVL28:
 440              	.LBB3:
 367:Generated_Source\PSoC4/cyfitter_cfg.c **** 	{
 368:Generated_Source\PSoC4/cyfitter_cfg.c **** 		static const uint32 CYCODE cy_cfg_addr_table[] = {
 369:Generated_Source\PSoC4/cyfitter_cfg.c **** 			0x400F0001u, /* Base address: 0x400F0000 Count: 1 */
 370:Generated_Source\PSoC4/cyfitter_cfg.c **** 			0x400F3043u, /* Base address: 0x400F3000 Count: 67 */
 371:Generated_Source\PSoC4/cyfitter_cfg.c **** 			0x400F311Bu, /* Base address: 0x400F3100 Count: 27 */
 372:Generated_Source\PSoC4/cyfitter_cfg.c **** 			0x400F323Bu, /* Base address: 0x400F3200 Count: 59 */
 373:Generated_Source\PSoC4/cyfitter_cfg.c **** 			0x400F3323u, /* Base address: 0x400F3300 Count: 35 */
 374:Generated_Source\PSoC4/cyfitter_cfg.c **** 			0x400F4002u, /* Base address: 0x400F4000 Count: 2 */
 375:Generated_Source\PSoC4/cyfitter_cfg.c **** 			0x400F4103u, /* Base address: 0x400F4100 Count: 3 */
 376:Generated_Source\PSoC4/cyfitter_cfg.c **** 			0x400F4203u, /* Base address: 0x400F4200 Count: 3 */
 377:Generated_Source\PSoC4/cyfitter_cfg.c **** 			0x400F4302u, /* Base address: 0x400F4300 Count: 2 */
 378:Generated_Source\PSoC4/cyfitter_cfg.c **** 			0x400F6002u, /* Base address: 0x400F6000 Count: 2 */
 379:Generated_Source\PSoC4/cyfitter_cfg.c **** 		};
 380:Generated_Source\PSoC4/cyfitter_cfg.c **** 
 381:Generated_Source\PSoC4/cyfitter_cfg.c **** 		static const cy_cfg_addrvalue_t CYCODE cy_cfg_data_table[] = {
 382:Generated_Source\PSoC4/cyfitter_cfg.c **** 			{0x83u, 0x67u},
 383:Generated_Source\PSoC4/cyfitter_cfg.c **** 			{0x03u, 0x03u},
 384:Generated_Source\PSoC4/cyfitter_cfg.c **** 			{0x0Eu, 0x03u},
 385:Generated_Source\PSoC4/cyfitter_cfg.c **** 			{0x11u, 0x02u},
 386:Generated_Source\PSoC4/cyfitter_cfg.c **** 			{0x14u, 0x04u},
 387:Generated_Source\PSoC4/cyfitter_cfg.c **** 			{0x1Au, 0x0Cu},
 388:Generated_Source\PSoC4/cyfitter_cfg.c **** 			{0x1Cu, 0x01u},
 389:Generated_Source\PSoC4/cyfitter_cfg.c **** 			{0x2Eu, 0x01u},
 390:Generated_Source\PSoC4/cyfitter_cfg.c **** 			{0x30u, 0x04u},
 391:Generated_Source\PSoC4/cyfitter_cfg.c **** 			{0x31u, 0x01u},
 392:Generated_Source\PSoC4/cyfitter_cfg.c **** 			{0x32u, 0x08u},
 393:Generated_Source\PSoC4/cyfitter_cfg.c **** 			{0x33u, 0x02u},
 394:Generated_Source\PSoC4/cyfitter_cfg.c **** 			{0x34u, 0x01u},
 395:Generated_Source\PSoC4/cyfitter_cfg.c **** 			{0x36u, 0x02u},
 396:Generated_Source\PSoC4/cyfitter_cfg.c **** 			{0x38u, 0x02u},
 397:Generated_Source\PSoC4/cyfitter_cfg.c **** 			{0x39u, 0xA0u},
 398:Generated_Source\PSoC4/cyfitter_cfg.c **** 			{0x3Au, 0x08u},
 399:Generated_Source\PSoC4/cyfitter_cfg.c **** 			{0x3Eu, 0x10u},
 400:Generated_Source\PSoC4/cyfitter_cfg.c **** 			{0x3Fu, 0x44u},
 401:Generated_Source\PSoC4/cyfitter_cfg.c **** 			{0x40u, 0x24u},
 402:Generated_Source\PSoC4/cyfitter_cfg.c **** 			{0x41u, 0x05u},
ARM GAS  C:\Users\PRAJWA~1\AppData\Local\Temp\ccGEYBzy.s 			page 16


 403:Generated_Source\PSoC4/cyfitter_cfg.c **** 			{0x49u, 0xFFu},
 404:Generated_Source\PSoC4/cyfitter_cfg.c **** 			{0x4Au, 0xFFu},
 405:Generated_Source\PSoC4/cyfitter_cfg.c **** 			{0x4Bu, 0xFFu},
 406:Generated_Source\PSoC4/cyfitter_cfg.c **** 			{0x4Du, 0xA0u},
 407:Generated_Source\PSoC4/cyfitter_cfg.c **** 			{0x4Fu, 0x01u},
 408:Generated_Source\PSoC4/cyfitter_cfg.c **** 			{0x50u, 0x18u},
 409:Generated_Source\PSoC4/cyfitter_cfg.c **** 			{0x52u, 0x80u},
 410:Generated_Source\PSoC4/cyfitter_cfg.c **** 			{0x58u, 0x04u},
 411:Generated_Source\PSoC4/cyfitter_cfg.c **** 			{0x59u, 0x04u},
 412:Generated_Source\PSoC4/cyfitter_cfg.c **** 			{0x5Au, 0x04u},
 413:Generated_Source\PSoC4/cyfitter_cfg.c **** 			{0x5Bu, 0x04u},
 414:Generated_Source\PSoC4/cyfitter_cfg.c **** 			{0x5Fu, 0x01u},
 415:Generated_Source\PSoC4/cyfitter_cfg.c **** 			{0x60u, 0x40u},
 416:Generated_Source\PSoC4/cyfitter_cfg.c **** 			{0x62u, 0x80u},
 417:Generated_Source\PSoC4/cyfitter_cfg.c **** 			{0x64u, 0x40u},
 418:Generated_Source\PSoC4/cyfitter_cfg.c **** 			{0x65u, 0x40u},
 419:Generated_Source\PSoC4/cyfitter_cfg.c **** 			{0x66u, 0x80u},
 420:Generated_Source\PSoC4/cyfitter_cfg.c **** 			{0x68u, 0x40u},
 421:Generated_Source\PSoC4/cyfitter_cfg.c **** 			{0x6Au, 0x50u},
 422:Generated_Source\PSoC4/cyfitter_cfg.c **** 			{0x6Bu, 0xA8u},
 423:Generated_Source\PSoC4/cyfitter_cfg.c **** 			{0x6Cu, 0x40u},
 424:Generated_Source\PSoC4/cyfitter_cfg.c **** 			{0x6Du, 0x20u},
 425:Generated_Source\PSoC4/cyfitter_cfg.c **** 			{0x6Eu, 0x50u},
 426:Generated_Source\PSoC4/cyfitter_cfg.c **** 			{0x6Fu, 0xA8u},
 427:Generated_Source\PSoC4/cyfitter_cfg.c **** 			{0xC0u, 0x65u},
 428:Generated_Source\PSoC4/cyfitter_cfg.c **** 			{0xC1u, 0x04u},
 429:Generated_Source\PSoC4/cyfitter_cfg.c **** 			{0xC9u, 0xFFu},
 430:Generated_Source\PSoC4/cyfitter_cfg.c **** 			{0xCAu, 0xFFu},
 431:Generated_Source\PSoC4/cyfitter_cfg.c **** 			{0xCBu, 0xFFu},
 432:Generated_Source\PSoC4/cyfitter_cfg.c **** 			{0xCDu, 0xAFu},
 433:Generated_Source\PSoC4/cyfitter_cfg.c **** 			{0xCEu, 0x07u},
 434:Generated_Source\PSoC4/cyfitter_cfg.c **** 			{0xCFu, 0x01u},
 435:Generated_Source\PSoC4/cyfitter_cfg.c **** 			{0xD0u, 0x18u},
 436:Generated_Source\PSoC4/cyfitter_cfg.c **** 			{0xDAu, 0x04u},
 437:Generated_Source\PSoC4/cyfitter_cfg.c **** 			{0xDFu, 0x01u},
 438:Generated_Source\PSoC4/cyfitter_cfg.c **** 			{0xE0u, 0x40u},
 439:Generated_Source\PSoC4/cyfitter_cfg.c **** 			{0xE2u, 0x80u},
 440:Generated_Source\PSoC4/cyfitter_cfg.c **** 			{0xE4u, 0x40u},
 441:Generated_Source\PSoC4/cyfitter_cfg.c **** 			{0xE5u, 0x40u},
 442:Generated_Source\PSoC4/cyfitter_cfg.c **** 			{0xE6u, 0x80u},
 443:Generated_Source\PSoC4/cyfitter_cfg.c **** 			{0xE8u, 0x40u},
 444:Generated_Source\PSoC4/cyfitter_cfg.c **** 			{0xEAu, 0x50u},
 445:Generated_Source\PSoC4/cyfitter_cfg.c **** 			{0xEBu, 0xA8u},
 446:Generated_Source\PSoC4/cyfitter_cfg.c **** 			{0xECu, 0x40u},
 447:Generated_Source\PSoC4/cyfitter_cfg.c **** 			{0xEDu, 0x20u},
 448:Generated_Source\PSoC4/cyfitter_cfg.c **** 			{0xEEu, 0x50u},
 449:Generated_Source\PSoC4/cyfitter_cfg.c **** 			{0xEFu, 0xA8u},
 450:Generated_Source\PSoC4/cyfitter_cfg.c **** 			{0x00u, 0x40u},
 451:Generated_Source\PSoC4/cyfitter_cfg.c **** 			{0x09u, 0x20u},
 452:Generated_Source\PSoC4/cyfitter_cfg.c **** 			{0x0Au, 0x11u},
 453:Generated_Source\PSoC4/cyfitter_cfg.c **** 			{0x10u, 0x02u},
 454:Generated_Source\PSoC4/cyfitter_cfg.c **** 			{0x18u, 0x44u},
 455:Generated_Source\PSoC4/cyfitter_cfg.c **** 			{0x1Au, 0x11u},
 456:Generated_Source\PSoC4/cyfitter_cfg.c **** 			{0x1Bu, 0x10u},
 457:Generated_Source\PSoC4/cyfitter_cfg.c **** 			{0x20u, 0x02u},
 458:Generated_Source\PSoC4/cyfitter_cfg.c **** 			{0x21u, 0x22u},
 459:Generated_Source\PSoC4/cyfitter_cfg.c **** 			{0x22u, 0x04u},
ARM GAS  C:\Users\PRAJWA~1\AppData\Local\Temp\ccGEYBzy.s 			page 17


 460:Generated_Source\PSoC4/cyfitter_cfg.c **** 			{0x23u, 0x03u},
 461:Generated_Source\PSoC4/cyfitter_cfg.c **** 			{0x31u, 0x02u},
 462:Generated_Source\PSoC4/cyfitter_cfg.c **** 			{0x39u, 0x02u},
 463:Generated_Source\PSoC4/cyfitter_cfg.c **** 			{0x40u, 0x04u},
 464:Generated_Source\PSoC4/cyfitter_cfg.c **** 			{0x41u, 0x01u},
 465:Generated_Source\PSoC4/cyfitter_cfg.c **** 			{0x47u, 0x02u},
 466:Generated_Source\PSoC4/cyfitter_cfg.c **** 			{0x48u, 0x01u},
 467:Generated_Source\PSoC4/cyfitter_cfg.c **** 			{0x4Eu, 0x02u},
 468:Generated_Source\PSoC4/cyfitter_cfg.c **** 			{0x4Fu, 0x20u},
 469:Generated_Source\PSoC4/cyfitter_cfg.c **** 			{0x70u, 0x02u},
 470:Generated_Source\PSoC4/cyfitter_cfg.c **** 			{0xC0u, 0x01u},
 471:Generated_Source\PSoC4/cyfitter_cfg.c **** 			{0xC2u, 0x07u},
 472:Generated_Source\PSoC4/cyfitter_cfg.c **** 			{0xC4u, 0x01u},
 473:Generated_Source\PSoC4/cyfitter_cfg.c **** 			{0xCCu, 0x01u},
 474:Generated_Source\PSoC4/cyfitter_cfg.c **** 			{0xCEu, 0x01u},
 475:Generated_Source\PSoC4/cyfitter_cfg.c **** 			{0xD0u, 0x85u},
 476:Generated_Source\PSoC4/cyfitter_cfg.c **** 			{0xD2u, 0x38u},
 477:Generated_Source\PSoC4/cyfitter_cfg.c **** 			{0x40u, 0x65u},
 478:Generated_Source\PSoC4/cyfitter_cfg.c **** 			{0x41u, 0x04u},
 479:Generated_Source\PSoC4/cyfitter_cfg.c **** 			{0x49u, 0xFFu},
 480:Generated_Source\PSoC4/cyfitter_cfg.c **** 			{0x4Au, 0xFFu},
 481:Generated_Source\PSoC4/cyfitter_cfg.c **** 			{0x4Bu, 0xFFu},
 482:Generated_Source\PSoC4/cyfitter_cfg.c **** 			{0x4Du, 0xAFu},
 483:Generated_Source\PSoC4/cyfitter_cfg.c **** 			{0x4Eu, 0x07u},
 484:Generated_Source\PSoC4/cyfitter_cfg.c **** 			{0x4Fu, 0x01u},
 485:Generated_Source\PSoC4/cyfitter_cfg.c **** 			{0x50u, 0x18u},
 486:Generated_Source\PSoC4/cyfitter_cfg.c **** 			{0x5Au, 0x04u},
 487:Generated_Source\PSoC4/cyfitter_cfg.c **** 			{0x5Fu, 0x01u},
 488:Generated_Source\PSoC4/cyfitter_cfg.c **** 			{0x60u, 0x40u},
 489:Generated_Source\PSoC4/cyfitter_cfg.c **** 			{0x62u, 0x80u},
 490:Generated_Source\PSoC4/cyfitter_cfg.c **** 			{0x64u, 0x40u},
 491:Generated_Source\PSoC4/cyfitter_cfg.c **** 			{0x65u, 0x40u},
 492:Generated_Source\PSoC4/cyfitter_cfg.c **** 			{0x66u, 0x80u},
 493:Generated_Source\PSoC4/cyfitter_cfg.c **** 			{0x68u, 0x40u},
 494:Generated_Source\PSoC4/cyfitter_cfg.c **** 			{0x6Au, 0x50u},
 495:Generated_Source\PSoC4/cyfitter_cfg.c **** 			{0x6Bu, 0xA8u},
 496:Generated_Source\PSoC4/cyfitter_cfg.c **** 			{0x6Cu, 0x40u},
 497:Generated_Source\PSoC4/cyfitter_cfg.c **** 			{0x6Du, 0x20u},
 498:Generated_Source\PSoC4/cyfitter_cfg.c **** 			{0x6Eu, 0x50u},
 499:Generated_Source\PSoC4/cyfitter_cfg.c **** 			{0x6Fu, 0xA8u},
 500:Generated_Source\PSoC4/cyfitter_cfg.c **** 			{0x8Cu, 0x02u},
 501:Generated_Source\PSoC4/cyfitter_cfg.c **** 			{0xA6u, 0x03u},
 502:Generated_Source\PSoC4/cyfitter_cfg.c **** 			{0xB0u, 0x01u},
 503:Generated_Source\PSoC4/cyfitter_cfg.c **** 			{0xB6u, 0x02u},
 504:Generated_Source\PSoC4/cyfitter_cfg.c **** 			{0xBEu, 0x40u},
 505:Generated_Source\PSoC4/cyfitter_cfg.c **** 			{0xC0u, 0x24u},
 506:Generated_Source\PSoC4/cyfitter_cfg.c **** 			{0xC1u, 0x05u},
 507:Generated_Source\PSoC4/cyfitter_cfg.c **** 			{0xC5u, 0x04u},
 508:Generated_Source\PSoC4/cyfitter_cfg.c **** 			{0xC6u, 0xC2u},
 509:Generated_Source\PSoC4/cyfitter_cfg.c **** 			{0xC7u, 0x0Eu},
 510:Generated_Source\PSoC4/cyfitter_cfg.c **** 			{0xC8u, 0x3Du},
 511:Generated_Source\PSoC4/cyfitter_cfg.c **** 			{0xC9u, 0xFFu},
 512:Generated_Source\PSoC4/cyfitter_cfg.c **** 			{0xCAu, 0xFFu},
 513:Generated_Source\PSoC4/cyfitter_cfg.c **** 			{0xCBu, 0xFFu},
 514:Generated_Source\PSoC4/cyfitter_cfg.c **** 			{0xCDu, 0xAFu},
 515:Generated_Source\PSoC4/cyfitter_cfg.c **** 			{0xCEu, 0x07u},
 516:Generated_Source\PSoC4/cyfitter_cfg.c **** 			{0xCFu, 0x01u},
ARM GAS  C:\Users\PRAJWA~1\AppData\Local\Temp\ccGEYBzy.s 			page 18


 517:Generated_Source\PSoC4/cyfitter_cfg.c **** 			{0xD0u, 0x18u},
 518:Generated_Source\PSoC4/cyfitter_cfg.c **** 			{0xD4u, 0x07u},
 519:Generated_Source\PSoC4/cyfitter_cfg.c **** 			{0xD6u, 0x04u},
 520:Generated_Source\PSoC4/cyfitter_cfg.c **** 			{0xD8u, 0x04u},
 521:Generated_Source\PSoC4/cyfitter_cfg.c **** 			{0xDAu, 0x04u},
 522:Generated_Source\PSoC4/cyfitter_cfg.c **** 			{0xDBu, 0x04u},
 523:Generated_Source\PSoC4/cyfitter_cfg.c **** 			{0xDFu, 0x01u},
 524:Generated_Source\PSoC4/cyfitter_cfg.c **** 			{0xE0u, 0x40u},
 525:Generated_Source\PSoC4/cyfitter_cfg.c **** 			{0xE2u, 0x80u},
 526:Generated_Source\PSoC4/cyfitter_cfg.c **** 			{0xE4u, 0x40u},
 527:Generated_Source\PSoC4/cyfitter_cfg.c **** 			{0xE5u, 0x40u},
 528:Generated_Source\PSoC4/cyfitter_cfg.c **** 			{0xE6u, 0x80u},
 529:Generated_Source\PSoC4/cyfitter_cfg.c **** 			{0xE8u, 0x40u},
 530:Generated_Source\PSoC4/cyfitter_cfg.c **** 			{0xEAu, 0x50u},
 531:Generated_Source\PSoC4/cyfitter_cfg.c **** 			{0xEBu, 0xA8u},
 532:Generated_Source\PSoC4/cyfitter_cfg.c **** 			{0xECu, 0x40u},
 533:Generated_Source\PSoC4/cyfitter_cfg.c **** 			{0xEDu, 0x20u},
 534:Generated_Source\PSoC4/cyfitter_cfg.c **** 			{0xEEu, 0x50u},
 535:Generated_Source\PSoC4/cyfitter_cfg.c **** 			{0xEFu, 0xA8u},
 536:Generated_Source\PSoC4/cyfitter_cfg.c **** 			{0x00u, 0x40u},
 537:Generated_Source\PSoC4/cyfitter_cfg.c **** 			{0x10u, 0x20u},
 538:Generated_Source\PSoC4/cyfitter_cfg.c **** 			{0x18u, 0x40u},
 539:Generated_Source\PSoC4/cyfitter_cfg.c **** 			{0x19u, 0x40u},
 540:Generated_Source\PSoC4/cyfitter_cfg.c **** 			{0x40u, 0x04u},
 541:Generated_Source\PSoC4/cyfitter_cfg.c **** 			{0x41u, 0x01u},
 542:Generated_Source\PSoC4/cyfitter_cfg.c **** 			{0x47u, 0x02u},
 543:Generated_Source\PSoC4/cyfitter_cfg.c **** 			{0x48u, 0x21u},
 544:Generated_Source\PSoC4/cyfitter_cfg.c **** 			{0x4Eu, 0x02u},
 545:Generated_Source\PSoC4/cyfitter_cfg.c **** 			{0x4Fu, 0x20u},
 546:Generated_Source\PSoC4/cyfitter_cfg.c **** 			{0x51u, 0x49u},
 547:Generated_Source\PSoC4/cyfitter_cfg.c **** 			{0x52u, 0x12u},
 548:Generated_Source\PSoC4/cyfitter_cfg.c **** 			{0x59u, 0x40u},
 549:Generated_Source\PSoC4/cyfitter_cfg.c **** 			{0x5Au, 0x18u},
 550:Generated_Source\PSoC4/cyfitter_cfg.c **** 			{0x61u, 0x08u},
 551:Generated_Source\PSoC4/cyfitter_cfg.c **** 			{0x62u, 0x10u},
 552:Generated_Source\PSoC4/cyfitter_cfg.c **** 			{0x63u, 0x80u},
 553:Generated_Source\PSoC4/cyfitter_cfg.c **** 			{0x83u, 0x40u},
 554:Generated_Source\PSoC4/cyfitter_cfg.c **** 			{0x8Du, 0x40u},
 555:Generated_Source\PSoC4/cyfitter_cfg.c **** 			{0x8Eu, 0x10u},
 556:Generated_Source\PSoC4/cyfitter_cfg.c **** 			{0x90u, 0x04u},
 557:Generated_Source\PSoC4/cyfitter_cfg.c **** 			{0x92u, 0x08u},
 558:Generated_Source\PSoC4/cyfitter_cfg.c **** 			{0x95u, 0x02u},
 559:Generated_Source\PSoC4/cyfitter_cfg.c **** 			{0x9Bu, 0x02u},
 560:Generated_Source\PSoC4/cyfitter_cfg.c **** 			{0xA0u, 0x01u},
 561:Generated_Source\PSoC4/cyfitter_cfg.c **** 			{0xA3u, 0x10u},
 562:Generated_Source\PSoC4/cyfitter_cfg.c **** 			{0xA6u, 0x02u},
 563:Generated_Source\PSoC4/cyfitter_cfg.c **** 			{0xABu, 0x01u},
 564:Generated_Source\PSoC4/cyfitter_cfg.c **** 			{0xC0u, 0x01u},
 565:Generated_Source\PSoC4/cyfitter_cfg.c **** 			{0xC4u, 0x04u},
 566:Generated_Source\PSoC4/cyfitter_cfg.c **** 			{0xD0u, 0x85u},
 567:Generated_Source\PSoC4/cyfitter_cfg.c **** 			{0xD2u, 0x38u},
 568:Generated_Source\PSoC4/cyfitter_cfg.c **** 			{0xD6u, 0x0Eu},
 569:Generated_Source\PSoC4/cyfitter_cfg.c **** 			{0xD8u, 0x07u},
 570:Generated_Source\PSoC4/cyfitter_cfg.c **** 			{0xE8u, 0x01u},
 571:Generated_Source\PSoC4/cyfitter_cfg.c **** 			{0x6Bu, 0x10u},
 572:Generated_Source\PSoC4/cyfitter_cfg.c **** 			{0xDAu, 0x40u},
 573:Generated_Source\PSoC4/cyfitter_cfg.c **** 			{0x83u, 0x10u},
ARM GAS  C:\Users\PRAJWA~1\AppData\Local\Temp\ccGEYBzy.s 			page 19


 574:Generated_Source\PSoC4/cyfitter_cfg.c **** 			{0x9Fu, 0x10u},
 575:Generated_Source\PSoC4/cyfitter_cfg.c **** 			{0xE2u, 0x20u},
 576:Generated_Source\PSoC4/cyfitter_cfg.c **** 			{0x72u, 0x10u},
 577:Generated_Source\PSoC4/cyfitter_cfg.c **** 			{0x74u, 0x20u},
 578:Generated_Source\PSoC4/cyfitter_cfg.c **** 			{0xDCu, 0x03u},
 579:Generated_Source\PSoC4/cyfitter_cfg.c **** 			{0xA8u, 0x20u},
 580:Generated_Source\PSoC4/cyfitter_cfg.c **** 			{0xAAu, 0x10u},
 581:Generated_Source\PSoC4/cyfitter_cfg.c **** 			{0x01u, 0x01u},
 582:Generated_Source\PSoC4/cyfitter_cfg.c **** 			{0x10u, 0x01u},
 583:Generated_Source\PSoC4/cyfitter_cfg.c **** 		};
 584:Generated_Source\PSoC4/cyfitter_cfg.c **** 
 585:Generated_Source\PSoC4/cyfitter_cfg.c **** 
 586:Generated_Source\PSoC4/cyfitter_cfg.c **** 
 587:Generated_Source\PSoC4/cyfitter_cfg.c **** 		CYPACKED typedef struct {
 588:Generated_Source\PSoC4/cyfitter_cfg.c **** 			void CYFAR *address;
 589:Generated_Source\PSoC4/cyfitter_cfg.c **** 			uint16 size;
 590:Generated_Source\PSoC4/cyfitter_cfg.c **** 		} CYPACKED_ATTR cfg_memset_t;
 591:Generated_Source\PSoC4/cyfitter_cfg.c **** 
 592:Generated_Source\PSoC4/cyfitter_cfg.c **** 		static const cfg_memset_t CYCODE cfg_memset_list[] = {
 593:Generated_Source\PSoC4/cyfitter_cfg.c **** 			/* address, size */
 594:Generated_Source\PSoC4/cyfitter_cfg.c **** 			{(void CYFAR *)(CYDEV_UDB_P0_U0_BASE), 1024u},
 595:Generated_Source\PSoC4/cyfitter_cfg.c **** 			{(void CYFAR *)(CYDEV_UDB_DSI0_BASE), 1024u},
 596:Generated_Source\PSoC4/cyfitter_cfg.c **** 		};
 597:Generated_Source\PSoC4/cyfitter_cfg.c **** 
 598:Generated_Source\PSoC4/cyfitter_cfg.c **** 		uint8 CYDATA i;
 599:Generated_Source\PSoC4/cyfitter_cfg.c **** 
 600:Generated_Source\PSoC4/cyfitter_cfg.c **** 		/* Zero out critical memory blocks before beginning configuration */
 601:Generated_Source\PSoC4/cyfitter_cfg.c **** 		for (i = 0u; i < (sizeof(cfg_memset_list)/sizeof(cfg_memset_list[0])); i++)
 441              		.loc 1 601 0
 442 0132 0024     		movs	r4, #0
 443 0134 0FE0     		b	.L21
 444              	.LVL29:
 445              	.L22:
 446              	.LBB4:
 602:Generated_Source\PSoC4/cyfitter_cfg.c **** 		{
 603:Generated_Source\PSoC4/cyfitter_cfg.c **** 			const cfg_memset_t CYCODE * CYDATA ms = &cfg_memset_list[i];
 604:Generated_Source\PSoC4/cyfitter_cfg.c **** 			CYMEMZERO(ms->address, (size_t)(uint32)(ms->size));
 447              		.loc 1 604 0 discriminator 3
 448 0136 4248     		ldr	r0, .L23+4
 449 0138 6200     		lsls	r2, r4, #1
 450 013a 1319     		adds	r3, r2, r4
 451 013c 5900     		lsls	r1, r3, #1
 452 013e 0B00     		movs	r3, r1
 453 0140 4118     		adds	r1, r0, r1
 454 0142 8988     		ldrh	r1, [r1, #4]
 455 0144 1A5A     		ldrh	r2, [r3, r0]
 456 0146 C318     		adds	r3, r0, r3
 457 0148 5888     		ldrh	r0, [r3, #2]
 458 014a 0004     		lsls	r0, r0, #16
 459 014c 1043     		orrs	r0, r2
 460 014e FFF7FEFF 		bl	CYMEMZERO
 461              	.LVL30:
 462              	.LBE4:
 601:Generated_Source\PSoC4/cyfitter_cfg.c **** 		{
 463              		.loc 1 601 0 discriminator 3
 464 0152 0134     		adds	r4, r4, #1
 465              	.LVL31:
ARM GAS  C:\Users\PRAJWA~1\AppData\Local\Temp\ccGEYBzy.s 			page 20


 466 0154 E4B2     		uxtb	r4, r4
 467              	.LVL32:
 468              	.L21:
 601:Generated_Source\PSoC4/cyfitter_cfg.c **** 		{
 469              		.loc 1 601 0 is_stmt 0 discriminator 1
 470 0156 012C     		cmp	r4, #1
 471 0158 EDD9     		bls	.L22
 605:Generated_Source\PSoC4/cyfitter_cfg.c **** 		}
 606:Generated_Source\PSoC4/cyfitter_cfg.c **** 
 607:Generated_Source\PSoC4/cyfitter_cfg.c **** 		cfg_write_bytes32(cy_cfg_addr_table, cy_cfg_data_table);
 472              		.loc 1 607 0 is_stmt 1
 473 015a 3949     		ldr	r1, .L23+4
 474 015c 0C31     		adds	r1, r1, #12
 475 015e 3948     		ldr	r0, .L23+8
 476 0160 2030     		adds	r0, r0, #32
 477 0162 FFF7FEFF 		bl	cfg_write_bytes32
 478              	.LVL33:
 608:Generated_Source\PSoC4/cyfitter_cfg.c **** 
 609:Generated_Source\PSoC4/cyfitter_cfg.c **** 		/* HSIOM Starting address: CYDEV_HSIOM_BASE */
 610:Generated_Source\PSoC4/cyfitter_cfg.c **** 		CY_SET_REG32((void *)(CYREG_HSIOM_PORT_SEL1), 0x00000FFFu);
 479              		.loc 1 610 0
 480 0166 384A     		ldr	r2, .L23+12
 481 0168 384B     		ldr	r3, .L23+16
 482 016a 1A60     		str	r2, [r3]
 611:Generated_Source\PSoC4/cyfitter_cfg.c **** 		CY_SET_REG32((void *)(CYREG_HSIOM_PORT_SEL2), 0x0000FFFFu);
 483              		.loc 1 611 0
 484 016c 384A     		ldr	r2, .L23+20
 485 016e 394B     		ldr	r3, .L23+24
 486 0170 1A60     		str	r2, [r3]
 612:Generated_Source\PSoC4/cyfitter_cfg.c **** 		CY_SET_REG32((void *)(CYREG_HSIOM_PORT_SEL3), 0x0000EE00u);
 487              		.loc 1 612 0
 488 0172 EE22     		movs	r2, #238
 489 0174 1202     		lsls	r2, r2, #8
 490 0176 384B     		ldr	r3, .L23+28
 491 0178 1A60     		str	r2, [r3]
 613:Generated_Source\PSoC4/cyfitter_cfg.c **** 		CY_SET_REG32((void *)(CYREG_HSIOM_PORT_SEL5), 0x00000099u);
 492              		.loc 1 613 0
 493 017a 9922     		movs	r2, #153
 494 017c 374B     		ldr	r3, .L23+32
 495 017e 1A60     		str	r2, [r3]
 614:Generated_Source\PSoC4/cyfitter_cfg.c **** 		CY_SET_REG32((void *)(CYREG_HSIOM_PORT_SEL7), 0x000000EEu);
 496              		.loc 1 614 0
 497 0180 5532     		adds	r2, r2, #85
 498 0182 374B     		ldr	r3, .L23+36
 499 0184 1A60     		str	r2, [r3]
 615:Generated_Source\PSoC4/cyfitter_cfg.c **** 
 616:Generated_Source\PSoC4/cyfitter_cfg.c **** 		/* UDB_PA_0 Starting address: CYDEV_UDB_PA0_BASE */
 617:Generated_Source\PSoC4/cyfitter_cfg.c **** 		CY_SET_REG32((void *)(CYDEV_UDB_PA0_BASE), 0x00990000u);
 500              		.loc 1 617 0
 501 0186 9923     		movs	r3, #153
 502 0188 1B04     		lsls	r3, r3, #16
 503 018a 364A     		ldr	r2, .L23+40
 504 018c 1360     		str	r3, [r2]
 618:Generated_Source\PSoC4/cyfitter_cfg.c **** 
 619:Generated_Source\PSoC4/cyfitter_cfg.c **** 		/* UDB_PA_1 Starting address: CYDEV_UDB_PA1_BASE */
 620:Generated_Source\PSoC4/cyfitter_cfg.c **** 		CY_SET_REG32((void *)(CYDEV_UDB_PA1_BASE), 0x00990000u);
 505              		.loc 1 620 0
ARM GAS  C:\Users\PRAJWA~1\AppData\Local\Temp\ccGEYBzy.s 			page 21


 506 018e 364A     		ldr	r2, .L23+44
 507 0190 1360     		str	r3, [r2]
 621:Generated_Source\PSoC4/cyfitter_cfg.c **** 
 622:Generated_Source\PSoC4/cyfitter_cfg.c **** 		/* UDB_PA_2 Starting address: CYDEV_UDB_PA2_BASE */
 623:Generated_Source\PSoC4/cyfitter_cfg.c **** 		CY_SET_REG32((void *)(CYDEV_UDB_PA2_BASE), 0x00990000u);
 508              		.loc 1 623 0
 509 0192 364A     		ldr	r2, .L23+48
 510 0194 1360     		str	r3, [r2]
 624:Generated_Source\PSoC4/cyfitter_cfg.c **** 
 625:Generated_Source\PSoC4/cyfitter_cfg.c **** 		/* UDB_PA_3 Starting address: CYDEV_UDB_PA3_BASE */
 626:Generated_Source\PSoC4/cyfitter_cfg.c **** 		CY_SET_REG32((void *)(CYDEV_UDB_PA3_BASE), 0x00990000u);
 511              		.loc 1 626 0
 512 0196 364A     		ldr	r2, .L23+52
 513 0198 1360     		str	r3, [r2]
 627:Generated_Source\PSoC4/cyfitter_cfg.c **** 
 628:Generated_Source\PSoC4/cyfitter_cfg.c **** 		/* INT_SELECT Starting address: CYDEV_CPUSS_INT_SEL */
 629:Generated_Source\PSoC4/cyfitter_cfg.c **** 		CY_SET_REG32((void *)(CYREG_CPUSS_INT_SEL), 0x00000001u);
 514              		.loc 1 629 0
 515 019a 0121     		movs	r1, #1
 516 019c 354B     		ldr	r3, .L23+56
 517 019e 1960     		str	r1, [r3]
 630:Generated_Source\PSoC4/cyfitter_cfg.c **** 
 631:Generated_Source\PSoC4/cyfitter_cfg.c **** 		/* INT_CONFIG Starting address: CYDEV_UDB_INT_CFG */
 632:Generated_Source\PSoC4/cyfitter_cfg.c **** 		CY_SET_REG32((void *)(CYREG_UDB_INT_CFG), 0x00000001u);
 518              		.loc 1 632 0
 519 01a0 354B     		ldr	r3, .L23+60
 520 01a2 1960     		str	r1, [r3]
 633:Generated_Source\PSoC4/cyfitter_cfg.c **** 
 634:Generated_Source\PSoC4/cyfitter_cfg.c **** 		/* Enable UDB array and digital routing */
 635:Generated_Source\PSoC4/cyfitter_cfg.c **** 		CY_SET_XTND_REG8((void *)CYREG_UDB_UDBIF_WAIT_CFG, (uint8)((CY_GET_XTND_REG8((void *)CYREG_UDB_UD
 521              		.loc 1 635 0
 522 01a4 3548     		ldr	r0, .L23+64
 523 01a6 0378     		ldrb	r3, [r0]
 524 01a8 3C22     		movs	r2, #60
 525 01aa 9343     		bics	r3, r2
 526 01ac 1422     		movs	r2, #20
 527 01ae 1343     		orrs	r3, r2
 528 01b0 DBB2     		uxtb	r3, r3
 529 01b2 0370     		strb	r3, [r0]
 636:Generated_Source\PSoC4/cyfitter_cfg.c **** 		CY_SET_XTND_REG8((void *)CYREG_UDB_UDBIF_BANK_CTL, (uint8)(CY_GET_XTND_REG8((void *)CYREG_UDB_UDB
 530              		.loc 1 636 0
 531 01b4 324A     		ldr	r2, .L23+68
 532 01b6 1078     		ldrb	r0, [r2]
 533 01b8 1623     		movs	r3, #22
 534 01ba 0343     		orrs	r3, r0
 535 01bc DBB2     		uxtb	r3, r3
 536 01be 1370     		strb	r3, [r2]
 537              	.LBE3:
 637:Generated_Source\PSoC4/cyfitter_cfg.c **** 	}
 638:Generated_Source\PSoC4/cyfitter_cfg.c **** 
 639:Generated_Source\PSoC4/cyfitter_cfg.c **** 	/* Perform second pass device configuration. These items must be configured in specific order afte
 640:Generated_Source\PSoC4/cyfitter_cfg.c **** 	/* IOPINS0_0 Starting address: CYDEV_GPIO_PRT0_BASE */
 641:Generated_Source\PSoC4/cyfitter_cfg.c **** 	CY_SET_REG32((void *)(CYDEV_GPIO_PRT0_BASE), 0x00000020u);
 538              		.loc 1 641 0
 539 01c0 2023     		movs	r3, #32
 540 01c2 304A     		ldr	r2, .L23+72
 541 01c4 1360     		str	r3, [r2]
ARM GAS  C:\Users\PRAJWA~1\AppData\Local\Temp\ccGEYBzy.s 			page 22


 642:Generated_Source\PSoC4/cyfitter_cfg.c **** 	CY_SET_REG32((void *)(CYREG_GPIO_PRT0_PC), 0x001B0000u);
 542              		.loc 1 642 0
 543 01c6 D820     		movs	r0, #216
 544 01c8 4003     		lsls	r0, r0, #13
 545 01ca 2F4A     		ldr	r2, .L23+76
 546 01cc 1060     		str	r0, [r2]
 643:Generated_Source\PSoC4/cyfitter_cfg.c **** 
 644:Generated_Source\PSoC4/cyfitter_cfg.c **** 	/* IOPINS0_1 Starting address: CYDEV_GPIO_PRT1_BASE */
 645:Generated_Source\PSoC4/cyfitter_cfg.c **** 	CY_SET_REG32((void *)(CYDEV_GPIO_PRT1_BASE), 0x000000B5u);
 547              		.loc 1 645 0
 548 01ce B520     		movs	r0, #181
 549 01d0 2E4A     		ldr	r2, .L23+80
 550 01d2 1060     		str	r0, [r2]
 646:Generated_Source\PSoC4/cyfitter_cfg.c **** 	CY_SET_REG32((void *)(CYREG_GPIO_PRT1_PC), 0x00C0018Eu);
 551              		.loc 1 646 0
 552 01d4 2E48     		ldr	r0, .L23+84
 553 01d6 2F4A     		ldr	r2, .L23+88
 554 01d8 1060     		str	r0, [r2]
 647:Generated_Source\PSoC4/cyfitter_cfg.c **** 	CY_SET_REG32((void *)(CYREG_GPIO_PRT1_PC2), 0x00000035u);
 555              		.loc 1 647 0
 556 01da 3520     		movs	r0, #53
 557 01dc 2E4A     		ldr	r2, .L23+92
 558 01de 1060     		str	r0, [r2]
 648:Generated_Source\PSoC4/cyfitter_cfg.c **** 
 649:Generated_Source\PSoC4/cyfitter_cfg.c **** 	/* IOPINS0_2 Starting address: CYDEV_GPIO_PRT2_BASE */
 650:Generated_Source\PSoC4/cyfitter_cfg.c **** 	CY_SET_REG32((void *)(CYDEV_GPIO_PRT2_BASE), 0x0000009Du);
 559              		.loc 1 650 0
 560 01e0 6830     		adds	r0, r0, #104
 561 01e2 2E4A     		ldr	r2, .L23+96
 562 01e4 1060     		str	r0, [r2]
 651:Generated_Source\PSoC4/cyfitter_cfg.c **** 	CY_SET_REG32((void *)(CYREG_GPIO_PRT2_PC), 0x00000D8Eu);
 563              		.loc 1 651 0
 564 01e6 2E48     		ldr	r0, .L23+100
 565 01e8 2E4A     		ldr	r2, .L23+104
 566 01ea 1060     		str	r0, [r2]
 652:Generated_Source\PSoC4/cyfitter_cfg.c **** 	CY_SET_REG32((void *)(CYREG_GPIO_PRT2_PC2), 0x000000BDu);
 567              		.loc 1 652 0
 568 01ec BD20     		movs	r0, #189
 569 01ee 2E4A     		ldr	r2, .L23+108
 570 01f0 1060     		str	r0, [r2]
 653:Generated_Source\PSoC4/cyfitter_cfg.c **** 
 654:Generated_Source\PSoC4/cyfitter_cfg.c **** 	/* IOPINS0_3 Starting address: CYDEV_GPIO_PRT3_BASE */
 655:Generated_Source\PSoC4/cyfitter_cfg.c **** 	CY_SET_REG32((void *)(CYDEV_GPIO_PRT3_BASE), 0x00000020u);
 571              		.loc 1 655 0
 572 01f2 2E4A     		ldr	r2, .L23+112
 573 01f4 1360     		str	r3, [r2]
 656:Generated_Source\PSoC4/cyfitter_cfg.c **** 	CY_SET_REG32((void *)(CYREG_GPIO_PRT3_PC), 0x00000DB6u);
 574              		.loc 1 656 0
 575 01f6 2E48     		ldr	r0, .L23+116
 576 01f8 2E4A     		ldr	r2, .L23+120
 577 01fa 1060     		str	r0, [r2]
 657:Generated_Source\PSoC4/cyfitter_cfg.c **** 	CY_SET_REG32((void *)(CYREG_GPIO_PRT3_PC2), 0x00000020u);
 578              		.loc 1 657 0
 579 01fc 2E4A     		ldr	r2, .L23+124
 580 01fe 1360     		str	r3, [r2]
 658:Generated_Source\PSoC4/cyfitter_cfg.c **** 
 659:Generated_Source\PSoC4/cyfitter_cfg.c **** 	/* IOPINS0_4 Starting address: CYDEV_GPIO_PRT4_BASE */
ARM GAS  C:\Users\PRAJWA~1\AppData\Local\Temp\ccGEYBzy.s 			page 23


 660:Generated_Source\PSoC4/cyfitter_cfg.c **** 	CY_SET_REG32((void *)(CYREG_GPIO_PRT4_PC2), 0x00000001u);
 581              		.loc 1 660 0
 582 0200 2E4B     		ldr	r3, .L23+128
 583 0202 1960     		str	r1, [r3]
 661:Generated_Source\PSoC4/cyfitter_cfg.c **** 
 662:Generated_Source\PSoC4/cyfitter_cfg.c **** 	/* IOPINS0_5 Starting address: CYDEV_GPIO_PRT5_BASE */
 663:Generated_Source\PSoC4/cyfitter_cfg.c **** 	CY_SET_REG32((void *)(CYDEV_GPIO_PRT5_BASE), 0x00000026u);
 584              		.loc 1 663 0
 585 0204 2622     		movs	r2, #38
 586 0206 2E4B     		ldr	r3, .L23+132
 587 0208 1A60     		str	r2, [r3]
 664:Generated_Source\PSoC4/cyfitter_cfg.c **** 	CY_SET_REG32((void *)(CYREG_GPIO_PRT5_PC), 0x000301B1u);
 588              		.loc 1 664 0
 589 020a 2E4A     		ldr	r2, .L23+136
 590 020c 2E4B     		ldr	r3, .L23+140
 591 020e 1A60     		str	r2, [r3]
 665:Generated_Source\PSoC4/cyfitter_cfg.c **** 	CY_SET_REG32((void *)(CYREG_GPIO_PRT5_PC2), 0x00000002u);
 592              		.loc 1 665 0
 593 0210 0222     		movs	r2, #2
 594 0212 2E4B     		ldr	r3, .L23+144
 595 0214 1A60     		str	r2, [r3]
 666:Generated_Source\PSoC4/cyfitter_cfg.c **** 
 667:Generated_Source\PSoC4/cyfitter_cfg.c **** 	/* IOPINS0_6 Starting address: CYDEV_GPIO_PRT6_BASE */
 668:Generated_Source\PSoC4/cyfitter_cfg.c **** 	CY_SET_REG32((void *)(CYDEV_GPIO_PRT6_BASE), 0x00000003u);
 596              		.loc 1 668 0
 597 0216 0323     		movs	r3, #3
 598 0218 2D4A     		ldr	r2, .L23+148
 599 021a 1360     		str	r3, [r2]
 669:Generated_Source\PSoC4/cyfitter_cfg.c **** 	CY_SET_REG32((void *)(CYREG_GPIO_PRT6_PC), 0x00036000u);
 600              		.loc 1 669 0
 601 021c D821     		movs	r1, #216
 602 021e 8902     		lsls	r1, r1, #10
 603 0220 2C4A     		ldr	r2, .L23+152
 604 0222 1160     		str	r1, [r2]
 670:Generated_Source\PSoC4/cyfitter_cfg.c **** 	CY_SET_REG32((void *)(CYREG_GPIO_PRT6_PC2), 0x00000003u);
 605              		.loc 1 670 0
 606 0224 2C4A     		ldr	r2, .L23+156
 607 0226 1360     		str	r3, [r2]
 671:Generated_Source\PSoC4/cyfitter_cfg.c **** 
 672:Generated_Source\PSoC4/cyfitter_cfg.c **** 	/* IOPINS0_7 Starting address: CYDEV_GPIO_PRT7_BASE */
 673:Generated_Source\PSoC4/cyfitter_cfg.c **** 	CY_SET_REG32((void *)(CYDEV_GPIO_PRT7_BASE), 0x00000003u);
 608              		.loc 1 673 0
 609 0228 2C4A     		ldr	r2, .L23+160
 610 022a 1360     		str	r3, [r2]
 674:Generated_Source\PSoC4/cyfitter_cfg.c **** 	CY_SET_REG32((void *)(CYREG_GPIO_PRT7_PC), 0x00000024u);
 611              		.loc 1 674 0
 612 022c 2422     		movs	r2, #36
 613 022e 2C4B     		ldr	r3, .L23+164
 614 0230 1A60     		str	r2, [r3]
 675:Generated_Source\PSoC4/cyfitter_cfg.c **** 
 676:Generated_Source\PSoC4/cyfitter_cfg.c **** 
 677:Generated_Source\PSoC4/cyfitter_cfg.c **** 	/* Setup clocks based on selections from Clock DWR */
 678:Generated_Source\PSoC4/cyfitter_cfg.c **** 	ClockSetup();
 615              		.loc 1 678 0
 616 0232 FFF7E5FE 		bl	ClockSetup
 617              	.LVL34:
 679:Generated_Source\PSoC4/cyfitter_cfg.c **** 
ARM GAS  C:\Users\PRAJWA~1\AppData\Local\Temp\ccGEYBzy.s 			page 24


 680:Generated_Source\PSoC4/cyfitter_cfg.c **** 	/* Perform basic analog initialization to defaults */
 681:Generated_Source\PSoC4/cyfitter_cfg.c **** 	AnalogSetDefault();
 618              		.loc 1 681 0
 619 0236 FFF7FEFF 		bl	AnalogSetDefault
 620              	.LVL35:
 682:Generated_Source\PSoC4/cyfitter_cfg.c **** 
 683:Generated_Source\PSoC4/cyfitter_cfg.c **** }
 621              		.loc 1 683 0
 622              		@ sp needed
 623              	.LVL36:
 624 023a 10BD     		pop	{r4, pc}
 625              	.L24:
 626              		.align	2
 627              	.L23:
 628 023c 1C700F40 		.word	1074753564
 629 0240 00000000 		.word	.LANCHOR0
 630 0244 80010000 		.word	.LANCHOR1
 631 0248 FF0F0000 		.word	4095
 632 024c 00010240 		.word	1073873152
 633 0250 FFFF0000 		.word	65535
 634 0254 00020240 		.word	1073873408
 635 0258 00030240 		.word	1073873664
 636 025c 00050240 		.word	1073874176
 637 0260 00070240 		.word	1073874688
 638 0264 00500F40 		.word	1074745344
 639 0268 10500F40 		.word	1074745360
 640 026c 20500F40 		.word	1074745376
 641 0270 30500F40 		.word	1074745392
 642 0274 20001040 		.word	1074790432
 643 0278 00800F40 		.word	1074757632
 644 027c 01700F40 		.word	1074753537
 645 0280 00700F40 		.word	1074753536
 646 0284 00000440 		.word	1074003968
 647 0288 08000440 		.word	1074003976
 648 028c 00010440 		.word	1074004224
 649 0290 8E01C000 		.word	12583310
 650 0294 08010440 		.word	1074004232
 651 0298 18010440 		.word	1074004248
 652 029c 00020440 		.word	1074004480
 653 02a0 8E0D0000 		.word	3470
 654 02a4 08020440 		.word	1074004488
 655 02a8 18020440 		.word	1074004504
 656 02ac 00030440 		.word	1074004736
 657 02b0 B60D0000 		.word	3510
 658 02b4 08030440 		.word	1074004744
 659 02b8 18030440 		.word	1074004760
 660 02bc 18040440 		.word	1074005016
 661 02c0 00050440 		.word	1074005248
 662 02c4 B1010300 		.word	197041
 663 02c8 08050440 		.word	1074005256
 664 02cc 18050440 		.word	1074005272
 665 02d0 00060440 		.word	1074005504
 666 02d4 08060440 		.word	1074005512
 667 02d8 18060440 		.word	1074005528
 668 02dc 00070440 		.word	1074005760
 669 02e0 08070440 		.word	1074005768
 670              		.cfi_endproc
ARM GAS  C:\Users\PRAJWA~1\AppData\Local\Temp\ccGEYBzy.s 			page 25


 671              	.LFE8:
 672              		.size	cyfitter_cfg, .-cyfitter_cfg
 673              		.section	.rodata
 674              		.align	2
 675              		.set	.LANCHOR0,. + 0
 676              		.set	.LANCHOR1,. + 384
 677              		.type	cfg_memset_list.4917, %object
 678              		.size	cfg_memset_list.4917, 12
 679              	cfg_memset_list.4917:
 680 0000 00300F40 		.word	1074737152
 681 0004 0004     		.short	1024
 682 0006 00400F40 		.4byte	1074741248
 683 000a 0004     		.short	1024
 684              		.type	cy_cfg_data_table.4912, %object
 685              		.size	cy_cfg_data_table.4912, 402
 686              	cy_cfg_data_table.4912:
 687 000c 83       		.byte	-125
 688 000d 67       		.byte	103
 689 000e 03       		.byte	3
 690 000f 03       		.byte	3
 691 0010 0E       		.byte	14
 692 0011 03       		.byte	3
 693 0012 11       		.byte	17
 694 0013 02       		.byte	2
 695 0014 14       		.byte	20
 696 0015 04       		.byte	4
 697 0016 1A       		.byte	26
 698 0017 0C       		.byte	12
 699 0018 1C       		.byte	28
 700 0019 01       		.byte	1
 701 001a 2E       		.byte	46
 702 001b 01       		.byte	1
 703 001c 30       		.byte	48
 704 001d 04       		.byte	4
 705 001e 31       		.byte	49
 706 001f 01       		.byte	1
 707 0020 32       		.byte	50
 708 0021 08       		.byte	8
 709 0022 33       		.byte	51
 710 0023 02       		.byte	2
 711 0024 34       		.byte	52
 712 0025 01       		.byte	1
 713 0026 36       		.byte	54
 714 0027 02       		.byte	2
 715 0028 38       		.byte	56
 716 0029 02       		.byte	2
 717 002a 39       		.byte	57
 718 002b A0       		.byte	-96
 719 002c 3A       		.byte	58
 720 002d 08       		.byte	8
 721 002e 3E       		.byte	62
 722 002f 10       		.byte	16
 723 0030 3F       		.byte	63
 724 0031 44       		.byte	68
 725 0032 40       		.byte	64
 726 0033 24       		.byte	36
 727 0034 41       		.byte	65
ARM GAS  C:\Users\PRAJWA~1\AppData\Local\Temp\ccGEYBzy.s 			page 26


 728 0035 05       		.byte	5
 729 0036 49       		.byte	73
 730 0037 FF       		.byte	-1
 731 0038 4A       		.byte	74
 732 0039 FF       		.byte	-1
 733 003a 4B       		.byte	75
 734 003b FF       		.byte	-1
 735 003c 4D       		.byte	77
 736 003d A0       		.byte	-96
 737 003e 4F       		.byte	79
 738 003f 01       		.byte	1
 739 0040 50       		.byte	80
 740 0041 18       		.byte	24
 741 0042 52       		.byte	82
 742 0043 80       		.byte	-128
 743 0044 58       		.byte	88
 744 0045 04       		.byte	4
 745 0046 59       		.byte	89
 746 0047 04       		.byte	4
 747 0048 5A       		.byte	90
 748 0049 04       		.byte	4
 749 004a 5B       		.byte	91
 750 004b 04       		.byte	4
 751 004c 5F       		.byte	95
 752 004d 01       		.byte	1
 753 004e 60       		.byte	96
 754 004f 40       		.byte	64
 755 0050 62       		.byte	98
 756 0051 80       		.byte	-128
 757 0052 64       		.byte	100
 758 0053 40       		.byte	64
 759 0054 65       		.byte	101
 760 0055 40       		.byte	64
 761 0056 66       		.byte	102
 762 0057 80       		.byte	-128
 763 0058 68       		.byte	104
 764 0059 40       		.byte	64
 765 005a 6A       		.byte	106
 766 005b 50       		.byte	80
 767 005c 6B       		.byte	107
 768 005d A8       		.byte	-88
 769 005e 6C       		.byte	108
 770 005f 40       		.byte	64
 771 0060 6D       		.byte	109
 772 0061 20       		.byte	32
 773 0062 6E       		.byte	110
 774 0063 50       		.byte	80
 775 0064 6F       		.byte	111
 776 0065 A8       		.byte	-88
 777 0066 C0       		.byte	-64
 778 0067 65       		.byte	101
 779 0068 C1       		.byte	-63
 780 0069 04       		.byte	4
 781 006a C9       		.byte	-55
 782 006b FF       		.byte	-1
 783 006c CA       		.byte	-54
 784 006d FF       		.byte	-1
ARM GAS  C:\Users\PRAJWA~1\AppData\Local\Temp\ccGEYBzy.s 			page 27


 785 006e CB       		.byte	-53
 786 006f FF       		.byte	-1
 787 0070 CD       		.byte	-51
 788 0071 AF       		.byte	-81
 789 0072 CE       		.byte	-50
 790 0073 07       		.byte	7
 791 0074 CF       		.byte	-49
 792 0075 01       		.byte	1
 793 0076 D0       		.byte	-48
 794 0077 18       		.byte	24
 795 0078 DA       		.byte	-38
 796 0079 04       		.byte	4
 797 007a DF       		.byte	-33
 798 007b 01       		.byte	1
 799 007c E0       		.byte	-32
 800 007d 40       		.byte	64
 801 007e E2       		.byte	-30
 802 007f 80       		.byte	-128
 803 0080 E4       		.byte	-28
 804 0081 40       		.byte	64
 805 0082 E5       		.byte	-27
 806 0083 40       		.byte	64
 807 0084 E6       		.byte	-26
 808 0085 80       		.byte	-128
 809 0086 E8       		.byte	-24
 810 0087 40       		.byte	64
 811 0088 EA       		.byte	-22
 812 0089 50       		.byte	80
 813 008a EB       		.byte	-21
 814 008b A8       		.byte	-88
 815 008c EC       		.byte	-20
 816 008d 40       		.byte	64
 817 008e ED       		.byte	-19
 818 008f 20       		.byte	32
 819 0090 EE       		.byte	-18
 820 0091 50       		.byte	80
 821 0092 EF       		.byte	-17
 822 0093 A8       		.byte	-88
 823 0094 00       		.byte	0
 824 0095 40       		.byte	64
 825 0096 09       		.byte	9
 826 0097 20       		.byte	32
 827 0098 0A       		.byte	10
 828 0099 11       		.byte	17
 829 009a 10       		.byte	16
 830 009b 02       		.byte	2
 831 009c 18       		.byte	24
 832 009d 44       		.byte	68
 833 009e 1A       		.byte	26
 834 009f 11       		.byte	17
 835 00a0 1B       		.byte	27
 836 00a1 10       		.byte	16
 837 00a2 20       		.byte	32
 838 00a3 02       		.byte	2
 839 00a4 21       		.byte	33
 840 00a5 22       		.byte	34
 841 00a6 22       		.byte	34
ARM GAS  C:\Users\PRAJWA~1\AppData\Local\Temp\ccGEYBzy.s 			page 28


 842 00a7 04       		.byte	4
 843 00a8 23       		.byte	35
 844 00a9 03       		.byte	3
 845 00aa 31       		.byte	49
 846 00ab 02       		.byte	2
 847 00ac 39       		.byte	57
 848 00ad 02       		.byte	2
 849 00ae 40       		.byte	64
 850 00af 04       		.byte	4
 851 00b0 41       		.byte	65
 852 00b1 01       		.byte	1
 853 00b2 47       		.byte	71
 854 00b3 02       		.byte	2
 855 00b4 48       		.byte	72
 856 00b5 01       		.byte	1
 857 00b6 4E       		.byte	78
 858 00b7 02       		.byte	2
 859 00b8 4F       		.byte	79
 860 00b9 20       		.byte	32
 861 00ba 70       		.byte	112
 862 00bb 02       		.byte	2
 863 00bc C0       		.byte	-64
 864 00bd 01       		.byte	1
 865 00be C2       		.byte	-62
 866 00bf 07       		.byte	7
 867 00c0 C4       		.byte	-60
 868 00c1 01       		.byte	1
 869 00c2 CC       		.byte	-52
 870 00c3 01       		.byte	1
 871 00c4 CE       		.byte	-50
 872 00c5 01       		.byte	1
 873 00c6 D0       		.byte	-48
 874 00c7 85       		.byte	-123
 875 00c8 D2       		.byte	-46
 876 00c9 38       		.byte	56
 877 00ca 40       		.byte	64
 878 00cb 65       		.byte	101
 879 00cc 41       		.byte	65
 880 00cd 04       		.byte	4
 881 00ce 49       		.byte	73
 882 00cf FF       		.byte	-1
 883 00d0 4A       		.byte	74
 884 00d1 FF       		.byte	-1
 885 00d2 4B       		.byte	75
 886 00d3 FF       		.byte	-1
 887 00d4 4D       		.byte	77
 888 00d5 AF       		.byte	-81
 889 00d6 4E       		.byte	78
 890 00d7 07       		.byte	7
 891 00d8 4F       		.byte	79
 892 00d9 01       		.byte	1
 893 00da 50       		.byte	80
 894 00db 18       		.byte	24
 895 00dc 5A       		.byte	90
 896 00dd 04       		.byte	4
 897 00de 5F       		.byte	95
 898 00df 01       		.byte	1
ARM GAS  C:\Users\PRAJWA~1\AppData\Local\Temp\ccGEYBzy.s 			page 29


 899 00e0 60       		.byte	96
 900 00e1 40       		.byte	64
 901 00e2 62       		.byte	98
 902 00e3 80       		.byte	-128
 903 00e4 64       		.byte	100
 904 00e5 40       		.byte	64
 905 00e6 65       		.byte	101
 906 00e7 40       		.byte	64
 907 00e8 66       		.byte	102
 908 00e9 80       		.byte	-128
 909 00ea 68       		.byte	104
 910 00eb 40       		.byte	64
 911 00ec 6A       		.byte	106
 912 00ed 50       		.byte	80
 913 00ee 6B       		.byte	107
 914 00ef A8       		.byte	-88
 915 00f0 6C       		.byte	108
 916 00f1 40       		.byte	64
 917 00f2 6D       		.byte	109
 918 00f3 20       		.byte	32
 919 00f4 6E       		.byte	110
 920 00f5 50       		.byte	80
 921 00f6 6F       		.byte	111
 922 00f7 A8       		.byte	-88
 923 00f8 8C       		.byte	-116
 924 00f9 02       		.byte	2
 925 00fa A6       		.byte	-90
 926 00fb 03       		.byte	3
 927 00fc B0       		.byte	-80
 928 00fd 01       		.byte	1
 929 00fe B6       		.byte	-74
 930 00ff 02       		.byte	2
 931 0100 BE       		.byte	-66
 932 0101 40       		.byte	64
 933 0102 C0       		.byte	-64
 934 0103 24       		.byte	36
 935 0104 C1       		.byte	-63
 936 0105 05       		.byte	5
 937 0106 C5       		.byte	-59
 938 0107 04       		.byte	4
 939 0108 C6       		.byte	-58
 940 0109 C2       		.byte	-62
 941 010a C7       		.byte	-57
 942 010b 0E       		.byte	14
 943 010c C8       		.byte	-56
 944 010d 3D       		.byte	61
 945 010e C9       		.byte	-55
 946 010f FF       		.byte	-1
 947 0110 CA       		.byte	-54
 948 0111 FF       		.byte	-1
 949 0112 CB       		.byte	-53
 950 0113 FF       		.byte	-1
 951 0114 CD       		.byte	-51
 952 0115 AF       		.byte	-81
 953 0116 CE       		.byte	-50
 954 0117 07       		.byte	7
 955 0118 CF       		.byte	-49
ARM GAS  C:\Users\PRAJWA~1\AppData\Local\Temp\ccGEYBzy.s 			page 30


 956 0119 01       		.byte	1
 957 011a D0       		.byte	-48
 958 011b 18       		.byte	24
 959 011c D4       		.byte	-44
 960 011d 07       		.byte	7
 961 011e D6       		.byte	-42
 962 011f 04       		.byte	4
 963 0120 D8       		.byte	-40
 964 0121 04       		.byte	4
 965 0122 DA       		.byte	-38
 966 0123 04       		.byte	4
 967 0124 DB       		.byte	-37
 968 0125 04       		.byte	4
 969 0126 DF       		.byte	-33
 970 0127 01       		.byte	1
 971 0128 E0       		.byte	-32
 972 0129 40       		.byte	64
 973 012a E2       		.byte	-30
 974 012b 80       		.byte	-128
 975 012c E4       		.byte	-28
 976 012d 40       		.byte	64
 977 012e E5       		.byte	-27
 978 012f 40       		.byte	64
 979 0130 E6       		.byte	-26
 980 0131 80       		.byte	-128
 981 0132 E8       		.byte	-24
 982 0133 40       		.byte	64
 983 0134 EA       		.byte	-22
 984 0135 50       		.byte	80
 985 0136 EB       		.byte	-21
 986 0137 A8       		.byte	-88
 987 0138 EC       		.byte	-20
 988 0139 40       		.byte	64
 989 013a ED       		.byte	-19
 990 013b 20       		.byte	32
 991 013c EE       		.byte	-18
 992 013d 50       		.byte	80
 993 013e EF       		.byte	-17
 994 013f A8       		.byte	-88
 995 0140 00       		.byte	0
 996 0141 40       		.byte	64
 997 0142 10       		.byte	16
 998 0143 20       		.byte	32
 999 0144 18       		.byte	24
 1000 0145 40       		.byte	64
 1001 0146 19       		.byte	25
 1002 0147 40       		.byte	64
 1003 0148 40       		.byte	64
 1004 0149 04       		.byte	4
 1005 014a 41       		.byte	65
 1006 014b 01       		.byte	1
 1007 014c 47       		.byte	71
 1008 014d 02       		.byte	2
 1009 014e 48       		.byte	72
 1010 014f 21       		.byte	33
 1011 0150 4E       		.byte	78
 1012 0151 02       		.byte	2
ARM GAS  C:\Users\PRAJWA~1\AppData\Local\Temp\ccGEYBzy.s 			page 31


 1013 0152 4F       		.byte	79
 1014 0153 20       		.byte	32
 1015 0154 51       		.byte	81
 1016 0155 49       		.byte	73
 1017 0156 52       		.byte	82
 1018 0157 12       		.byte	18
 1019 0158 59       		.byte	89
 1020 0159 40       		.byte	64
 1021 015a 5A       		.byte	90
 1022 015b 18       		.byte	24
 1023 015c 61       		.byte	97
 1024 015d 08       		.byte	8
 1025 015e 62       		.byte	98
 1026 015f 10       		.byte	16
 1027 0160 63       		.byte	99
 1028 0161 80       		.byte	-128
 1029 0162 83       		.byte	-125
 1030 0163 40       		.byte	64
 1031 0164 8D       		.byte	-115
 1032 0165 40       		.byte	64
 1033 0166 8E       		.byte	-114
 1034 0167 10       		.byte	16
 1035 0168 90       		.byte	-112
 1036 0169 04       		.byte	4
 1037 016a 92       		.byte	-110
 1038 016b 08       		.byte	8
 1039 016c 95       		.byte	-107
 1040 016d 02       		.byte	2
 1041 016e 9B       		.byte	-101
 1042 016f 02       		.byte	2
 1043 0170 A0       		.byte	-96
 1044 0171 01       		.byte	1
 1045 0172 A3       		.byte	-93
 1046 0173 10       		.byte	16
 1047 0174 A6       		.byte	-90
 1048 0175 02       		.byte	2
 1049 0176 AB       		.byte	-85
 1050 0177 01       		.byte	1
 1051 0178 C0       		.byte	-64
 1052 0179 01       		.byte	1
 1053 017a C4       		.byte	-60
 1054 017b 04       		.byte	4
 1055 017c D0       		.byte	-48
 1056 017d 85       		.byte	-123
 1057 017e D2       		.byte	-46
 1058 017f 38       		.byte	56
 1059 0180 D6       		.byte	-42
 1060 0181 0E       		.byte	14
 1061 0182 D8       		.byte	-40
 1062 0183 07       		.byte	7
 1063 0184 E8       		.byte	-24
 1064 0185 01       		.byte	1
 1065 0186 6B       		.byte	107
 1066 0187 10       		.byte	16
 1067 0188 DA       		.byte	-38
 1068 0189 40       		.byte	64
 1069 018a 83       		.byte	-125
ARM GAS  C:\Users\PRAJWA~1\AppData\Local\Temp\ccGEYBzy.s 			page 32


 1070 018b 10       		.byte	16
 1071 018c 9F       		.byte	-97
 1072 018d 10       		.byte	16
 1073 018e E2       		.byte	-30
 1074 018f 20       		.byte	32
 1075 0190 72       		.byte	114
 1076 0191 10       		.byte	16
 1077 0192 74       		.byte	116
 1078 0193 20       		.byte	32
 1079 0194 DC       		.byte	-36
 1080 0195 03       		.byte	3
 1081 0196 A8       		.byte	-88
 1082 0197 20       		.byte	32
 1083 0198 AA       		.byte	-86
 1084 0199 10       		.byte	16
 1085 019a 01       		.byte	1
 1086 019b 01       		.byte	1
 1087 019c 10       		.byte	16
 1088 019d 01       		.byte	1
 1089 019e 0000     		.space	2
 1090              		.type	cy_cfg_addr_table.4911, %object
 1091              		.size	cy_cfg_addr_table.4911, 40
 1092              	cy_cfg_addr_table.4911:
 1093 01a0 01000F40 		.word	1074724865
 1094 01a4 43300F40 		.word	1074737219
 1095 01a8 1B310F40 		.word	1074737435
 1096 01ac 3B320F40 		.word	1074737723
 1097 01b0 23330F40 		.word	1074737955
 1098 01b4 02400F40 		.word	1074741250
 1099 01b8 03410F40 		.word	1074741507
 1100 01bc 03420F40 		.word	1074741763
 1101 01c0 02430F40 		.word	1074742018
 1102 01c4 02600F40 		.word	1074749442
 1103              		.text
 1104              	.Letext0:
 1105              		.file 2 "c:\\program files (x86)\\cypress\\psoc creator\\4.4\\psoc creator\\import\\gnu\\arm\\5.4.
 1106              		.file 3 "Generated_Source\\PSoC4\\cytypes.h"
 1107              		.file 4 "Generated_Source\\PSoC4\\CyLib.h"