ARM GAS  C:\Users\PRAJWA~1\AppData\Local\Temp\ccedcYia.s 			page 1


   1              		.syntax unified
   2              		.cpu cortex-m0
   3              		.fpu softvfp
   4              		.eabi_attribute 20, 1
   5              		.eabi_attribute 21, 1
   6              		.eabi_attribute 23, 3
   7              		.eabi_attribute 24, 1
   8              		.eabi_attribute 25, 1
   9              		.eabi_attribute 26, 1
  10              		.eabi_attribute 30, 1
  11              		.eabi_attribute 34, 0
  12              		.eabi_attribute 18, 4
  13              		.thumb
  14              		.syntax unified
  15              		.file	"main.c"
  16              		.text
  17              	.Ltext0:
  18              		.cfi_sections	.debug_frame
  19              		.section	.text.setmux,"ax",%progbits
  20              		.align	2
  21              		.global	setmux
  22              		.code	16
  23              		.thumb_func
  24              		.type	setmux, %function
  25              	setmux:
  26              	.LFB35:
  27              		.file 1 "PSoC.h"
   1:PSoC.h        **** /* ========================================
   2:PSoC.h        ****  *
   3:PSoC.h        ****  * Copyright YOUR COMPANY, THE YEAR
   4:PSoC.h        ****  * All Rights Reserved
   5:PSoC.h        ****  * UNPUBLISHED, LICENSED SOFTWARE.
   6:PSoC.h        ****  *
   7:PSoC.h        ****  * CONFIDENTIAL AND PROPRIETARY INFORMATION
   8:PSoC.h        ****  * WHICH IS THE PROPERTY OF your company.
   9:PSoC.h        ****  *
  10:PSoC.h        ****  * ========================================
  11:PSoC.h        **** */
  12:PSoC.h        **** 
  13:PSoC.h        **** #include "project.h"
  14:PSoC.h        **** #include "stdlib.h"
  15:PSoC.h        **** #include "stdio.h"
  16:PSoC.h        **** 
  17:PSoC.h        **** #ifndef PSOC_H
  18:PSoC.h        **** #define PSOC_H
  19:PSoC.h        **** 
  20:PSoC.h        **** #define TIMEOUT 1000
  21:PSoC.h        **** #define ADC_MODE 0
  22:PSoC.h        **** #define DAC_MODE 1
  23:PSoC.h        **** 
  24:PSoC.h        **** #define BLE 1
  25:PSoC.h        **** #define USB 0
  26:PSoC.h        ****     
  27:PSoC.h        **** #define LOW   0
  28:PSoC.h        **** #define HIGH  1
  29:PSoC.h        **** 
  30:PSoC.h        **** #define ON  0
ARM GAS  C:\Users\PRAJWA~1\AppData\Local\Temp\ccedcYia.s 			page 2


  31:PSoC.h        **** #define OFF 1
  32:PSoC.h        **** 
  33:PSoC.h        **** #define C1   11
  34:PSoC.h        **** #define C2   12
  35:PSoC.h        **** #define C3   13
  36:PSoC.h        **** #define C4   14
  37:PSoC.h        **** #define C5   15
  38:PSoC.h        **** #define C6   16
  39:PSoC.h        **** #define C7   17
  40:PSoC.h        **** #define C8   18
  41:PSoC.h        **** #define C9   19
  42:PSoC.h        **** #define C10 110
  43:PSoC.h        **** #define C11 111
  44:PSoC.h        **** #define C12 112
  45:PSoC.h        **** #define C13 113
  46:PSoC.h        **** #define C14 114
  47:PSoC.h        **** #define C15 115
  48:PSoC.h        **** #define C16 116
  49:PSoC.h        **** 
  50:PSoC.h        **** #define C_A  11
  51:PSoC.h        **** #define C_B  12
  52:PSoC.h        **** #define C_C  13
  53:PSoC.h        **** #define C_D  14
  54:PSoC.h        **** #define C_E  15
  55:PSoC.h        **** #define C_F  16
  56:PSoC.h        **** #define C_G  17
  57:PSoC.h        **** #define C_H  18
  58:PSoC.h        **** #define C_I  19
  59:PSoC.h        **** #define C_J 110
  60:PSoC.h        **** #define C_K 111
  61:PSoC.h        **** #define C_L 112
  62:PSoC.h        **** #define C_M 113
  63:PSoC.h        **** #define C_N 114
  64:PSoC.h        **** #define C_O 115
  65:PSoC.h        **** #define C_P 116
  66:PSoC.h        **** 
  67:PSoC.h        **** # define O1  0
  68:PSoC.h        **** # define O2  1
  69:PSoC.h        **** # define O3  2
  70:PSoC.h        **** # define O4  3
  71:PSoC.h        **** # define O5  4
  72:PSoC.h        **** # define O6  5
  73:PSoC.h        **** # define O7  6
  74:PSoC.h        **** # define O8  7
  75:PSoC.h        **** # define O9  8
  76:PSoC.h        **** # define O10 9
  77:PSoC.h        **** # define O11 10
  78:PSoC.h        **** # define O12 11
  79:PSoC.h        **** # define O13 12
  80:PSoC.h        **** # define O14 13
  81:PSoC.h        **** # define O15 14
  82:PSoC.h        **** # define O16 15
  83:PSoC.h        **** 
  84:PSoC.h        **** # define I1  0
  85:PSoC.h        **** # define I2  1
  86:PSoC.h        **** # define I3  2
  87:PSoC.h        **** # define I4  3
ARM GAS  C:\Users\PRAJWA~1\AppData\Local\Temp\ccedcYia.s 			page 3


  88:PSoC.h        **** # define I5  4
  89:PSoC.h        **** # define I6  5
  90:PSoC.h        **** # define I7  6
  91:PSoC.h        **** # define I8  7
  92:PSoC.h        **** # define I9  8
  93:PSoC.h        **** # define I10 9
  94:PSoC.h        **** # define I11 10
  95:PSoC.h        **** # define I12 11
  96:PSoC.h        **** # define I13 12
  97:PSoC.h        **** # define I14 13
  98:PSoC.h        **** # define I15 14
  99:PSoC.h        **** # define I16 15
 100:PSoC.h        **** 
 101:PSoC.h        **** #define MISO 59
 102:PSoC.h        **** #define MOSI 58
 103:PSoC.h        **** #define SCLK 60
 104:PSoC.h        **** 
 105:PSoC.h        **** #define SCL 12
 106:PSoC.h        **** #define SDA 13
 107:PSoC.h        **** 
 108:PSoC.h        **** #define AMOSI 38
 109:PSoC.h        **** #define AMISO 37
 110:PSoC.h        **** 
 111:PSoC.h        **** #define ANALOG_IO 8
 112:PSoC.h        **** #define R_LED 64
 113:PSoC.h        **** #define G_LED 15
 114:PSoC.h        **** #define B_LED 6
 115:PSoC.h        ****     
 116:PSoC.h        **** 
 117:PSoC.h        ****     
 118:PSoC.h        **** struct PSC_McM_6_00{
 119:PSoC.h        ****     uint8 A_Dstate;
 120:PSoC.h        ****     uint32 A_D_period;
 121:PSoC.h        ****     struct boardconf{
 122:PSoC.h        ****         uint8 reserved;
 123:PSoC.h        ****         uint8 brdtype;
 124:PSoC.h        ****         uint8 brdno;
 125:PSoC.h        ****     }b;
 126:PSoC.h        ****     uint8_t con_, sync_;
 127:PSoC.h        ****     struct {
 128:PSoC.h        ****         uint8 timer;// = 6;
 129:PSoC.h        ****         uint freq;// = 5000;
 130:PSoC.h        ****         uint res;//  = 12;
 131:PSoC.h        ****     }dac;
 132:PSoC.h        ****     struct {
 133:PSoC.h        ****         uint32_t device_id;
 134:PSoC.h        ****     }flash;
 135:PSoC.h        ****     struct{
 136:PSoC.h        ****         char ssid[100];
 137:PSoC.h        ****         char password[100];
 138:PSoC.h        ****         char mac[20];
 139:PSoC.h        ****     }bleWiFi;
 140:PSoC.h        **** };
 141:PSoC.h        **** 
 142:PSoC.h        **** void setmux(struct PSC_McM_6_00 *p, int a){
  28              		.loc 1 142 0
  29              		.cfi_startproc
ARM GAS  C:\Users\PRAJWA~1\AppData\Local\Temp\ccedcYia.s 			page 4


  30              		@ args = 0, pretend = 0, frame = 0
  31              		@ frame_needed = 0, uses_anonymous_args = 0
  32              	.LVL0:
  33 0000 10B5     		push	{r4, lr}
  34              		.cfi_def_cfa_offset 8
  35              		.cfi_offset 4, -8
  36              		.cfi_offset 14, -4
 143:PSoC.h        ****     switch(a){
  37              		.loc 1 143 0
  38 0002 0F29     		cmp	r1, #15
  39 0004 00D9     		bls	.LCB11
  40 0006 D2E0     		b	.L1	@long jump
  41              	.LCB11:
  42 0008 8900     		lsls	r1, r1, #2
  43              	.LVL1:
  44 000a 694B     		ldr	r3, .L20
  45 000c 5B58     		ldr	r3, [r3, r1]
  46 000e 9F46     		mov	pc, r3
  47              		.section	.rodata
  48              		.align	2
  49              	.L4:
  50 0000 10000000 		.word	.L3
  51 0004 2A000000 		.word	.L5
  52 0008 44000000 		.word	.L6
  53 000c 5E000000 		.word	.L7
  54 0010 78000000 		.word	.L8
  55 0014 92000000 		.word	.L9
  56 0018 AC000000 		.word	.L10
  57 001c C6000000 		.word	.L11
  58 0020 E0000000 		.word	.L12
  59 0024 FA000000 		.word	.L13
  60 0028 14010000 		.word	.L14
  61 002c 2E010000 		.word	.L15
  62 0030 48010000 		.word	.L16
  63 0034 62010000 		.word	.L17
  64 0038 7C010000 		.word	.L18
  65 003c 96010000 		.word	.L19
  66              		.section	.text.setmux
  67              	.L3:
 144:PSoC.h        ****         case  I1:    S3_Write(0);   S2_Write(0);    S1_Write(0);    S0_Write(0);     break;
  68              		.loc 1 144 0
  69 0010 0020     		movs	r0, #0
  70              	.LVL2:
  71 0012 FFF7FEFF 		bl	S3_Write
  72              	.LVL3:
  73 0016 0020     		movs	r0, #0
  74 0018 FFF7FEFF 		bl	S2_Write
  75              	.LVL4:
  76 001c 0020     		movs	r0, #0
  77 001e FFF7FEFF 		bl	S1_Write
  78              	.LVL5:
  79 0022 0020     		movs	r0, #0
  80 0024 FFF7FEFF 		bl	S0_Write
  81              	.LVL6:
  82 0028 C1E0     		b	.L1
  83              	.LVL7:
  84              	.L5:
ARM GAS  C:\Users\PRAJWA~1\AppData\Local\Temp\ccedcYia.s 			page 5


 145:PSoC.h        ****         case  I2:    S3_Write(0);   S2_Write(0);    S1_Write(0);    S0_Write(1);     break;
  85              		.loc 1 145 0
  86 002a 0020     		movs	r0, #0
  87              	.LVL8:
  88 002c FFF7FEFF 		bl	S3_Write
  89              	.LVL9:
  90 0030 0020     		movs	r0, #0
  91 0032 FFF7FEFF 		bl	S2_Write
  92              	.LVL10:
  93 0036 0020     		movs	r0, #0
  94 0038 FFF7FEFF 		bl	S1_Write
  95              	.LVL11:
  96 003c 0120     		movs	r0, #1
  97 003e FFF7FEFF 		bl	S0_Write
  98              	.LVL12:
  99 0042 B4E0     		b	.L1
 100              	.LVL13:
 101              	.L6:
 146:PSoC.h        ****         case  I3:    S3_Write(0);   S2_Write(0);    S1_Write(1);    S0_Write(0);     break;
 102              		.loc 1 146 0
 103 0044 0020     		movs	r0, #0
 104              	.LVL14:
 105 0046 FFF7FEFF 		bl	S3_Write
 106              	.LVL15:
 107 004a 0020     		movs	r0, #0
 108 004c FFF7FEFF 		bl	S2_Write
 109              	.LVL16:
 110 0050 0120     		movs	r0, #1
 111 0052 FFF7FEFF 		bl	S1_Write
 112              	.LVL17:
 113 0056 0020     		movs	r0, #0
 114 0058 FFF7FEFF 		bl	S0_Write
 115              	.LVL18:
 116 005c A7E0     		b	.L1
 117              	.LVL19:
 118              	.L7:
 147:PSoC.h        ****         case  I4:    S3_Write(0);   S2_Write(0);    S1_Write(1);    S0_Write(1);     break;
 119              		.loc 1 147 0
 120 005e 0020     		movs	r0, #0
 121              	.LVL20:
 122 0060 FFF7FEFF 		bl	S3_Write
 123              	.LVL21:
 124 0064 0020     		movs	r0, #0
 125 0066 FFF7FEFF 		bl	S2_Write
 126              	.LVL22:
 127 006a 0120     		movs	r0, #1
 128 006c FFF7FEFF 		bl	S1_Write
 129              	.LVL23:
 130 0070 0120     		movs	r0, #1
 131 0072 FFF7FEFF 		bl	S0_Write
 132              	.LVL24:
 133 0076 9AE0     		b	.L1
 134              	.LVL25:
 135              	.L8:
 148:PSoC.h        ****         case  I5:    S3_Write(0);   S2_Write(1);    S1_Write(0);    S0_Write(0);     break;
 136              		.loc 1 148 0
 137 0078 0020     		movs	r0, #0
ARM GAS  C:\Users\PRAJWA~1\AppData\Local\Temp\ccedcYia.s 			page 6


 138              	.LVL26:
 139 007a FFF7FEFF 		bl	S3_Write
 140              	.LVL27:
 141 007e 0120     		movs	r0, #1
 142 0080 FFF7FEFF 		bl	S2_Write
 143              	.LVL28:
 144 0084 0020     		movs	r0, #0
 145 0086 FFF7FEFF 		bl	S1_Write
 146              	.LVL29:
 147 008a 0020     		movs	r0, #0
 148 008c FFF7FEFF 		bl	S0_Write
 149              	.LVL30:
 150 0090 8DE0     		b	.L1
 151              	.LVL31:
 152              	.L9:
 149:PSoC.h        ****         case  I6:    S3_Write(0);   S2_Write(1);    S1_Write(0);    S0_Write(1);     break;
 153              		.loc 1 149 0
 154 0092 0020     		movs	r0, #0
 155              	.LVL32:
 156 0094 FFF7FEFF 		bl	S3_Write
 157              	.LVL33:
 158 0098 0120     		movs	r0, #1
 159 009a FFF7FEFF 		bl	S2_Write
 160              	.LVL34:
 161 009e 0020     		movs	r0, #0
 162 00a0 FFF7FEFF 		bl	S1_Write
 163              	.LVL35:
 164 00a4 0120     		movs	r0, #1
 165 00a6 FFF7FEFF 		bl	S0_Write
 166              	.LVL36:
 167 00aa 80E0     		b	.L1
 168              	.LVL37:
 169              	.L10:
 150:PSoC.h        ****         case  I7:    S3_Write(0);   S2_Write(1);    S1_Write(1);    S0_Write(0);     break;
 170              		.loc 1 150 0
 171 00ac 0020     		movs	r0, #0
 172              	.LVL38:
 173 00ae FFF7FEFF 		bl	S3_Write
 174              	.LVL39:
 175 00b2 0120     		movs	r0, #1
 176 00b4 FFF7FEFF 		bl	S2_Write
 177              	.LVL40:
 178 00b8 0120     		movs	r0, #1
 179 00ba FFF7FEFF 		bl	S1_Write
 180              	.LVL41:
 181 00be 0020     		movs	r0, #0
 182 00c0 FFF7FEFF 		bl	S0_Write
 183              	.LVL42:
 184 00c4 73E0     		b	.L1
 185              	.LVL43:
 186              	.L11:
 151:PSoC.h        ****         case  I8:    S3_Write(0);   S2_Write(1);    S1_Write(1);    S0_Write(1);     break;
 187              		.loc 1 151 0
 188 00c6 0020     		movs	r0, #0
 189              	.LVL44:
 190 00c8 FFF7FEFF 		bl	S3_Write
 191              	.LVL45:
ARM GAS  C:\Users\PRAJWA~1\AppData\Local\Temp\ccedcYia.s 			page 7


 192 00cc 0120     		movs	r0, #1
 193 00ce FFF7FEFF 		bl	S2_Write
 194              	.LVL46:
 195 00d2 0120     		movs	r0, #1
 196 00d4 FFF7FEFF 		bl	S1_Write
 197              	.LVL47:
 198 00d8 0120     		movs	r0, #1
 199 00da FFF7FEFF 		bl	S0_Write
 200              	.LVL48:
 201 00de 66E0     		b	.L1
 202              	.LVL49:
 203              	.L12:
 152:PSoC.h        ****         case  I9:    S3_Write(1);   S2_Write(0);    S1_Write(0);    S0_Write(0);     break;
 204              		.loc 1 152 0
 205 00e0 0120     		movs	r0, #1
 206              	.LVL50:
 207 00e2 FFF7FEFF 		bl	S3_Write
 208              	.LVL51:
 209 00e6 0020     		movs	r0, #0
 210 00e8 FFF7FEFF 		bl	S2_Write
 211              	.LVL52:
 212 00ec 0020     		movs	r0, #0
 213 00ee FFF7FEFF 		bl	S1_Write
 214              	.LVL53:
 215 00f2 0020     		movs	r0, #0
 216 00f4 FFF7FEFF 		bl	S0_Write
 217              	.LVL54:
 218 00f8 59E0     		b	.L1
 219              	.LVL55:
 220              	.L13:
 153:PSoC.h        ****         case I10:    S3_Write(1);   S2_Write(0);    S1_Write(0);    S0_Write(1);     break;
 221              		.loc 1 153 0
 222 00fa 0120     		movs	r0, #1
 223              	.LVL56:
 224 00fc FFF7FEFF 		bl	S3_Write
 225              	.LVL57:
 226 0100 0020     		movs	r0, #0
 227 0102 FFF7FEFF 		bl	S2_Write
 228              	.LVL58:
 229 0106 0020     		movs	r0, #0
 230 0108 FFF7FEFF 		bl	S1_Write
 231              	.LVL59:
 232 010c 0120     		movs	r0, #1
 233 010e FFF7FEFF 		bl	S0_Write
 234              	.LVL60:
 235 0112 4CE0     		b	.L1
 236              	.LVL61:
 237              	.L14:
 154:PSoC.h        ****         case I11:    S3_Write(1);   S2_Write(0);    S1_Write(1);    S0_Write(0);     break;
 238              		.loc 1 154 0
 239 0114 0120     		movs	r0, #1
 240              	.LVL62:
 241 0116 FFF7FEFF 		bl	S3_Write
 242              	.LVL63:
 243 011a 0020     		movs	r0, #0
 244 011c FFF7FEFF 		bl	S2_Write
 245              	.LVL64:
ARM GAS  C:\Users\PRAJWA~1\AppData\Local\Temp\ccedcYia.s 			page 8


 246 0120 0120     		movs	r0, #1
 247 0122 FFF7FEFF 		bl	S1_Write
 248              	.LVL65:
 249 0126 0020     		movs	r0, #0
 250 0128 FFF7FEFF 		bl	S0_Write
 251              	.LVL66:
 252 012c 3FE0     		b	.L1
 253              	.LVL67:
 254              	.L15:
 155:PSoC.h        ****         case I12:    S3_Write(1);   S2_Write(0);    S1_Write(1);    S0_Write(1);     break;
 255              		.loc 1 155 0
 256 012e 0120     		movs	r0, #1
 257              	.LVL68:
 258 0130 FFF7FEFF 		bl	S3_Write
 259              	.LVL69:
 260 0134 0020     		movs	r0, #0
 261 0136 FFF7FEFF 		bl	S2_Write
 262              	.LVL70:
 263 013a 0120     		movs	r0, #1
 264 013c FFF7FEFF 		bl	S1_Write
 265              	.LVL71:
 266 0140 0120     		movs	r0, #1
 267 0142 FFF7FEFF 		bl	S0_Write
 268              	.LVL72:
 269 0146 32E0     		b	.L1
 270              	.LVL73:
 271              	.L16:
 156:PSoC.h        ****         case I13:    S3_Write(1);   S2_Write(1);    S1_Write(0);    S0_Write(0);     break;
 272              		.loc 1 156 0
 273 0148 0120     		movs	r0, #1
 274              	.LVL74:
 275 014a FFF7FEFF 		bl	S3_Write
 276              	.LVL75:
 277 014e 0120     		movs	r0, #1
 278 0150 FFF7FEFF 		bl	S2_Write
 279              	.LVL76:
 280 0154 0020     		movs	r0, #0
 281 0156 FFF7FEFF 		bl	S1_Write
 282              	.LVL77:
 283 015a 0020     		movs	r0, #0
 284 015c FFF7FEFF 		bl	S0_Write
 285              	.LVL78:
 286 0160 25E0     		b	.L1
 287              	.LVL79:
 288              	.L17:
 157:PSoC.h        ****         case I14:    S3_Write(1);   S2_Write(1);    S1_Write(0);    S0_Write(1);     break;
 289              		.loc 1 157 0
 290 0162 0120     		movs	r0, #1
 291              	.LVL80:
 292 0164 FFF7FEFF 		bl	S3_Write
 293              	.LVL81:
 294 0168 0120     		movs	r0, #1
 295 016a FFF7FEFF 		bl	S2_Write
 296              	.LVL82:
 297 016e 0020     		movs	r0, #0
 298 0170 FFF7FEFF 		bl	S1_Write
 299              	.LVL83:
ARM GAS  C:\Users\PRAJWA~1\AppData\Local\Temp\ccedcYia.s 			page 9


 300 0174 0120     		movs	r0, #1
 301 0176 FFF7FEFF 		bl	S0_Write
 302              	.LVL84:
 303 017a 18E0     		b	.L1
 304              	.LVL85:
 305              	.L18:
 158:PSoC.h        ****         case I15:    S3_Write(1);   S2_Write(1);    S1_Write(1);    S0_Write(0);     break;
 306              		.loc 1 158 0
 307 017c 0120     		movs	r0, #1
 308              	.LVL86:
 309 017e FFF7FEFF 		bl	S3_Write
 310              	.LVL87:
 311 0182 0120     		movs	r0, #1
 312 0184 FFF7FEFF 		bl	S2_Write
 313              	.LVL88:
 314 0188 0120     		movs	r0, #1
 315 018a FFF7FEFF 		bl	S1_Write
 316              	.LVL89:
 317 018e 0020     		movs	r0, #0
 318 0190 FFF7FEFF 		bl	S0_Write
 319              	.LVL90:
 320 0194 0BE0     		b	.L1
 321              	.LVL91:
 322              	.L19:
 159:PSoC.h        ****         case I16:    S3_Write(1);   S2_Write(1);    S1_Write(1);    S0_Write(1);     break;
 323              		.loc 1 159 0
 324 0196 0120     		movs	r0, #1
 325              	.LVL92:
 326 0198 FFF7FEFF 		bl	S3_Write
 327              	.LVL93:
 328 019c 0120     		movs	r0, #1
 329 019e FFF7FEFF 		bl	S2_Write
 330              	.LVL94:
 331 01a2 0120     		movs	r0, #1
 332 01a4 FFF7FEFF 		bl	S1_Write
 333              	.LVL95:
 334 01a8 0120     		movs	r0, #1
 335 01aa FFF7FEFF 		bl	S0_Write
 336              	.LVL96:
 337              	.L1:
 160:PSoC.h        ****     }
 161:PSoC.h        **** }
 338              		.loc 1 161 0
 339              		@ sp needed
 340 01ae 10BD     		pop	{r4, pc}
 341              	.L21:
 342              		.align	2
 343              	.L20:
 344 01b0 00000000 		.word	.L4
 345              		.cfi_endproc
 346              	.LFE35:
 347              		.size	setmux, .-setmux
 348              		.section	.text.delay,"ax",%progbits
 349              		.align	2
 350              		.global	delay
 351              		.code	16
 352              		.thumb_func
ARM GAS  C:\Users\PRAJWA~1\AppData\Local\Temp\ccedcYia.s 			page 10


 353              		.type	delay, %function
 354              	delay:
 355              	.LFB36:
 162:PSoC.h        **** 
 163:PSoC.h        **** void delay(int val){
 356              		.loc 1 163 0
 357              		.cfi_startproc
 358              		@ args = 0, pretend = 0, frame = 0
 359              		@ frame_needed = 0, uses_anonymous_args = 0
 360              	.LVL97:
 361 0000 10B5     		push	{r4, lr}
 362              		.cfi_def_cfa_offset 8
 363              		.cfi_offset 4, -8
 364              		.cfi_offset 14, -4
 164:PSoC.h        ****     CyDelay(val);
 365              		.loc 1 164 0
 366 0002 FFF7FEFF 		bl	CyDelay
 367              	.LVL98:
 165:PSoC.h        **** }
 368              		.loc 1 165 0
 369              		@ sp needed
 370 0006 10BD     		pop	{r4, pc}
 371              		.cfi_endproc
 372              	.LFE36:
 373              		.size	delay, .-delay
 374              		.section	.text.switchTo,"ax",%progbits
 375              		.align	2
 376              		.global	switchTo
 377              		.code	16
 378              		.thumb_func
 379              		.type	switchTo, %function
 380              	switchTo:
 381              	.LFB37:
 166:PSoC.h        **** 
 167:PSoC.h        **** void switchTo(uint8 val){
 382              		.loc 1 167 0
 383              		.cfi_startproc
 384              		@ args = 0, pretend = 0, frame = 0
 385              		@ frame_needed = 0, uses_anonymous_args = 0
 386              	.LVL99:
 387 0000 70B5     		push	{r4, r5, r6, lr}
 388              		.cfi_def_cfa_offset 16
 389              		.cfi_offset 4, -16
 390              		.cfi_offset 5, -12
 391              		.cfi_offset 6, -8
 392              		.cfi_offset 14, -4
 393 0002 0500     		movs	r5, r0
 394              	.LVL100:
 168:PSoC.h        ****     uint16 timeout=10000;
 395              		.loc 1 168 0
 396 0004 084C     		ldr	r4, .L27
 169:PSoC.h        ****     while(UART_SpiUartGetTxBufferSize() != 0 && timeout){timeout--;};
 397              		.loc 1 169 0
 398 0006 01E0     		b	.L24
 399              	.LVL101:
 400              	.L26:
 401              		.loc 1 169 0 is_stmt 0 discriminator 3
ARM GAS  C:\Users\PRAJWA~1\AppData\Local\Temp\ccedcYia.s 			page 11


 402 0008 013C     		subs	r4, r4, #1
 403              	.LVL102:
 404 000a A4B2     		uxth	r4, r4
 405              	.LVL103:
 406              	.L24:
 407              		.loc 1 169 0 discriminator 1
 408 000c FFF7FEFF 		bl	UART_SpiUartGetTxBufferSize
 409              	.LVL104:
 410 0010 0028     		cmp	r0, #0
 411 0012 01D0     		beq	.L25
 412              		.loc 1 169 0 discriminator 2
 413 0014 002C     		cmp	r4, #0
 414 0016 F7D1     		bne	.L26
 415              	.L25:
 170:PSoC.h        ****     UART_SpiUartClearTxBuffer();
 416              		.loc 1 170 0 is_stmt 1
 417 0018 FFF7FEFF 		bl	UART_SpiUartClearTxBuffer
 418              	.LVL105:
 171:PSoC.h        ****     UART_SpiUartClearRxBuffer();
 419              		.loc 1 171 0
 420 001c FFF7FEFF 		bl	UART_SpiUartClearRxBuffer
 421              	.LVL106:
 172:PSoC.h        ****     CTRL_Write(val);
 422              		.loc 1 172 0
 423 0020 2800     		movs	r0, r5
 424 0022 FFF7FEFF 		bl	CTRL_Write
 425              	.LVL107:
 173:PSoC.h        **** }
 426              		.loc 1 173 0
 427              		@ sp needed
 428              	.LVL108:
 429 0026 70BD     		pop	{r4, r5, r6, pc}
 430              	.L28:
 431              		.align	2
 432              	.L27:
 433 0028 10270000 		.word	10000
 434              		.cfi_endproc
 435              	.LFE37:
 436              		.size	switchTo, .-switchTo
 437              		.section	.text.PSC_McM_6_00_init,"ax",%progbits
 438              		.align	2
 439              		.global	PSC_McM_6_00_init
 440              		.code	16
 441              		.thumb_func
 442              		.type	PSC_McM_6_00_init, %function
 443              	PSC_McM_6_00_init:
 444              	.LFB38:
 174:PSoC.h        **** 
 175:PSoC.h        **** void PSC_McM_6_00_init(struct PSC_McM_6_00 *p){
 445              		.loc 1 175 0
 446              		.cfi_startproc
 447              		@ args = 0, pretend = 0, frame = 0
 448              		@ frame_needed = 0, uses_anonymous_args = 0
 449              	.LVL109:
 450 0000 10B5     		push	{r4, lr}
 451              		.cfi_def_cfa_offset 8
 452              		.cfi_offset 4, -8
ARM GAS  C:\Users\PRAJWA~1\AppData\Local\Temp\ccedcYia.s 			page 12


 453              		.cfi_offset 14, -4
 176:PSoC.h        ****     UART_Start();
 454              		.loc 1 176 0
 455 0002 FFF7FEFF 		bl	UART_Start
 456              	.LVL110:
 177:PSoC.h        ****     switchTo(USB);
 457              		.loc 1 177 0
 458 0006 0020     		movs	r0, #0
 459 0008 FFF7FEFF 		bl	switchTo
 460              	.LVL111:
 178:PSoC.h        **** }
 461              		.loc 1 178 0
 462              		@ sp needed
 463 000c 10BD     		pop	{r4, pc}
 464              		.cfi_endproc
 465              	.LFE38:
 466              		.size	PSC_McM_6_00_init, .-PSC_McM_6_00_init
 467 000e C046     		.section	.text.sendCmd,"ax",%progbits
 468              		.align	2
 469              		.global	sendCmd
 470              		.code	16
 471              		.thumb_func
 472              		.type	sendCmd, %function
 473              	sendCmd:
 474              	.LFB39:
 179:PSoC.h        **** 
 180:PSoC.h        **** //ble+wifi
 181:PSoC.h        **** 
 182:PSoC.h        **** int sendCmd(struct PSC_McM_6_00 *p, char *cmd, char *rec_data, int len, unsigned long long timeout,
 475              		.loc 1 182 0
 476              		.cfi_startproc
 477              		@ args = 12, pretend = 0, frame = 0
 478              		@ frame_needed = 0, uses_anonymous_args = 0
 479              	.LVL112:
 480 0000 F0B5     		push	{r4, r5, r6, r7, lr}
 481              		.cfi_def_cfa_offset 20
 482              		.cfi_offset 4, -20
 483              		.cfi_offset 5, -16
 484              		.cfi_offset 6, -12
 485              		.cfi_offset 7, -8
 486              		.cfi_offset 14, -4
 487 0002 5746     		mov	r7, r10
 488 0004 4E46     		mov	r6, r9
 489 0006 4546     		mov	r5, r8
 490 0008 E0B4     		push	{r5, r6, r7}
 491              		.cfi_def_cfa_offset 32
 492              		.cfi_offset 8, -32
 493              		.cfi_offset 9, -28
 494              		.cfi_offset 10, -24
 495 000a 0E00     		movs	r6, r1
 496 000c 9246     		mov	r10, r2
 497 000e 9846     		mov	r8, r3
 498 0010 08AB     		add	r3, sp, #32
 499              	.LVL113:
 500 0012 30CB     		ldmia	r3!, {r4, r5}
 501              	.LVL114:
 502 0014 1F78     		ldrb	r7, [r3]
ARM GAS  C:\Users\PRAJWA~1\AppData\Local\Temp\ccedcYia.s 			page 13


 183:PSoC.h        **** 
 184:PSoC.h        ****     switchTo(BLE);
 503              		.loc 1 184 0
 504 0016 0120     		movs	r0, #1
 505              	.LVL115:
 506 0018 FFF7FEFF 		bl	switchTo
 507              	.LVL116:
 185:PSoC.h        ****     
 186:PSoC.h        ****     int i=0, temp=0;
 187:PSoC.h        ****     char *ptr = rec_data;
 188:PSoC.h        ****     unsigned long long to = timeout;
 189:PSoC.h        ****     UART_UartPutString(cmd);
 508              		.loc 1 189 0
 509 001c 3000     		movs	r0, r6
 510 001e FFF7FEFF 		bl	UART_UartPutString
 511              	.LVL117:
 190:PSoC.h        ****       
 191:PSoC.h        ****     if(Delay) delay(1000);
 512              		.loc 1 191 0
 513 0022 002F     		cmp	r7, #0
 514 0024 03D0     		beq	.L31
 515              		.loc 1 191 0 is_stmt 0 discriminator 1
 516 0026 FA20     		movs	r0, #250
 517 0028 8000     		lsls	r0, r0, #2
 518 002a FFF7FEFF 		bl	delay
 519              	.LVL118:
 520              	.L31:
 182:PSoC.h        **** 
 521              		.loc 1 182 0 is_stmt 1
 522 002e D146     		mov	r9, r10
 523 0030 0026     		movs	r6, #0
 524              	.LVL119:
 525              	.L32:
 192:PSoC.h        ****     
 193:PSoC.h        ****     for(;;)
 194:PSoC.h        ****     {
 195:PSoC.h        ****         to--;
 526              		.loc 1 195 0
 527 0032 0122     		movs	r2, #1
 528 0034 5242     		rsbs	r2, r2, #0
 529 0036 D317     		asrs	r3, r2, #31
 530 0038 A418     		adds	r4, r4, r2
 531 003a 5D41     		adcs	r5, r5, r3
 532              	.LVL120:
 196:PSoC.h        ****         if(!to) {temp = -2; break;}
 533              		.loc 1 196 0
 534 003c 2300     		movs	r3, r4
 535 003e 2B43     		orrs	r3, r5
 536 0040 25D0     		beq	.L38
 197:PSoC.h        ****        
 198:PSoC.h        ****         if((UART_SpiUartGetRxBufferSize() != 0) && i<len)
 537              		.loc 1 198 0
 538 0042 FFF7FEFF 		bl	UART_SpiUartGetRxBufferSize
 539              	.LVL121:
 540 0046 0028     		cmp	r0, #0
 541 0048 F3D0     		beq	.L32
 542              		.loc 1 198 0 is_stmt 0 discriminator 1
ARM GAS  C:\Users\PRAJWA~1\AppData\Local\Temp\ccedcYia.s 			page 14


 543 004a 4645     		cmp	r6, r8
 544 004c F1DA     		bge	.L32
 199:PSoC.h        ****         {
 200:PSoC.h        ****             rec_data[i] = UART_SpiUartReadRxData();
 545              		.loc 1 200 0 is_stmt 1
 546 004e 5346     		mov	r3, r10
 547 0050 9F19     		adds	r7, r3, r6
 548 0052 FFF7FEFF 		bl	UART_SpiUartReadRxData
 549              	.LVL122:
 550 0056 3870     		strb	r0, [r7]
 201:PSoC.h        **** 
 202:PSoC.h        ****             if ((i>4) && (strncmp(ptr-5, "\r\nOK\r\n",6)==0))     {temp = i-6; break;}
 551              		.loc 1 202 0
 552 0058 042E     		cmp	r6, #4
 553 005a 09DD     		ble	.L36
 554              		.loc 1 202 0 is_stmt 0 discriminator 1
 555 005c 4B46     		mov	r3, r9
 556 005e 581F     		subs	r0, r3, #5
 557 0060 0622     		movs	r2, #6
 558 0062 1249     		ldr	r1, .L40
 559 0064 FFF7FEFF 		bl	strncmp
 560              	.LVL123:
 561 0068 0028     		cmp	r0, #0
 562 006a 01D1     		bne	.L36
 563              		.loc 1 202 0 discriminator 2
 564 006c 063E     		subs	r6, r6, #6
 565              	.LVL124:
 566 006e 13E0     		b	.L33
 567              	.LVL125:
 568              	.L36:
 203:PSoC.h        ****             if ((i>7) && (strncmp(ptr-8, "\r\nERROR\r\n",9)==0))  {temp =  -1; break;}
 569              		.loc 1 203 0 is_stmt 1
 570 0070 072E     		cmp	r6, #7
 571 0072 07DD     		ble	.L37
 572              		.loc 1 203 0 is_stmt 0 discriminator 1
 573 0074 0922     		movs	r2, #9
 574 0076 0E49     		ldr	r1, .L40+4
 575 0078 4846     		mov	r0, r9
 576 007a 0838     		subs	r0, r0, #8
 577 007c FFF7FEFF 		bl	strncmp
 578              	.LVL126:
 579 0080 0028     		cmp	r0, #0
 580 0082 07D0     		beq	.L39
 581              	.L37:
 204:PSoC.h        ****           
 205:PSoC.h        ****             i++; ptr++;
 582              		.loc 1 205 0 is_stmt 1
 583 0084 0136     		adds	r6, r6, #1
 584              	.LVL127:
 585 0086 0123     		movs	r3, #1
 586 0088 9C46     		mov	ip, r3
 587 008a E144     		add	r9, r9, ip
 588              	.LVL128:
 589 008c D1E7     		b	.L32
 590              	.L38:
 196:PSoC.h        ****        
 591              		.loc 1 196 0
ARM GAS  C:\Users\PRAJWA~1\AppData\Local\Temp\ccedcYia.s 			page 15


 592 008e 0226     		movs	r6, #2
 593              	.LVL129:
 594 0090 7642     		rsbs	r6, r6, #0
 595 0092 01E0     		b	.L33
 596              	.LVL130:
 597              	.L39:
 203:PSoC.h        ****             if ((i>7) && (strncmp(ptr-8, "\r\nERROR\r\n",9)==0))  {temp =  -1; break;}
 598              		.loc 1 203 0
 599 0094 0126     		movs	r6, #1
 600              	.LVL131:
 601 0096 7642     		rsbs	r6, r6, #0
 602              	.LVL132:
 603              	.L33:
 206:PSoC.h        ****         }
 207:PSoC.h        ****     }
 208:PSoC.h        ****     
 209:PSoC.h        ****     switchTo(USB);
 604              		.loc 1 209 0
 605 0098 0020     		movs	r0, #0
 606 009a FFF7FEFF 		bl	switchTo
 607              	.LVL133:
 210:PSoC.h        **** 
 211:PSoC.h        ****     return temp;
 212:PSoC.h        **** }
 608              		.loc 1 212 0
 609 009e 3000     		movs	r0, r6
 610              		@ sp needed
 611              	.LVL134:
 612              	.LVL135:
 613              	.LVL136:
 614              	.LVL137:
 615              	.LVL138:
 616 00a0 1CBC     		pop	{r2, r3, r4}
 617 00a2 9046     		mov	r8, r2
 618 00a4 9946     		mov	r9, r3
 619 00a6 A246     		mov	r10, r4
 620 00a8 F0BD     		pop	{r4, r5, r6, r7, pc}
 621              	.L41:
 622 00aa C046     		.align	2
 623              	.L40:
 624 00ac 00000000 		.word	.LC1
 625 00b0 08000000 		.word	.LC3
 626              		.cfi_endproc
 627              	.LFE39:
 628              		.size	sendCmd, .-sendCmd
 629              		.section	.text.ble_mac,"ax",%progbits
 630              		.align	2
 631              		.global	ble_mac
 632              		.code	16
 633              		.thumb_func
 634              		.type	ble_mac, %function
 635              	ble_mac:
 636              	.LFB40:
 213:PSoC.h        **** 
 214:PSoC.h        **** int ble_mac(struct PSC_McM_6_00 *p, char *mac)
 215:PSoC.h        **** {
 637              		.loc 1 215 0
ARM GAS  C:\Users\PRAJWA~1\AppData\Local\Temp\ccedcYia.s 			page 16


 638              		.cfi_startproc
 639              		@ args = 0, pretend = 0, frame = 88
 640              		@ frame_needed = 0, uses_anonymous_args = 0
 641              	.LVL139:
 642 0000 F0B5     		push	{r4, r5, r6, r7, lr}
 643              		.cfi_def_cfa_offset 20
 644              		.cfi_offset 4, -20
 645              		.cfi_offset 5, -16
 646              		.cfi_offset 6, -12
 647              		.cfi_offset 7, -8
 648              		.cfi_offset 14, -4
 649 0002 9BB0     		sub	sp, sp, #108
 650              		.cfi_def_cfa_offset 128
 651 0004 0600     		movs	r6, r0
 652 0006 0C00     		movs	r4, r1
 653              	.LVL140:
 216:PSoC.h        ****     uint8_t result=0, j=0;
 217:PSoC.h        ****     char cmd[20] = "AT+BLEMAC?\r\n";
 654              		.loc 1 217 0
 655 0008 15AD     		add	r5, sp, #84
 656 000a 154B     		ldr	r3, .L47
 657 000c 2A00     		movs	r2, r5
 658 000e 83CB     		ldmia	r3!, {r0, r1, r7}
 659 0010 83C2     		stmia	r2!, {r0, r1, r7}
 660              	.LVL141:
 661 0012 1B78     		ldrb	r3, [r3]
 662 0014 1370     		strb	r3, [r2]
 663 0016 0722     		movs	r2, #7
 664 0018 0021     		movs	r1, #0
 665 001a 6120     		movs	r0, #97
 666 001c 6844     		add	r0, r0, sp
 667 001e FFF7FEFF 		bl	memset
 668              	.LVL142:
 218:PSoC.h        ****     char rec_data[65];
 219:PSoC.h        ****     char *ptr = rec_data;
 220:PSoC.h        **** 
 221:PSoC.h        ****     result = sendCmd(p, cmd, rec_data, 65, 10000, 0);
 669              		.loc 1 221 0
 670 0022 0023     		movs	r3, #0
 671 0024 0293     		str	r3, [sp, #8]
 672 0026 0F4A     		ldr	r2, .L47+4
 673 0028 0023     		movs	r3, #0
 674 002a 0092     		str	r2, [sp]
 675 002c 0193     		str	r3, [sp, #4]
 676 002e 4123     		movs	r3, #65
 677 0030 04AA     		add	r2, sp, #16
 678              	.LVL143:
 679 0032 2900     		movs	r1, r5
 680 0034 3000     		movs	r0, r6
 681 0036 FFF7FEFF 		bl	sendCmd
 682              	.LVL144:
 219:PSoC.h        **** 
 683              		.loc 1 219 0
 684 003a 04AB     		add	r3, sp, #16
 685              	.LVL145:
 222:PSoC.h        **** 
 223:PSoC.h        ****     if(result>=0)
ARM GAS  C:\Users\PRAJWA~1\AppData\Local\Temp\ccedcYia.s 			page 17


 224:PSoC.h        ****     {
 225:PSoC.h        ****         while(*ptr != ':')  ptr++;
 686              		.loc 1 225 0
 687 003c 00E0     		b	.L43
 688              	.L44:
 689              		.loc 1 225 0 is_stmt 0 discriminator 2
 690 003e 0133     		adds	r3, r3, #1
 691              	.LVL146:
 692              	.L43:
 693              		.loc 1 225 0 discriminator 1
 694 0040 1A78     		ldrb	r2, [r3]
 695 0042 3A2A     		cmp	r2, #58
 696 0044 FBD1     		bne	.L44
 226:PSoC.h        ****         ptr++;
 697              		.loc 1 226 0 is_stmt 1
 698 0046 0133     		adds	r3, r3, #1
 699              	.LVL147:
 216:PSoC.h        ****     char cmd[20] = "AT+BLEMAC?\r\n";
 700              		.loc 1 216 0
 701 0048 0022     		movs	r2, #0
 227:PSoC.h        ****       
 228:PSoC.h        ****         while(*ptr != '\r')
 702              		.loc 1 228 0
 703 004a 03E0     		b	.L45
 704              	.LVL148:
 705              	.L46:
 229:PSoC.h        ****         {
 230:PSoC.h        ****             mac[j] = *ptr;
 706              		.loc 1 230 0
 707 004c A154     		strb	r1, [r4, r2]
 231:PSoC.h        ****             j++; ptr++;
 708              		.loc 1 231 0
 709 004e 0132     		adds	r2, r2, #1
 710              	.LVL149:
 711 0050 D2B2     		uxtb	r2, r2
 712              	.LVL150:
 713 0052 0133     		adds	r3, r3, #1
 714              	.LVL151:
 715              	.L45:
 228:PSoC.h        ****         {
 716              		.loc 1 228 0
 717 0054 1978     		ldrb	r1, [r3]
 718 0056 0D29     		cmp	r1, #13
 719 0058 F8D1     		bne	.L46
 232:PSoC.h        ****         }
 233:PSoC.h        ****     }
 234:PSoC.h        **** 
 235:PSoC.h        ****     if(result>=0) return 0;
 236:PSoC.h        ****     return -1;
 237:PSoC.h        **** }
 720              		.loc 1 237 0 discriminator 1
 721 005a 0020     		movs	r0, #0
 722 005c 1BB0     		add	sp, sp, #108
 723              		@ sp needed
 724              	.LVL152:
 725              	.LVL153:
 726 005e F0BD     		pop	{r4, r5, r6, r7, pc}
ARM GAS  C:\Users\PRAJWA~1\AppData\Local\Temp\ccedcYia.s 			page 18


 727              	.L48:
 728              		.align	2
 729              	.L47:
 730 0060 40000000 		.word	.LANCHOR0
 731 0064 10270000 		.word	10000
 732              		.cfi_endproc
 733              	.LFE40:
 734              		.size	ble_mac, .-ble_mac
 735              		.global	__aeabi_d2iz
 736              		.section	.text.ble_checkRFpower,"ax",%progbits
 737              		.align	2
 738              		.global	ble_checkRFpower
 739              		.code	16
 740              		.thumb_func
 741              		.type	ble_checkRFpower, %function
 742              	ble_checkRFpower:
 743              	.LFB41:
 238:PSoC.h        **** 
 239:PSoC.h        **** int ble_checkRFpower(struct PSC_McM_6_00 *p)
 240:PSoC.h        **** {
 744              		.loc 1 240 0
 745              		.cfi_startproc
 746              		@ args = 0, pretend = 0, frame = 80
 747              		@ frame_needed = 0, uses_anonymous_args = 0
 748              	.LVL154:
 749 0000 70B5     		push	{r4, r5, r6, lr}
 750              		.cfi_def_cfa_offset 16
 751              		.cfi_offset 4, -16
 752              		.cfi_offset 5, -12
 753              		.cfi_offset 6, -8
 754              		.cfi_offset 14, -4
 755 0002 98B0     		sub	sp, sp, #96
 756              		.cfi_def_cfa_offset 112
 757 0004 0500     		movs	r5, r0
 241:PSoC.h        ****     int8_t result;
 242:PSoC.h        ****     char rec_data[60],*ptr;
 243:PSoC.h        ****     char cmd[18] = "AT+BLERFPWR?\r\n";
 758              		.loc 1 243 0
 759 0006 04AC     		add	r4, sp, #16
 760 0008 2200     		movs	r2, r4
 761 000a 184B     		ldr	r3, .L54
 762 000c 1433     		adds	r3, r3, #20
 763 000e 43CB     		ldmia	r3!, {r0, r1, r6}
 764 0010 43C2     		stmia	r2!, {r0, r1, r6}
 765              	.LVL155:
 766 0012 1988     		ldrh	r1, [r3]
 767 0014 1180     		strh	r1, [r2]
 768 0016 9B78     		ldrb	r3, [r3, #2]
 769 0018 9370     		strb	r3, [r2, #2]
 770 001a 0322     		movs	r2, #3
 771 001c 0021     		movs	r1, #0
 772 001e 1F20     		movs	r0, #31
 773 0020 6844     		add	r0, r0, sp
 774 0022 FFF7FEFF 		bl	memset
 775              	.LVL156:
 244:PSoC.h        **** 
 245:PSoC.h        ****     delay(1000);
ARM GAS  C:\Users\PRAJWA~1\AppData\Local\Temp\ccedcYia.s 			page 19


 776              		.loc 1 245 0
 777 0026 FA20     		movs	r0, #250
 778 0028 8000     		lsls	r0, r0, #2
 779 002a FFF7FEFF 		bl	delay
 780              	.LVL157:
 246:PSoC.h        ****     
 247:PSoC.h        ****     result = sendCmd(p, cmd, rec_data, 60, 100000, 0);
 781              		.loc 1 247 0
 782 002e 0023     		movs	r3, #0
 783 0030 0293     		str	r3, [sp, #8]
 784 0032 0F4A     		ldr	r2, .L54+4
 785 0034 0023     		movs	r3, #0
 786 0036 0092     		str	r2, [sp]
 787 0038 0193     		str	r3, [sp, #4]
 788 003a 3C23     		movs	r3, #60
 789 003c 09AA     		add	r2, sp, #36
 790 003e 2100     		movs	r1, r4
 791 0040 2800     		movs	r0, r5
 792 0042 FFF7FEFF 		bl	sendCmd
 793              	.LVL158:
 248:PSoC.h        ****     ptr = &rec_data[60];
 249:PSoC.h        ****     if (result>=0)
 794              		.loc 1 249 0
 795 0046 0306     		lsls	r3, r0, #24
 796 0048 04D5     		bpl	.L53
 250:PSoC.h        ****     {
 251:PSoC.h        ****         while(*ptr != ':')  ptr--;
 252:PSoC.h        ****         ptr++;
 253:PSoC.h        ****         return(atof(ptr));
 254:PSoC.h        ****     }
 255:PSoC.h        ****     return -1;
 797              		.loc 1 255 0
 798 004a 0120     		movs	r0, #1
 799              	.LVL159:
 800 004c 4042     		rsbs	r0, r0, #0
 801 004e 0AE0     		b	.L51
 802              	.LVL160:
 803              	.L52:
 251:PSoC.h        ****         ptr++;
 804              		.loc 1 251 0 discriminator 2
 805 0050 0138     		subs	r0, r0, #1
 806              	.LVL161:
 807 0052 00E0     		b	.L50
 808              	.LVL162:
 809              	.L53:
 810 0054 18A8     		add	r0, sp, #96
 811              	.LVL163:
 812              	.L50:
 251:PSoC.h        ****         ptr++;
 813              		.loc 1 251 0 is_stmt 0 discriminator 1
 814 0056 0378     		ldrb	r3, [r0]
 815 0058 3A2B     		cmp	r3, #58
 816 005a F9D1     		bne	.L52
 252:PSoC.h        ****         return(atof(ptr));
 817              		.loc 1 252 0 is_stmt 1
 818 005c 0130     		adds	r0, r0, #1
 819              	.LVL164:
ARM GAS  C:\Users\PRAJWA~1\AppData\Local\Temp\ccedcYia.s 			page 20


 253:PSoC.h        ****     }
 820              		.loc 1 253 0
 821 005e FFF7FEFF 		bl	atof
 822              	.LVL165:
 823 0062 FFF7FEFF 		bl	__aeabi_d2iz
 824              	.LVL166:
 825              	.L51:
 256:PSoC.h        **** }
 826              		.loc 1 256 0
 827 0066 18B0     		add	sp, sp, #96
 828              		@ sp needed
 829              	.LVL167:
 830 0068 70BD     		pop	{r4, r5, r6, pc}
 831              	.L55:
 832 006a C046     		.align	2
 833              	.L54:
 834 006c 40000000 		.word	.LANCHOR0
 835 0070 A0860100 		.word	100000
 836              		.cfi_endproc
 837              	.LFE41:
 838              		.size	ble_checkRFpower, .-ble_checkRFpower
 839              		.section	.text.ble_setRFpower,"ax",%progbits
 840              		.align	2
 841              		.global	ble_setRFpower
 842              		.code	16
 843              		.thumb_func
 844              		.type	ble_setRFpower, %function
 845              	ble_setRFpower:
 846              	.LFB42:
 257:PSoC.h        **** 
 258:PSoC.h        **** int ble_setRFpower(struct PSC_McM_6_00 *p, int val)
 259:PSoC.h        **** {        
 847              		.loc 1 259 0
 848              		.cfi_startproc
 849              		@ args = 0, pretend = 0, frame = 96
 850              		@ frame_needed = 0, uses_anonymous_args = 0
 851              	.LVL168:
 852 0000 70B5     		push	{r4, r5, r6, lr}
 853              		.cfi_def_cfa_offset 16
 854              		.cfi_offset 4, -16
 855              		.cfi_offset 5, -12
 856              		.cfi_offset 6, -8
 857              		.cfi_offset 14, -4
 858 0002 9CB0     		sub	sp, sp, #112
 859              		.cfi_def_cfa_offset 128
 860 0004 0500     		movs	r5, r0
 861 0006 0C00     		movs	r4, r1
 260:PSoC.h        ****     char rec_data[60];
 261:PSoC.h        ****     int result;
 262:PSoC.h        ****     char buffer[20], cmd[15] = "AT+BLERFPWR=";
 862              		.loc 1 262 0
 863 0008 04AA     		add	r2, sp, #16
 864 000a 154B     		ldr	r3, .L60
 865 000c 2833     		adds	r3, r3, #40
 866 000e 43CB     		ldmia	r3!, {r0, r1, r6}
 867 0010 43C2     		stmia	r2!, {r0, r1, r6}
 868              	.LVL169:
ARM GAS  C:\Users\PRAJWA~1\AppData\Local\Temp\ccedcYia.s 			page 21


 869 0012 1B78     		ldrb	r3, [r3]
 870 0014 1370     		strb	r3, [r2]
 871 0016 0222     		movs	r2, #2
 872 0018 0021     		movs	r1, #0
 873 001a 1D20     		movs	r0, #29
 874 001c 6844     		add	r0, r0, sp
 875 001e FFF7FEFF 		bl	memset
 876              	.LVL170:
 263:PSoC.h        **** 
 264:PSoC.h        ****     if(val<0) return -2;
 877              		.loc 1 264 0
 878 0022 002C     		cmp	r4, #0
 879 0024 15DB     		blt	.L58
 265:PSoC.h        **** 
 266:PSoC.h        ****     sprintf(buffer, "%s%d\r\n", cmd, val);
 880              		.loc 1 266 0
 881 0026 2300     		movs	r3, r4
 882 0028 04AA     		add	r2, sp, #16
 883 002a 0E49     		ldr	r1, .L60+4
 884 002c 08A8     		add	r0, sp, #32
 885 002e FFF7FEFF 		bl	sprintf
 886              	.LVL171:
 267:PSoC.h        ****     
 268:PSoC.h        ****     result = sendCmd(p, buffer, rec_data, 60, 1000000, 0);
 887              		.loc 1 268 0
 888 0032 0023     		movs	r3, #0
 889 0034 0293     		str	r3, [sp, #8]
 890 0036 0C4A     		ldr	r2, .L60+8
 891 0038 0023     		movs	r3, #0
 892 003a 0092     		str	r2, [sp]
 893 003c 0193     		str	r3, [sp, #4]
 894 003e 3C23     		movs	r3, #60
 895 0040 0DAA     		add	r2, sp, #52
 896 0042 08A9     		add	r1, sp, #32
 897 0044 2800     		movs	r0, r5
 898 0046 FFF7FEFF 		bl	sendCmd
 899              	.LVL172:
 269:PSoC.h        ****     
 270:PSoC.h        ****     if(result >= 0) return 0;
 900              		.loc 1 270 0
 901 004a 0028     		cmp	r0, #0
 902 004c 04DB     		blt	.L59
 903 004e 0020     		movs	r0, #0
 904              	.LVL173:
 905 0050 04E0     		b	.L57
 906              	.L58:
 264:PSoC.h        **** 
 907              		.loc 1 264 0
 908 0052 0220     		movs	r0, #2
 909 0054 4042     		rsbs	r0, r0, #0
 910 0056 01E0     		b	.L57
 911              	.LVL174:
 912              	.L59:
 271:PSoC.h        ****     return -1;
 913              		.loc 1 271 0
 914 0058 0120     		movs	r0, #1
 915              	.LVL175:
ARM GAS  C:\Users\PRAJWA~1\AppData\Local\Temp\ccedcYia.s 			page 22


 916 005a 4042     		rsbs	r0, r0, #0
 917              	.L57:
 272:PSoC.h        **** }
 918              		.loc 1 272 0
 919 005c 1CB0     		add	sp, sp, #112
 920              		@ sp needed
 921              	.LVL176:
 922              	.LVL177:
 923 005e 70BD     		pop	{r4, r5, r6, pc}
 924              	.L61:
 925              		.align	2
 926              	.L60:
 927 0060 40000000 		.word	.LANCHOR0
 928 0064 14000000 		.word	.LC11
 929 0068 40420F00 		.word	1000000
 930              		.cfi_endproc
 931              	.LFE42:
 932              		.size	ble_setRFpower, .-ble_setRFpower
 933              		.section	.text.ble_status,"ax",%progbits
 934              		.align	2
 935              		.global	ble_status
 936              		.code	16
 937              		.thumb_func
 938              		.type	ble_status, %function
 939              	ble_status:
 940              	.LFB43:
 273:PSoC.h        **** 
 274:PSoC.h        **** int ble_status(struct PSC_McM_6_00 *p)
 275:PSoC.h        **** {    
 941              		.loc 1 275 0
 942              		.cfi_startproc
 943              		@ args = 0, pretend = 0, frame = 56
 944              		@ frame_needed = 0, uses_anonymous_args = 0
 945              	.LVL178:
 946 0000 70B5     		push	{r4, r5, r6, lr}
 947              		.cfi_def_cfa_offset 16
 948              		.cfi_offset 4, -16
 949              		.cfi_offset 5, -12
 950              		.cfi_offset 6, -8
 951              		.cfi_offset 14, -4
 952 0002 92B0     		sub	sp, sp, #72
 953              		.cfi_def_cfa_offset 88
 954 0004 0500     		movs	r5, r0
 276:PSoC.h        ****     uint8_t result, i;
 277:PSoC.h        ****     char rec_data[40],*ptr;
 278:PSoC.h        ****     char cmd[15] = "AT+BLEMODE?\r\n";
 955              		.loc 1 278 0
 956 0006 04AC     		add	r4, sp, #16
 957 0008 2200     		movs	r2, r4
 958 000a 104B     		ldr	r3, .L65
 959 000c 3833     		adds	r3, r3, #56
 960 000e 43CB     		ldmia	r3!, {r0, r1, r6}
 961 0010 43C2     		stmia	r2!, {r0, r1, r6}
 962              	.LVL179:
 963 0012 1B88     		ldrh	r3, [r3]
 964 0014 1380     		strh	r3, [r2]
 965 0016 0026     		movs	r6, #0
ARM GAS  C:\Users\PRAJWA~1\AppData\Local\Temp\ccedcYia.s 			page 23


 966 0018 A673     		strb	r6, [r4, #14]
 279:PSoC.h        **** 
 280:PSoC.h        ****     UART_UartPutString("9: BLE is OFF.\n0: BLE is configured in Slave Mode.\n1: BLE is configured i
 967              		.loc 1 280 0
 968 001a 0D48     		ldr	r0, .L65+4
 969 001c FFF7FEFF 		bl	UART_UartPutString
 970              	.LVL180:
 281:PSoC.h        ****     result = sendCmd(p, cmd, rec_data, 40, 100000, 0);
 971              		.loc 1 281 0
 972 0020 0296     		str	r6, [sp, #8]
 973 0022 0C4A     		ldr	r2, .L65+8
 974 0024 0023     		movs	r3, #0
 975 0026 0092     		str	r2, [sp]
 976 0028 0193     		str	r3, [sp, #4]
 977 002a 2823     		movs	r3, #40
 978 002c 08AA     		add	r2, sp, #32
 979 002e 2100     		movs	r1, r4
 980 0030 2800     		movs	r0, r5
 981 0032 FFF7FEFF 		bl	sendCmd
 982              	.LVL181:
 282:PSoC.h        ****     ptr = rec_data;
 983              		.loc 1 282 0
 984 0036 08A8     		add	r0, sp, #32
 985              	.LVL182:
 283:PSoC.h        ****     if (result>=0)
 284:PSoC.h        ****     {
 285:PSoC.h        ****         while(*ptr != ':')  ptr++;
 986              		.loc 1 285 0
 987 0038 00E0     		b	.L63
 988              	.L64:
 989              		.loc 1 285 0 is_stmt 0 discriminator 2
 990 003a 0130     		adds	r0, r0, #1
 991              	.LVL183:
 992              	.L63:
 993              		.loc 1 285 0 discriminator 1
 994 003c 0378     		ldrb	r3, [r0]
 995 003e 3A2B     		cmp	r3, #58
 996 0040 FBD1     		bne	.L64
 286:PSoC.h        ****         ptr++;
 997              		.loc 1 286 0 is_stmt 1
 998 0042 0130     		adds	r0, r0, #1
 999              	.LVL184:
 287:PSoC.h        ****         return (atoi(ptr));
 1000              		.loc 1 287 0
 1001 0044 FFF7FEFF 		bl	atoi
 1002              	.LVL185:
 288:PSoC.h        ****     }
 289:PSoC.h        ****     return -1;
 290:PSoC.h        **** }
 1003              		.loc 1 290 0
 1004 0048 12B0     		add	sp, sp, #72
 1005              		@ sp needed
 1006              	.LVL186:
 1007 004a 70BD     		pop	{r4, r5, r6, pc}
 1008              	.L66:
 1009              		.align	2
 1010              	.L65:
ARM GAS  C:\Users\PRAJWA~1\AppData\Local\Temp\ccedcYia.s 			page 24


 1011 004c 40000000 		.word	.LANCHOR0
 1012 0050 1C000000 		.word	.LC15
 1013 0054 A0860100 		.word	100000
 1014              		.cfi_endproc
 1015              	.LFE43:
 1016              		.size	ble_status, .-ble_status
 1017              		.section	.text.ble_OFF,"ax",%progbits
 1018              		.align	2
 1019              		.global	ble_OFF
 1020              		.code	16
 1021              		.thumb_func
 1022              		.type	ble_OFF, %function
 1023              	ble_OFF:
 1024              	.LFB44:
 291:PSoC.h        **** 
 292:PSoC.h        **** int ble_OFF(struct PSC_McM_6_00 *p)
 293:PSoC.h        **** {    
 1025              		.loc 1 293 0
 1026              		.cfi_startproc
 1027              		@ args = 0, pretend = 0, frame = 48
 1028              		@ frame_needed = 0, uses_anonymous_args = 0
 1029              	.LVL187:
 1030 0000 70B5     		push	{r4, r5, r6, lr}
 1031              		.cfi_def_cfa_offset 16
 1032              		.cfi_offset 4, -16
 1033              		.cfi_offset 5, -12
 1034              		.cfi_offset 6, -8
 1035              		.cfi_offset 14, -4
 1036 0002 90B0     		sub	sp, sp, #64
 1037              		.cfi_def_cfa_offset 80
 1038 0004 0500     		movs	r5, r0
 294:PSoC.h        ****     int status;
 295:PSoC.h        ****     status = ble_status(p);
 1039              		.loc 1 295 0
 1040 0006 FFF7FEFF 		bl	ble_status
 1041              	.LVL188:
 296:PSoC.h        ****     if(status == 9) return 9;
 1042              		.loc 1 296 0
 1043 000a 0928     		cmp	r0, #9
 1044 000c 2AD0     		beq	.L71
 297:PSoC.h        ****     
 298:PSoC.h        ****     char rec_data[25],*ptr;
 299:PSoC.h        ****     int result;
 300:PSoC.h        ****     char cmd[18] = "AT+BLEMODE=9\r\n";
 1045              		.loc 1 300 0
 1046 000e 04AC     		add	r4, sp, #16
 1047 0010 2200     		movs	r2, r4
 1048 0012 164B     		ldr	r3, .L73
 1049 0014 4833     		adds	r3, r3, #72
 1050 0016 43CB     		ldmia	r3!, {r0, r1, r6}
 1051 0018 43C2     		stmia	r2!, {r0, r1, r6}
 1052              	.LVL189:
 1053 001a 1988     		ldrh	r1, [r3]
 1054 001c 1180     		strh	r1, [r2]
 1055 001e 9B78     		ldrb	r3, [r3, #2]
 1056 0020 9370     		strb	r3, [r2, #2]
 1057 0022 0322     		movs	r2, #3
ARM GAS  C:\Users\PRAJWA~1\AppData\Local\Temp\ccedcYia.s 			page 25


 1058 0024 0021     		movs	r1, #0
 1059 0026 1F20     		movs	r0, #31
 1060 0028 6844     		add	r0, r0, sp
 1061 002a FFF7FEFF 		bl	memset
 1062              	.LVL190:
 301:PSoC.h        ****     
 302:PSoC.h        ****     result = sendCmd(p, cmd, rec_data, 25, 100000, 0);
 1063              		.loc 1 302 0
 1064 002e 0023     		movs	r3, #0
 1065 0030 0293     		str	r3, [sp, #8]
 1066 0032 0F4A     		ldr	r2, .L73+4
 1067 0034 0023     		movs	r3, #0
 1068 0036 0092     		str	r2, [sp]
 1069 0038 0193     		str	r3, [sp, #4]
 1070 003a 1923     		movs	r3, #25
 1071 003c 09AA     		add	r2, sp, #36
 1072 003e 2100     		movs	r1, r4
 1073 0040 2800     		movs	r0, r5
 1074 0042 FFF7FEFF 		bl	sendCmd
 1075              	.LVL191:
 303:PSoC.h        ****     ptr = rec_data;
 304:PSoC.h        ****     if (result>=0)
 1076              		.loc 1 304 0
 1077 0046 0028     		cmp	r0, #0
 1078 0048 04DA     		bge	.L72
 305:PSoC.h        ****     {
 306:PSoC.h        ****         while(*ptr != '=')  ptr++;
 307:PSoC.h        ****         ptr++;
 308:PSoC.h        ****         return (atoi(ptr));
 309:PSoC.h        ****     }
 310:PSoC.h        ****     return -1;
 1079              		.loc 1 310 0
 1080 004a 0120     		movs	r0, #1
 1081              	.LVL192:
 1082 004c 4042     		rsbs	r0, r0, #0
 1083 004e 0AE0     		b	.L68
 1084              	.LVL193:
 1085              	.L70:
 306:PSoC.h        ****         ptr++;
 1086              		.loc 1 306 0 discriminator 2
 1087 0050 0130     		adds	r0, r0, #1
 1088              	.LVL194:
 1089 0052 00E0     		b	.L69
 1090              	.LVL195:
 1091              	.L72:
 1092 0054 09A8     		add	r0, sp, #36
 1093              	.LVL196:
 1094              	.L69:
 306:PSoC.h        ****         ptr++;
 1095              		.loc 1 306 0 is_stmt 0 discriminator 1
 1096 0056 0378     		ldrb	r3, [r0]
 1097 0058 3D2B     		cmp	r3, #61
 1098 005a F9D1     		bne	.L70
 307:PSoC.h        ****         return (atoi(ptr));
 1099              		.loc 1 307 0 is_stmt 1
 1100 005c 0130     		adds	r0, r0, #1
 1101              	.LVL197:
ARM GAS  C:\Users\PRAJWA~1\AppData\Local\Temp\ccedcYia.s 			page 26


 308:PSoC.h        ****     }
 1102              		.loc 1 308 0
 1103 005e FFF7FEFF 		bl	atoi
 1104              	.LVL198:
 1105 0062 00E0     		b	.L68
 1106              	.LVL199:
 1107              	.L71:
 296:PSoC.h        ****     
 1108              		.loc 1 296 0
 1109 0064 0920     		movs	r0, #9
 1110              	.LVL200:
 1111              	.L68:
 311:PSoC.h        **** }
 1112              		.loc 1 311 0
 1113 0066 10B0     		add	sp, sp, #64
 1114              		@ sp needed
 1115              	.LVL201:
 1116 0068 70BD     		pop	{r4, r5, r6, pc}
 1117              	.L74:
 1118 006a C046     		.align	2
 1119              	.L73:
 1120 006c 40000000 		.word	.LANCHOR0
 1121 0070 A0860100 		.word	100000
 1122              		.cfi_endproc
 1123              	.LFE44:
 1124              		.size	ble_OFF, .-ble_OFF
 1125              		.section	.text.bleON_host,"ax",%progbits
 1126              		.align	2
 1127              		.global	bleON_host
 1128              		.code	16
 1129              		.thumb_func
 1130              		.type	bleON_host, %function
 1131              	bleON_host:
 1132              	.LFB45:
 312:PSoC.h        **** 
 313:PSoC.h        **** int bleON_host(struct PSC_McM_6_00 *p)
 314:PSoC.h        **** {
 1133              		.loc 1 314 0
 1134              		.cfi_startproc
 1135              		@ args = 0, pretend = 0, frame = 48
 1136              		@ frame_needed = 0, uses_anonymous_args = 0
 1137              	.LVL202:
 1138 0000 70B5     		push	{r4, r5, r6, lr}
 1139              		.cfi_def_cfa_offset 16
 1140              		.cfi_offset 4, -16
 1141              		.cfi_offset 5, -12
 1142              		.cfi_offset 6, -8
 1143              		.cfi_offset 14, -4
 1144 0002 90B0     		sub	sp, sp, #64
 1145              		.cfi_def_cfa_offset 80
 1146 0004 0500     		movs	r5, r0
 315:PSoC.h        ****     int status;
 316:PSoC.h        ****     status = ble_status(p);
 1147              		.loc 1 316 0
 1148 0006 FFF7FEFF 		bl	ble_status
 1149              	.LVL203:
 317:PSoC.h        ****     if (status == 1) return 1;
ARM GAS  C:\Users\PRAJWA~1\AppData\Local\Temp\ccedcYia.s 			page 27


 1150              		.loc 1 317 0
 1151 000a 0128     		cmp	r0, #1
 1152 000c 2AD0     		beq	.L79
 318:PSoC.h        ****     
 319:PSoC.h        ****     char rec_data[25],*ptr;
 320:PSoC.h        ****     int result;
 321:PSoC.h        ****     char cmd[18] = "AT+BLEMODE=1\r\n";
 1153              		.loc 1 321 0
 1154 000e 04AC     		add	r4, sp, #16
 1155 0010 2200     		movs	r2, r4
 1156 0012 164B     		ldr	r3, .L81
 1157 0014 5C33     		adds	r3, r3, #92
 1158 0016 43CB     		ldmia	r3!, {r0, r1, r6}
 1159 0018 43C2     		stmia	r2!, {r0, r1, r6}
 1160              	.LVL204:
 1161 001a 1988     		ldrh	r1, [r3]
 1162 001c 1180     		strh	r1, [r2]
 1163 001e 9B78     		ldrb	r3, [r3, #2]
 1164 0020 9370     		strb	r3, [r2, #2]
 1165 0022 0322     		movs	r2, #3
 1166 0024 0021     		movs	r1, #0
 1167 0026 1F20     		movs	r0, #31
 1168 0028 6844     		add	r0, r0, sp
 1169 002a FFF7FEFF 		bl	memset
 1170              	.LVL205:
 322:PSoC.h        ****     
 323:PSoC.h        ****     result = sendCmd(p, cmd, rec_data, 100, 1000000, 0);
 1171              		.loc 1 323 0
 1172 002e 0023     		movs	r3, #0
 1173 0030 0293     		str	r3, [sp, #8]
 1174 0032 0F4A     		ldr	r2, .L81+4
 1175 0034 0023     		movs	r3, #0
 1176 0036 0092     		str	r2, [sp]
 1177 0038 0193     		str	r3, [sp, #4]
 1178 003a 6423     		movs	r3, #100
 1179 003c 09AA     		add	r2, sp, #36
 1180 003e 2100     		movs	r1, r4
 1181 0040 2800     		movs	r0, r5
 1182 0042 FFF7FEFF 		bl	sendCmd
 1183              	.LVL206:
 324:PSoC.h        ****     ptr = rec_data;
 325:PSoC.h        ****     if (result>=0)
 1184              		.loc 1 325 0
 1185 0046 0028     		cmp	r0, #0
 1186 0048 04DA     		bge	.L80
 326:PSoC.h        ****     {
 327:PSoC.h        ****         while(*ptr != '=')  ptr++;
 328:PSoC.h        ****         ptr++;
 329:PSoC.h        ****         return (atoi(ptr));
 330:PSoC.h        ****     }
 331:PSoC.h        ****     return -1;
 1187              		.loc 1 331 0
 1188 004a 0120     		movs	r0, #1
 1189              	.LVL207:
 1190 004c 4042     		rsbs	r0, r0, #0
 1191 004e 0AE0     		b	.L76
 1192              	.LVL208:
ARM GAS  C:\Users\PRAJWA~1\AppData\Local\Temp\ccedcYia.s 			page 28


 1193              	.L78:
 327:PSoC.h        ****         ptr++;
 1194              		.loc 1 327 0 discriminator 2
 1195 0050 0130     		adds	r0, r0, #1
 1196              	.LVL209:
 1197 0052 00E0     		b	.L77
 1198              	.LVL210:
 1199              	.L80:
 1200 0054 09A8     		add	r0, sp, #36
 1201              	.LVL211:
 1202              	.L77:
 327:PSoC.h        ****         ptr++;
 1203              		.loc 1 327 0 is_stmt 0 discriminator 1
 1204 0056 0378     		ldrb	r3, [r0]
 1205 0058 3D2B     		cmp	r3, #61
 1206 005a F9D1     		bne	.L78
 328:PSoC.h        ****         return (atoi(ptr));
 1207              		.loc 1 328 0 is_stmt 1
 1208 005c 0130     		adds	r0, r0, #1
 1209              	.LVL212:
 329:PSoC.h        ****     }
 1210              		.loc 1 329 0
 1211 005e FFF7FEFF 		bl	atoi
 1212              	.LVL213:
 1213 0062 00E0     		b	.L76
 1214              	.LVL214:
 1215              	.L79:
 317:PSoC.h        ****     
 1216              		.loc 1 317 0
 1217 0064 0120     		movs	r0, #1
 1218              	.LVL215:
 1219              	.L76:
 332:PSoC.h        **** }
 1220              		.loc 1 332 0
 1221 0066 10B0     		add	sp, sp, #64
 1222              		@ sp needed
 1223              	.LVL216:
 1224 0068 70BD     		pop	{r4, r5, r6, pc}
 1225              	.L82:
 1226 006a C046     		.align	2
 1227              	.L81:
 1228 006c 40000000 		.word	.LANCHOR0
 1229 0070 40420F00 		.word	1000000
 1230              		.cfi_endproc
 1231              	.LFE45:
 1232              		.size	bleON_host, .-bleON_host
 1233              		.section	.text.bleON_slave,"ax",%progbits
 1234              		.align	2
 1235              		.global	bleON_slave
 1236              		.code	16
 1237              		.thumb_func
 1238              		.type	bleON_slave, %function
 1239              	bleON_slave:
 1240              	.LFB46:
 333:PSoC.h        **** 
 334:PSoC.h        **** int bleON_slave(struct PSC_McM_6_00 *p)
 335:PSoC.h        **** {    
ARM GAS  C:\Users\PRAJWA~1\AppData\Local\Temp\ccedcYia.s 			page 29


 1241              		.loc 1 335 0
 1242              		.cfi_startproc
 1243              		@ args = 0, pretend = 0, frame = 48
 1244              		@ frame_needed = 0, uses_anonymous_args = 0
 1245              	.LVL217:
 1246 0000 70B5     		push	{r4, r5, r6, lr}
 1247              		.cfi_def_cfa_offset 16
 1248              		.cfi_offset 4, -16
 1249              		.cfi_offset 5, -12
 1250              		.cfi_offset 6, -8
 1251              		.cfi_offset 14, -4
 1252 0002 90B0     		sub	sp, sp, #64
 1253              		.cfi_def_cfa_offset 80
 1254 0004 0500     		movs	r5, r0
 336:PSoC.h        ****     int status;
 337:PSoC.h        ****     status = ble_status(p);
 1255              		.loc 1 337 0
 1256 0006 FFF7FEFF 		bl	ble_status
 1257              	.LVL218:
 338:PSoC.h        ****     if (status == 0) return 0;
 1258              		.loc 1 338 0
 1259 000a 0028     		cmp	r0, #0
 1260 000c 2AD0     		beq	.L87
 339:PSoC.h        ****     
 340:PSoC.h        ****     char rec_data[25],*ptr;
 341:PSoC.h        ****     int result;
 342:PSoC.h        ****     char cmd[18] = "AT+BLEMODE=0\r\n";
 1261              		.loc 1 342 0
 1262 000e 04AC     		add	r4, sp, #16
 1263 0010 2200     		movs	r2, r4
 1264 0012 164B     		ldr	r3, .L89
 1265 0014 7033     		adds	r3, r3, #112
 1266 0016 43CB     		ldmia	r3!, {r0, r1, r6}
 1267 0018 43C2     		stmia	r2!, {r0, r1, r6}
 1268              	.LVL219:
 1269 001a 1988     		ldrh	r1, [r3]
 1270 001c 1180     		strh	r1, [r2]
 1271 001e 9B78     		ldrb	r3, [r3, #2]
 1272 0020 9370     		strb	r3, [r2, #2]
 1273 0022 0322     		movs	r2, #3
 1274 0024 0021     		movs	r1, #0
 1275 0026 1F20     		movs	r0, #31
 1276 0028 6844     		add	r0, r0, sp
 1277 002a FFF7FEFF 		bl	memset
 1278              	.LVL220:
 343:PSoC.h        ****     
 344:PSoC.h        ****     result = sendCmd(p, cmd, rec_data, 25, 1000000, 0);
 1279              		.loc 1 344 0
 1280 002e 0023     		movs	r3, #0
 1281 0030 0293     		str	r3, [sp, #8]
 1282 0032 0F4A     		ldr	r2, .L89+4
 1283 0034 0023     		movs	r3, #0
 1284 0036 0092     		str	r2, [sp]
 1285 0038 0193     		str	r3, [sp, #4]
 1286 003a 1923     		movs	r3, #25
 1287 003c 09AA     		add	r2, sp, #36
 1288 003e 2100     		movs	r1, r4
ARM GAS  C:\Users\PRAJWA~1\AppData\Local\Temp\ccedcYia.s 			page 30


 1289 0040 2800     		movs	r0, r5
 1290 0042 FFF7FEFF 		bl	sendCmd
 1291              	.LVL221:
 345:PSoC.h        ****     ptr = rec_data;
 346:PSoC.h        ****     if (result>=0)
 1292              		.loc 1 346 0
 1293 0046 0028     		cmp	r0, #0
 1294 0048 04DA     		bge	.L88
 347:PSoC.h        ****     {
 348:PSoC.h        ****         while(*ptr != '=')  ptr++;
 349:PSoC.h        ****         ptr++;
 350:PSoC.h        ****         return(atoi(ptr));
 351:PSoC.h        ****     }
 352:PSoC.h        ****     return -1;
 1295              		.loc 1 352 0
 1296 004a 0120     		movs	r0, #1
 1297              	.LVL222:
 1298 004c 4042     		rsbs	r0, r0, #0
 1299 004e 0AE0     		b	.L84
 1300              	.LVL223:
 1301              	.L86:
 348:PSoC.h        ****         ptr++;
 1302              		.loc 1 348 0 discriminator 2
 1303 0050 0130     		adds	r0, r0, #1
 1304              	.LVL224:
 1305 0052 00E0     		b	.L85
 1306              	.LVL225:
 1307              	.L88:
 1308 0054 09A8     		add	r0, sp, #36
 1309              	.LVL226:
 1310              	.L85:
 348:PSoC.h        ****         ptr++;
 1311              		.loc 1 348 0 is_stmt 0 discriminator 1
 1312 0056 0378     		ldrb	r3, [r0]
 1313 0058 3D2B     		cmp	r3, #61
 1314 005a F9D1     		bne	.L86
 349:PSoC.h        ****         return(atoi(ptr));
 1315              		.loc 1 349 0 is_stmt 1
 1316 005c 0130     		adds	r0, r0, #1
 1317              	.LVL227:
 350:PSoC.h        ****     }
 1318              		.loc 1 350 0
 1319 005e FFF7FEFF 		bl	atoi
 1320              	.LVL228:
 1321 0062 00E0     		b	.L84
 1322              	.LVL229:
 1323              	.L87:
 338:PSoC.h        ****     
 1324              		.loc 1 338 0
 1325 0064 0020     		movs	r0, #0
 1326              	.LVL230:
 1327              	.L84:
 353:PSoC.h        **** }
 1328              		.loc 1 353 0
 1329 0066 10B0     		add	sp, sp, #64
 1330              		@ sp needed
 1331              	.LVL231:
ARM GAS  C:\Users\PRAJWA~1\AppData\Local\Temp\ccedcYia.s 			page 31


 1332 0068 70BD     		pop	{r4, r5, r6, pc}
 1333              	.L90:
 1334 006a C046     		.align	2
 1335              	.L89:
 1336 006c 40000000 		.word	.LANCHOR0
 1337 0070 40420F00 		.word	1000000
 1338              		.cfi_endproc
 1339              	.LFE46:
 1340              		.size	bleON_slave, .-bleON_slave
 1341              		.section	.text.ble_connect,"ax",%progbits
 1342              		.align	2
 1343              		.global	ble_connect
 1344              		.code	16
 1345              		.thumb_func
 1346              		.type	ble_connect, %function
 1347              	ble_connect:
 1348              	.LFB47:
 354:PSoC.h        **** 
 355:PSoC.h        **** int ble_connect(struct PSC_McM_6_00 *p, char *mac){
 1349              		.loc 1 355 0
 1350              		.cfi_startproc
 1351              		@ args = 0, pretend = 0, frame = 144
 1352              		@ frame_needed = 0, uses_anonymous_args = 0
 1353              	.LVL232:
 1354 0000 10B5     		push	{r4, lr}
 1355              		.cfi_def_cfa_offset 8
 1356              		.cfi_offset 4, -8
 1357              		.cfi_offset 14, -4
 1358 0002 A8B0     		sub	sp, sp, #160
 1359              		.cfi_def_cfa_offset 168
 1360 0004 0400     		movs	r4, r0
 1361 0006 0A00     		movs	r2, r1
 356:PSoC.h        ****     int result;
 357:PSoC.h        ****     char rec_data[100];
 358:PSoC.h        ****     char buffer[40];
 359:PSoC.h        ****     
 360:PSoC.h        ****     sprintf(buffer, "AT+BLECONNECT=%s\r\n", mac);
 1362              		.loc 1 360 0
 1363 0008 0B49     		ldr	r1, .L94
 1364              	.LVL233:
 1365 000a 05A8     		add	r0, sp, #20
 1366              	.LVL234:
 1367 000c FFF7FEFF 		bl	sprintf
 1368              	.LVL235:
 361:PSoC.h        ****     result = sendCmd(p, buffer, rec_data, 100, 1000000, 0);
 1369              		.loc 1 361 0
 1370 0010 0023     		movs	r3, #0
 1371 0012 0293     		str	r3, [sp, #8]
 1372 0014 094A     		ldr	r2, .L94+4
 1373 0016 0023     		movs	r3, #0
 1374 0018 0092     		str	r2, [sp]
 1375 001a 0193     		str	r3, [sp, #4]
 1376 001c 6423     		movs	r3, #100
 1377 001e 0FAA     		add	r2, sp, #60
 1378 0020 05A9     		add	r1, sp, #20
 1379 0022 2000     		movs	r0, r4
 1380 0024 FFF7FEFF 		bl	sendCmd
ARM GAS  C:\Users\PRAJWA~1\AppData\Local\Temp\ccedcYia.s 			page 32


 1381              	.LVL236:
 362:PSoC.h        ****     if(result >= 0) return 0;
 1382              		.loc 1 362 0
 1383 0028 0028     		cmp	r0, #0
 1384 002a 01DB     		blt	.L93
 1385 002c 0020     		movs	r0, #0
 1386              	.LVL237:
 1387 002e 01E0     		b	.L92
 1388              	.LVL238:
 1389              	.L93:
 363:PSoC.h        ****     return -1;
 1390              		.loc 1 363 0
 1391 0030 0120     		movs	r0, #1
 1392              	.LVL239:
 1393 0032 4042     		rsbs	r0, r0, #0
 1394              	.L92:
 364:PSoC.h        **** }
 1395              		.loc 1 364 0
 1396 0034 28B0     		add	sp, sp, #160
 1397              		@ sp needed
 1398              	.LVL240:
 1399 0036 10BD     		pop	{r4, pc}
 1400              	.L95:
 1401              		.align	2
 1402              	.L94:
 1403 0038 74000000 		.word	.LC23
 1404 003c 40420F00 		.word	1000000
 1405              		.cfi_endproc
 1406              	.LFE47:
 1407              		.size	ble_connect, .-ble_connect
 1408              		.section	.text.ble_disconnect,"ax",%progbits
 1409              		.align	2
 1410              		.global	ble_disconnect
 1411              		.code	16
 1412              		.thumb_func
 1413              		.type	ble_disconnect, %function
 1414              	ble_disconnect:
 1415              	.LFB48:
 365:PSoC.h        **** 
 366:PSoC.h        **** int ble_disconnect(struct PSC_McM_6_00 *p)
 367:PSoC.h        **** {
 1416              		.loc 1 367 0
 1417              		.cfi_startproc
 1418              		@ args = 0, pretend = 0, frame = 48
 1419              		@ frame_needed = 0, uses_anonymous_args = 0
 1420              	.LVL241:
 1421 0000 F0B5     		push	{r4, r5, r6, r7, lr}
 1422              		.cfi_def_cfa_offset 20
 1423              		.cfi_offset 4, -20
 1424              		.cfi_offset 5, -16
 1425              		.cfi_offset 6, -12
 1426              		.cfi_offset 7, -8
 1427              		.cfi_offset 14, -4
 1428 0002 4F46     		mov	r7, r9
 1429 0004 80B4     		push	{r7}
 1430              		.cfi_def_cfa_offset 24
 1431              		.cfi_offset 9, -24
ARM GAS  C:\Users\PRAJWA~1\AppData\Local\Temp\ccedcYia.s 			page 33


 1432 0006 90B0     		sub	sp, sp, #64
 1433              		.cfi_def_cfa_offset 88
 1434 0008 0590     		str	r0, [sp, #20]
 368:PSoC.h        ****     int result;
 369:PSoC.h        ****     char rec_data[10];
 370:PSoC.h        ****     char cmd1[5] = "+++";
 1435              		.loc 1 370 0
 1436 000a 0BAB     		add	r3, sp, #44
 1437 000c 9946     		mov	r9, r3
 1438 000e 1B4B     		ldr	r3, .L99
 1439 0010 0B93     		str	r3, [sp, #44]
 1440 0012 0024     		movs	r4, #0
 1441 0014 4B46     		mov	r3, r9
 1442 0016 1C71     		strb	r4, [r3, #4]
 371:PSoC.h        ****     char cmd2[18] = "AT+BLEDISCON\r\n";
 1443              		.loc 1 371 0
 1444 0018 06AD     		add	r5, sp, #24
 1445 001a 194B     		ldr	r3, .L99+4
 1446 001c 0433     		adds	r3, r3, #4
 1447 001e 2A00     		movs	r2, r5
 1448 0020 C2CB     		ldmia	r3!, {r1, r6, r7}
 1449 0022 C2C2     		stmia	r2!, {r1, r6, r7}
 1450 0024 1988     		ldrh	r1, [r3]
 1451 0026 1180     		strh	r1, [r2]
 1452 0028 9B78     		ldrb	r3, [r3, #2]
 1453 002a 9370     		strb	r3, [r2, #2]
 1454 002c 0322     		movs	r2, #3
 1455 002e 0021     		movs	r1, #0
 1456 0030 1F23     		movs	r3, #31
 1457 0032 02A8     		add	r0, sp, #8
 1458              	.LVL242:
 1459 0034 8446     		mov	ip, r0
 1460 0036 6344     		add	r3, r3, ip
 1461 0038 1800     		movs	r0, r3
 1462 003a FFF7FEFF 		bl	memset
 1463              	.LVL243:
 372:PSoC.h        ****     
 373:PSoC.h        ****     sendCmd(p, cmd1, rec_data, 10, 100000, 0);
 1464              		.loc 1 373 0
 1465 003e 0294     		str	r4, [sp, #8]
 1466 0040 104E     		ldr	r6, .L99+8
 1467 0042 0027     		movs	r7, #0
 1468 0044 0096     		str	r6, [sp]
 1469 0046 0197     		str	r7, [sp, #4]
 1470 0048 0A23     		movs	r3, #10
 1471 004a 0DAA     		add	r2, sp, #52
 1472 004c 4946     		mov	r1, r9
 1473 004e 0598     		ldr	r0, [sp, #20]
 1474 0050 FFF7FEFF 		bl	sendCmd
 1475              	.LVL244:
 374:PSoC.h        ****     result = sendCmd(p, cmd2, rec_data, 10, 100000, 0);
 1476              		.loc 1 374 0
 1477 0054 0294     		str	r4, [sp, #8]
 1478 0056 0096     		str	r6, [sp]
 1479 0058 0197     		str	r7, [sp, #4]
 1480 005a 0A23     		movs	r3, #10
 1481 005c 0DAA     		add	r2, sp, #52
ARM GAS  C:\Users\PRAJWA~1\AppData\Local\Temp\ccedcYia.s 			page 34


 1482 005e 2900     		movs	r1, r5
 1483 0060 0598     		ldr	r0, [sp, #20]
 1484 0062 FFF7FEFF 		bl	sendCmd
 1485              	.LVL245:
 375:PSoC.h        ****     
 376:PSoC.h        ****     if(result) return 0;
 1486              		.loc 1 376 0
 1487 0066 0028     		cmp	r0, #0
 1488 0068 01D0     		beq	.L98
 1489 006a 0020     		movs	r0, #0
 1490              	.LVL246:
 1491 006c 01E0     		b	.L97
 1492              	.LVL247:
 1493              	.L98:
 377:PSoC.h        ****     return -1;
 1494              		.loc 1 377 0
 1495 006e 0120     		movs	r0, #1
 1496              	.LVL248:
 1497 0070 4042     		rsbs	r0, r0, #0
 1498              	.L97:
 378:PSoC.h        **** }
 1499              		.loc 1 378 0
 1500 0072 10B0     		add	sp, sp, #64
 1501              		@ sp needed
 1502 0074 04BC     		pop	{r2}
 1503 0076 9146     		mov	r9, r2
 1504 0078 F0BD     		pop	{r4, r5, r6, r7, pc}
 1505              	.L100:
 1506 007a C046     		.align	2
 1507              	.L99:
 1508 007c 2B2B2B00 		.word	2829099
 1509 0080 C0000000 		.word	.LANCHOR1
 1510 0084 A0860100 		.word	100000
 1511              		.cfi_endproc
 1512              	.LFE48:
 1513              		.size	ble_disconnect, .-ble_disconnect
 1514              		.section	.text.ble_sendData,"ax",%progbits
 1515              		.align	2
 1516              		.global	ble_sendData
 1517              		.code	16
 1518              		.thumb_func
 1519              		.type	ble_sendData, %function
 1520              	ble_sendData:
 1521              	.LFB49:
 379:PSoC.h        **** 
 380:PSoC.h        **** int ble_sendData(struct PSC_McM_6_00 *p, char *send)
 381:PSoC.h        **** {
 1522              		.loc 1 381 0
 1523              		.cfi_startproc
 1524              		@ args = 0, pretend = 0, frame = 1000
 1525              		@ frame_needed = 0, uses_anonymous_args = 0
 1526              	.LVL249:
 1527 0000 80B5     		push	{r7, lr}
 1528              		.cfi_def_cfa_offset 8
 1529              		.cfi_offset 7, -8
 1530              		.cfi_offset 14, -4
 1531 0002 0C4F     		ldr	r7, .L102
ARM GAS  C:\Users\PRAJWA~1\AppData\Local\Temp\ccedcYia.s 			page 35


 1532 0004 BD44     		add	sp, sp, r7
 1533              		.cfi_def_cfa_offset 1008
 1534 0006 0A00     		movs	r2, r1
 382:PSoC.h        ****     char buffer[1000];
 383:PSoC.h        ****     
 384:PSoC.h        ****     sprintf(buffer, "%s%s", send, "\r\n");
 1535              		.loc 1 384 0
 1536 0008 0B4B     		ldr	r3, .L102+4
 1537 000a 0C49     		ldr	r1, .L102+8
 1538              	.LVL250:
 1539 000c 6846     		mov	r0, sp
 1540              	.LVL251:
 1541 000e FFF7FEFF 		bl	sprintf
 1542              	.LVL252:
 385:PSoC.h        ****     switchTo(BLE);
 1543              		.loc 1 385 0
 1544 0012 0120     		movs	r0, #1
 1545 0014 FFF7FEFF 		bl	switchTo
 1546              	.LVL253:
 386:PSoC.h        ****     UART_UartPutString(buffer);
 1547              		.loc 1 386 0
 1548 0018 6846     		mov	r0, sp
 1549 001a FFF7FEFF 		bl	UART_UartPutString
 1550              	.LVL254:
 387:PSoC.h        ****     delay(1);
 1551              		.loc 1 387 0
 1552 001e 0120     		movs	r0, #1
 1553 0020 FFF7FEFF 		bl	delay
 1554              	.LVL255:
 388:PSoC.h        ****     switchTo(USB);
 1555              		.loc 1 388 0
 1556 0024 0020     		movs	r0, #0
 1557 0026 FFF7FEFF 		bl	switchTo
 1558              	.LVL256:
 389:PSoC.h        ****     return 0;
 390:PSoC.h        **** }
 1559              		.loc 1 390 0
 1560 002a 0020     		movs	r0, #0
 1561 002c FA23     		movs	r3, #250
 1562 002e 9B00     		lsls	r3, r3, #2
 1563 0030 9D44     		add	sp, sp, r3
 1564              		@ sp needed
 1565 0032 80BD     		pop	{r7, pc}
 1566              	.L103:
 1567              		.align	2
 1568              	.L102:
 1569 0034 18FCFFFF 		.word	-1000
 1570 0038 88000000 		.word	.LC27
 1571 003c 8C000000 		.word	.LC29
 1572              		.cfi_endproc
 1573              	.LFE49:
 1574              		.size	ble_sendData, .-ble_sendData
 1575              		.section	.text.WiFi_mac,"ax",%progbits
 1576              		.align	2
 1577              		.global	WiFi_mac
 1578              		.code	16
 1579              		.thumb_func
ARM GAS  C:\Users\PRAJWA~1\AppData\Local\Temp\ccedcYia.s 			page 36


 1580              		.type	WiFi_mac, %function
 1581              	WiFi_mac:
 1582              	.LFB50:
 391:PSoC.h        **** 
 392:PSoC.h        **** //int ble_receiveData(struct PSC_McM_6_00 *p)
 393:PSoC.h        **** //{
 394:PSoC.h        **** //    char rec_data = 0;
 395:PSoC.h        **** //    switchTo(BLE);
 396:PSoC.h        **** //    if(UART_SpiUartGetRxBufferSize() != 0)
 397:PSoC.h        **** //        rec_data = UART_SpiUartReadRxData();
 398:PSoC.h        **** //    delay(1);
 399:PSoC.h        **** //    switchTo(USB);
 400:PSoC.h        **** //    return rec_data;
 401:PSoC.h        **** //}
 402:PSoC.h        **** 
 403:PSoC.h        **** 
 404:PSoC.h        **** 
 405:PSoC.h        **** 
 406:PSoC.h        **** 
 407:PSoC.h        **** int WiFi_mac(struct PSC_McM_6_00 *p, char *mac)
 408:PSoC.h        **** {
 1583              		.loc 1 408 0
 1584              		.cfi_startproc
 1585              		@ args = 0, pretend = 0, frame = 88
 1586              		@ frame_needed = 0, uses_anonymous_args = 0
 1587              	.LVL257:
 1588 0000 F0B5     		push	{r4, r5, r6, r7, lr}
 1589              		.cfi_def_cfa_offset 20
 1590              		.cfi_offset 4, -20
 1591              		.cfi_offset 5, -16
 1592              		.cfi_offset 6, -12
 1593              		.cfi_offset 7, -8
 1594              		.cfi_offset 14, -4
 1595 0002 9BB0     		sub	sp, sp, #108
 1596              		.cfi_def_cfa_offset 128
 1597 0004 0500     		movs	r5, r0
 1598 0006 0C00     		movs	r4, r1
 1599              	.LVL258:
 409:PSoC.h        ****     char rec_data[60],*ptr;
 410:PSoC.h        ****     int result, j=0;
 411:PSoC.h        ****     char cmd[25] = "AT+CIPSTAMAC_DEF?\r\n";
 1600              		.loc 1 411 0
 1601 0008 04AE     		add	r6, sp, #16
 1602 000a 3200     		movs	r2, r6
 1603 000c 184B     		ldr	r3, .L113
 1604 000e 1833     		adds	r3, r3, #24
 1605 0010 83CB     		ldmia	r3!, {r0, r1, r7}
 1606 0012 83C2     		stmia	r2!, {r0, r1, r7}
 1607              	.LVL259:
 1608 0014 03CB     		ldmia	r3!, {r0, r1}
 1609 0016 03C2     		stmia	r2!, {r0, r1}
 1610 0018 0522     		movs	r2, #5
 1611 001a 0021     		movs	r1, #0
 1612 001c 09A8     		add	r0, sp, #36
 1613 001e FFF7FEFF 		bl	memset
 1614              	.LVL260:
 412:PSoC.h        ****     
ARM GAS  C:\Users\PRAJWA~1\AppData\Local\Temp\ccedcYia.s 			page 37


 413:PSoC.h        ****     result = sendCmd(p, cmd, rec_data, 60, 100000, 0);
 1615              		.loc 1 413 0
 1616 0022 0023     		movs	r3, #0
 1617 0024 0293     		str	r3, [sp, #8]
 1618 0026 134A     		ldr	r2, .L113+4
 1619 0028 0023     		movs	r3, #0
 1620 002a 0092     		str	r2, [sp]
 1621 002c 0193     		str	r3, [sp, #4]
 1622 002e 3C23     		movs	r3, #60
 1623 0030 0BAA     		add	r2, sp, #44
 1624 0032 3100     		movs	r1, r6
 1625 0034 2800     		movs	r0, r5
 1626 0036 FFF7FEFF 		bl	sendCmd
 1627              	.LVL261:
 414:PSoC.h        ****     ptr = rec_data;
 415:PSoC.h        ****     if (result>=0)
 1628              		.loc 1 415 0
 1629 003a 0028     		cmp	r0, #0
 1630 003c 02DA     		bge	.L111
 1631 003e 0EE0     		b	.L106
 1632              	.LVL262:
 1633              	.L107:
 416:PSoC.h        ****     {
 417:PSoC.h        ****         while(*ptr != ':')  ptr++;
 1634              		.loc 1 417 0 discriminator 2
 1635 0040 0133     		adds	r3, r3, #1
 1636              	.LVL263:
 1637 0042 00E0     		b	.L105
 1638              	.LVL264:
 1639              	.L111:
 1640 0044 0BAB     		add	r3, sp, #44
 1641              	.LVL265:
 1642              	.L105:
 1643              		.loc 1 417 0 is_stmt 0 discriminator 1
 1644 0046 1A78     		ldrb	r2, [r3]
 1645 0048 3A2A     		cmp	r2, #58
 1646 004a F9D1     		bne	.L107
 418:PSoC.h        ****         ptr++;
 1647              		.loc 1 418 0 is_stmt 1
 1648 004c 0133     		adds	r3, r3, #1
 1649              	.LVL266:
 410:PSoC.h        ****     char cmd[25] = "AT+CIPSTAMAC_DEF?\r\n";
 1650              		.loc 1 410 0
 1651 004e 0021     		movs	r1, #0
 419:PSoC.h        **** 
 420:PSoC.h        ****         while(*ptr != '\r')
 1652              		.loc 1 420 0
 1653 0050 02E0     		b	.L108
 1654              	.LVL267:
 1655              	.L109:
 421:PSoC.h        ****         {
 422:PSoC.h        ****           mac[j] = *ptr;
 1656              		.loc 1 422 0
 1657 0052 6254     		strb	r2, [r4, r1]
 423:PSoC.h        ****           j++; ptr++;
 1658              		.loc 1 423 0
 1659 0054 0131     		adds	r1, r1, #1
ARM GAS  C:\Users\PRAJWA~1\AppData\Local\Temp\ccedcYia.s 			page 38


 1660              	.LVL268:
 1661 0056 0133     		adds	r3, r3, #1
 1662              	.LVL269:
 1663              	.L108:
 420:PSoC.h        ****         {
 1664              		.loc 1 420 0
 1665 0058 1A78     		ldrb	r2, [r3]
 1666 005a 0D2A     		cmp	r2, #13
 1667 005c F9D1     		bne	.L109
 1668              	.LVL270:
 1669              	.L106:
 424:PSoC.h        ****         }
 425:PSoC.h        ****     }
 426:PSoC.h        ****     if(result>=0)  return 0;
 1670              		.loc 1 426 0
 1671 005e 0028     		cmp	r0, #0
 1672 0060 01DB     		blt	.L112
 1673 0062 0020     		movs	r0, #0
 1674              	.LVL271:
 1675 0064 01E0     		b	.L110
 1676              	.LVL272:
 1677              	.L112:
 427:PSoC.h        ****     return -1;
 1678              		.loc 1 427 0
 1679 0066 0120     		movs	r0, #1
 1680              	.LVL273:
 1681 0068 4042     		rsbs	r0, r0, #0
 1682              	.L110:
 428:PSoC.h        **** }
 1683              		.loc 1 428 0
 1684 006a 1BB0     		add	sp, sp, #108
 1685              		@ sp needed
 1686              	.LVL274:
 1687              	.LVL275:
 1688 006c F0BD     		pop	{r4, r5, r6, r7, pc}
 1689              	.L114:
 1690 006e C046     		.align	2
 1691              	.L113:
 1692 0070 C0000000 		.word	.LANCHOR1
 1693 0074 A0860100 		.word	100000
 1694              		.cfi_endproc
 1695              	.LFE50:
 1696              		.size	WiFi_mac, .-WiFi_mac
 1697              		.section	.text.WiFi_status,"ax",%progbits
 1698              		.align	2
 1699              		.global	WiFi_status
 1700              		.code	16
 1701              		.thumb_func
 1702              		.type	WiFi_status, %function
 1703              	WiFi_status:
 1704              	.LFB51:
 429:PSoC.h        **** 
 430:PSoC.h        **** int WiFi_status(struct PSC_McM_6_00 *p)
 431:PSoC.h        **** {    
 1705              		.loc 1 431 0
 1706              		.cfi_startproc
 1707              		@ args = 0, pretend = 0, frame = 48
ARM GAS  C:\Users\PRAJWA~1\AppData\Local\Temp\ccedcYia.s 			page 39


 1708              		@ frame_needed = 0, uses_anonymous_args = 0
 1709              	.LVL276:
 1710 0000 70B5     		push	{r4, r5, r6, lr}
 1711              		.cfi_def_cfa_offset 16
 1712              		.cfi_offset 4, -16
 1713              		.cfi_offset 5, -12
 1714              		.cfi_offset 6, -8
 1715              		.cfi_offset 14, -4
 1716 0002 90B0     		sub	sp, sp, #64
 1717              		.cfi_def_cfa_offset 80
 1718 0004 0500     		movs	r5, r0
 432:PSoC.h        ****     uint8_t result;
 433:PSoC.h        ****     char rec_data[25],*ptr;
 434:PSoC.h        ****     char cmd[15] = "AT+WMODE?\r\n";
 1719              		.loc 1 434 0
 1720 0006 05AC     		add	r4, sp, #20
 1721 0008 2000     		movs	r0, r4
 1722              	.LVL277:
 1723 000a 114B     		ldr	r3, .L118
 1724 000c 3433     		adds	r3, r3, #52
 1725 000e 46CB     		ldmia	r3!, {r1, r2, r6}
 1726 0010 46C0     		stmia	r0!, {r1, r2, r6}
 1727 0012 0322     		movs	r2, #3
 1728 0014 0021     		movs	r1, #0
 1729 0016 FFF7FEFF 		bl	memset
 1730              	.LVL278:
 435:PSoC.h        **** 
 436:PSoC.h        ****     UART_UartPutString("0: WiFi is OFF.\n1: WiFi is configured as STA.\n2: WiFi is configured AP.\n
 1731              		.loc 1 436 0
 1732 001a 0E48     		ldr	r0, .L118+4
 1733 001c FFF7FEFF 		bl	UART_UartPutString
 1734              	.LVL279:
 437:PSoC.h        ****     
 438:PSoC.h        ****     result = sendCmd(p, cmd, rec_data, 25, 100000, 0);
 1735              		.loc 1 438 0
 1736 0020 0023     		movs	r3, #0
 1737 0022 0293     		str	r3, [sp, #8]
 1738 0024 0C4A     		ldr	r2, .L118+8
 1739 0026 0023     		movs	r3, #0
 1740 0028 0092     		str	r2, [sp]
 1741 002a 0193     		str	r3, [sp, #4]
 1742 002c 1923     		movs	r3, #25
 1743 002e 09AA     		add	r2, sp, #36
 1744 0030 2100     		movs	r1, r4
 1745 0032 2800     		movs	r0, r5
 1746 0034 FFF7FEFF 		bl	sendCmd
 1747              	.LVL280:
 439:PSoC.h        ****     ptr = rec_data;
 1748              		.loc 1 439 0
 1749 0038 09A8     		add	r0, sp, #36
 1750              	.LVL281:
 440:PSoC.h        ****     if (result>=0)
 441:PSoC.h        ****     {
 442:PSoC.h        ****         while(*ptr != ':')  ptr++;
 1751              		.loc 1 442 0
 1752 003a 00E0     		b	.L116
 1753              	.L117:
ARM GAS  C:\Users\PRAJWA~1\AppData\Local\Temp\ccedcYia.s 			page 40


 1754              		.loc 1 442 0 is_stmt 0 discriminator 2
 1755 003c 0130     		adds	r0, r0, #1
 1756              	.LVL282:
 1757              	.L116:
 1758              		.loc 1 442 0 discriminator 1
 1759 003e 0378     		ldrb	r3, [r0]
 1760 0040 3A2B     		cmp	r3, #58
 1761 0042 FBD1     		bne	.L117
 443:PSoC.h        ****         ptr++;
 1762              		.loc 1 443 0 is_stmt 1
 1763 0044 0130     		adds	r0, r0, #1
 1764              	.LVL283:
 444:PSoC.h        ****         return (atoi(ptr));
 1765              		.loc 1 444 0
 1766 0046 FFF7FEFF 		bl	atoi
 1767              	.LVL284:
 445:PSoC.h        ****     }
 446:PSoC.h        ****     return -1;
 447:PSoC.h        **** }
 1768              		.loc 1 447 0
 1769 004a 10B0     		add	sp, sp, #64
 1770              		@ sp needed
 1771              	.LVL285:
 1772 004c 70BD     		pop	{r4, r5, r6, pc}
 1773              	.L119:
 1774 004e C046     		.align	2
 1775              	.L118:
 1776 0050 C0000000 		.word	.LANCHOR1
 1777 0054 94000000 		.word	.LC35
 1778 0058 A0860100 		.word	100000
 1779              		.cfi_endproc
 1780              	.LFE51:
 1781              		.size	WiFi_status, .-WiFi_status
 1782              		.section	.text.WiFi_OFF,"ax",%progbits
 1783              		.align	2
 1784              		.global	WiFi_OFF
 1785              		.code	16
 1786              		.thumb_func
 1787              		.type	WiFi_OFF, %function
 1788              	WiFi_OFF:
 1789              	.LFB52:
 448:PSoC.h        **** 
 449:PSoC.h        **** int WiFi_OFF(struct PSC_McM_6_00 *p)
 450:PSoC.h        **** {    
 1790              		.loc 1 450 0
 1791              		.cfi_startproc
 1792              		@ args = 0, pretend = 0, frame = 72
 1793              		@ frame_needed = 0, uses_anonymous_args = 0
 1794              	.LVL286:
 1795 0000 F0B5     		push	{r4, r5, r6, r7, lr}
 1796              		.cfi_def_cfa_offset 20
 1797              		.cfi_offset 4, -20
 1798              		.cfi_offset 5, -16
 1799              		.cfi_offset 6, -12
 1800              		.cfi_offset 7, -8
 1801              		.cfi_offset 14, -4
 1802 0002 97B0     		sub	sp, sp, #92
ARM GAS  C:\Users\PRAJWA~1\AppData\Local\Temp\ccedcYia.s 			page 41


 1803              		.cfi_def_cfa_offset 112
 1804 0004 0590     		str	r0, [sp, #20]
 451:PSoC.h        ****     char rec_data[30],*ptr;
 452:PSoC.h        ****     int result;
 453:PSoC.h        ****     char cmdRst[10] = "AT+RST\r\n";
 1805              		.loc 1 453 0
 1806 0006 0BAE     		add	r6, sp, #44
 1807 0008 1F4B     		ldr	r3, .L123
 1808 000a 3100     		movs	r1, r6
 1809 000c 1A00     		movs	r2, r3
 1810 000e 4432     		adds	r2, r2, #68
 1811 0010 11CA     		ldmia	r2!, {r0, r4}
 1812 0012 11C1     		stmia	r1!, {r0, r4}
 1813              	.LVL287:
 1814 0014 1278     		ldrb	r2, [r2]
 1815 0016 0A70     		strb	r2, [r1]
 1816 0018 0027     		movs	r7, #0
 1817 001a 7772     		strb	r7, [r6, #9]
 454:PSoC.h        ****     char cmdWoff[18] = "AT+WMODE=0,0\r\n";
 1818              		.loc 1 454 0
 1819 001c 06AC     		add	r4, sp, #24
 1820 001e 2200     		movs	r2, r4
 1821 0020 5033     		adds	r3, r3, #80
 1822 0022 23CB     		ldmia	r3!, {r0, r1, r5}
 1823 0024 23C2     		stmia	r2!, {r0, r1, r5}
 1824 0026 1988     		ldrh	r1, [r3]
 1825 0028 1180     		strh	r1, [r2]
 1826 002a 9B78     		ldrb	r3, [r3, #2]
 1827 002c 9370     		strb	r3, [r2, #2]
 1828 002e 0322     		movs	r2, #3
 1829 0030 0021     		movs	r1, #0
 1830 0032 1F20     		movs	r0, #31
 1831 0034 02AB     		add	r3, sp, #8
 1832 0036 9C46     		mov	ip, r3
 1833 0038 6044     		add	r0, r0, ip
 1834 003a FFF7FEFF 		bl	memset
 1835              	.LVL288:
 455:PSoC.h        ****     
 456:PSoC.h        ****     result = sendCmd(p, cmdRst, rec_data, 30, 10000, 0);
 1836              		.loc 1 456 0
 1837 003e 0297     		str	r7, [sp, #8]
 1838 0040 124A     		ldr	r2, .L123+4
 1839 0042 0023     		movs	r3, #0
 1840 0044 0092     		str	r2, [sp]
 1841 0046 0193     		str	r3, [sp, #4]
 1842 0048 1E23     		movs	r3, #30
 1843 004a 0EAA     		add	r2, sp, #56
 1844 004c 3100     		movs	r1, r6
 1845 004e 0598     		ldr	r0, [sp, #20]
 1846 0050 FFF7FEFF 		bl	sendCmd
 1847              	.LVL289:
 457:PSoC.h        ****     delay(800);
 1848              		.loc 1 457 0
 1849 0054 C820     		movs	r0, #200
 1850 0056 8000     		lsls	r0, r0, #2
 1851 0058 FFF7FEFF 		bl	delay
 1852              	.LVL290:
ARM GAS  C:\Users\PRAJWA~1\AppData\Local\Temp\ccedcYia.s 			page 42


 458:PSoC.h        ****     UART_SpiUartClearRxBuffer();
 1853              		.loc 1 458 0
 1854 005c FFF7FEFF 		bl	UART_SpiUartClearRxBuffer
 1855              	.LVL291:
 459:PSoC.h        ****     result = sendCmd(p, cmdWoff, rec_data, 30, 100000, 0);
 1856              		.loc 1 459 0
 1857 0060 0297     		str	r7, [sp, #8]
 1858 0062 0B4A     		ldr	r2, .L123+8
 1859 0064 0023     		movs	r3, #0
 1860 0066 0092     		str	r2, [sp]
 1861 0068 0193     		str	r3, [sp, #4]
 1862 006a 1E23     		movs	r3, #30
 1863 006c 0EAA     		add	r2, sp, #56
 1864 006e 2100     		movs	r1, r4
 1865 0070 0598     		ldr	r0, [sp, #20]
 1866 0072 FFF7FEFF 		bl	sendCmd
 1867              	.LVL292:
 460:PSoC.h        ****     
 461:PSoC.h        ****     if(result >= 0)  return 0;
 1868              		.loc 1 461 0
 1869 0076 0028     		cmp	r0, #0
 1870 0078 01DB     		blt	.L122
 1871 007a 0020     		movs	r0, #0
 1872              	.LVL293:
 1873 007c 01E0     		b	.L121
 1874              	.LVL294:
 1875              	.L122:
 462:PSoC.h        ****     return -1;    
 1876              		.loc 1 462 0
 1877 007e 0120     		movs	r0, #1
 1878              	.LVL295:
 1879 0080 4042     		rsbs	r0, r0, #0
 1880              	.L121:
 463:PSoC.h        **** }
 1881              		.loc 1 463 0
 1882 0082 17B0     		add	sp, sp, #92
 1883              		@ sp needed
 1884 0084 F0BD     		pop	{r4, r5, r6, r7, pc}
 1885              	.L124:
 1886 0086 C046     		.align	2
 1887              	.L123:
 1888 0088 C0000000 		.word	.LANCHOR1
 1889 008c 10270000 		.word	10000
 1890 0090 A0860100 		.word	100000
 1891              		.cfi_endproc
 1892              	.LFE52:
 1893              		.size	WiFi_OFF, .-WiFi_OFF
 1894              		.section	.text.WiFiON_STA,"ax",%progbits
 1895              		.align	2
 1896              		.global	WiFiON_STA
 1897              		.code	16
 1898              		.thumb_func
 1899              		.type	WiFiON_STA, %function
 1900              	WiFiON_STA:
 1901              	.LFB53:
 464:PSoC.h        **** 
 465:PSoC.h        **** int WiFiON_STA(struct PSC_McM_6_00 *p)
ARM GAS  C:\Users\PRAJWA~1\AppData\Local\Temp\ccedcYia.s 			page 43


 466:PSoC.h        **** {    
 1902              		.loc 1 466 0
 1903              		.cfi_startproc
 1904              		@ args = 0, pretend = 0, frame = 48
 1905              		@ frame_needed = 0, uses_anonymous_args = 0
 1906              	.LVL296:
 1907 0000 70B5     		push	{r4, r5, r6, lr}
 1908              		.cfi_def_cfa_offset 16
 1909              		.cfi_offset 4, -16
 1910              		.cfi_offset 5, -12
 1911              		.cfi_offset 6, -8
 1912              		.cfi_offset 14, -4
 1913 0002 90B0     		sub	sp, sp, #64
 1914              		.cfi_def_cfa_offset 80
 1915 0004 0500     		movs	r5, r0
 467:PSoC.h        ****     char rec_data[25],*ptr;
 468:PSoC.h        ****     int result;
 469:PSoC.h        ****     char cmd[18] = "AT+WMODE=1,0\r\n";
 1916              		.loc 1 469 0
 1917 0006 04AC     		add	r4, sp, #16
 1918 0008 2200     		movs	r2, r4
 1919 000a 154B     		ldr	r3, .L130
 1920 000c 6433     		adds	r3, r3, #100
 1921 000e 43CB     		ldmia	r3!, {r0, r1, r6}
 1922 0010 43C2     		stmia	r2!, {r0, r1, r6}
 1923              	.LVL297:
 1924 0012 1988     		ldrh	r1, [r3]
 1925 0014 1180     		strh	r1, [r2]
 1926 0016 9B78     		ldrb	r3, [r3, #2]
 1927 0018 9370     		strb	r3, [r2, #2]
 1928 001a 0322     		movs	r2, #3
 1929 001c 0021     		movs	r1, #0
 1930 001e 1F20     		movs	r0, #31
 1931 0020 6844     		add	r0, r0, sp
 1932 0022 FFF7FEFF 		bl	memset
 1933              	.LVL298:
 470:PSoC.h        ****     
 471:PSoC.h        ****     result = sendCmd(p, cmd, rec_data, 25, 100000, 0);
 1934              		.loc 1 471 0
 1935 0026 0023     		movs	r3, #0
 1936 0028 0293     		str	r3, [sp, #8]
 1937 002a 0E4A     		ldr	r2, .L130+4
 1938 002c 0023     		movs	r3, #0
 1939 002e 0092     		str	r2, [sp]
 1940 0030 0193     		str	r3, [sp, #4]
 1941 0032 1923     		movs	r3, #25
 1942 0034 09AA     		add	r2, sp, #36
 1943 0036 2100     		movs	r1, r4
 1944 0038 2800     		movs	r0, r5
 1945 003a FFF7FEFF 		bl	sendCmd
 1946              	.LVL299:
 472:PSoC.h        ****     ptr = rec_data;
 473:PSoC.h        ****     if (result>=0)
 1947              		.loc 1 473 0
 1948 003e 0028     		cmp	r0, #0
 1949 0040 04DA     		bge	.L129
 474:PSoC.h        ****     {
ARM GAS  C:\Users\PRAJWA~1\AppData\Local\Temp\ccedcYia.s 			page 44


 475:PSoC.h        ****         while(*ptr != ',')  ptr++;
 476:PSoC.h        ****         ptr--;
 477:PSoC.h        ****         return (atoi(ptr));
 478:PSoC.h        ****     }
 479:PSoC.h        ****     return -1;   
 1950              		.loc 1 479 0
 1951 0042 0120     		movs	r0, #1
 1952              	.LVL300:
 1953 0044 4042     		rsbs	r0, r0, #0
 1954 0046 08E0     		b	.L127
 1955              	.LVL301:
 1956              	.L128:
 475:PSoC.h        ****         ptr--;
 1957              		.loc 1 475 0 discriminator 2
 1958 0048 0130     		adds	r0, r0, #1
 1959              	.LVL302:
 1960 004a 00E0     		b	.L126
 1961              	.LVL303:
 1962              	.L129:
 1963 004c 09A8     		add	r0, sp, #36
 1964              	.LVL304:
 1965              	.L126:
 475:PSoC.h        ****         ptr--;
 1966              		.loc 1 475 0 is_stmt 0 discriminator 1
 1967 004e 0378     		ldrb	r3, [r0]
 1968 0050 2C2B     		cmp	r3, #44
 1969 0052 F9D1     		bne	.L128
 476:PSoC.h        ****         return (atoi(ptr));
 1970              		.loc 1 476 0 is_stmt 1
 1971 0054 0138     		subs	r0, r0, #1
 1972              	.LVL305:
 477:PSoC.h        ****     }
 1973              		.loc 1 477 0
 1974 0056 FFF7FEFF 		bl	atoi
 1975              	.LVL306:
 1976              	.L127:
 480:PSoC.h        **** }
 1977              		.loc 1 480 0
 1978 005a 10B0     		add	sp, sp, #64
 1979              		@ sp needed
 1980              	.LVL307:
 1981 005c 70BD     		pop	{r4, r5, r6, pc}
 1982              	.L131:
 1983 005e C046     		.align	2
 1984              	.L130:
 1985 0060 C0000000 		.word	.LANCHOR1
 1986 0064 A0860100 		.word	100000
 1987              		.cfi_endproc
 1988              	.LFE53:
 1989              		.size	WiFiON_STA, .-WiFiON_STA
 1990              		.section	.text.WiFiON_AP,"ax",%progbits
 1991              		.align	2
 1992              		.global	WiFiON_AP
 1993              		.code	16
 1994              		.thumb_func
 1995              		.type	WiFiON_AP, %function
 1996              	WiFiON_AP:
ARM GAS  C:\Users\PRAJWA~1\AppData\Local\Temp\ccedcYia.s 			page 45


 1997              	.LFB54:
 481:PSoC.h        **** 
 482:PSoC.h        **** int WiFiON_AP(struct PSC_McM_6_00 *p)
 483:PSoC.h        **** {    
 1998              		.loc 1 483 0
 1999              		.cfi_startproc
 2000              		@ args = 0, pretend = 0, frame = 48
 2001              		@ frame_needed = 0, uses_anonymous_args = 0
 2002              	.LVL308:
 2003 0000 70B5     		push	{r4, r5, r6, lr}
 2004              		.cfi_def_cfa_offset 16
 2005              		.cfi_offset 4, -16
 2006              		.cfi_offset 5, -12
 2007              		.cfi_offset 6, -8
 2008              		.cfi_offset 14, -4
 2009 0002 90B0     		sub	sp, sp, #64
 2010              		.cfi_def_cfa_offset 80
 2011 0004 0500     		movs	r5, r0
 484:PSoC.h        ****     char rec_data[25],*ptr;
 485:PSoC.h        ****     int result;
 486:PSoC.h        ****     char cmd[18] = "AT+WMODE=2,0\r\n";
 2012              		.loc 1 486 0
 2013 0006 04AC     		add	r4, sp, #16
 2014 0008 2200     		movs	r2, r4
 2015 000a 154B     		ldr	r3, .L137
 2016 000c 7833     		adds	r3, r3, #120
 2017 000e 43CB     		ldmia	r3!, {r0, r1, r6}
 2018 0010 43C2     		stmia	r2!, {r0, r1, r6}
 2019              	.LVL309:
 2020 0012 1988     		ldrh	r1, [r3]
 2021 0014 1180     		strh	r1, [r2]
 2022 0016 9B78     		ldrb	r3, [r3, #2]
 2023 0018 9370     		strb	r3, [r2, #2]
 2024 001a 0322     		movs	r2, #3
 2025 001c 0021     		movs	r1, #0
 2026 001e 1F20     		movs	r0, #31
 2027 0020 6844     		add	r0, r0, sp
 2028 0022 FFF7FEFF 		bl	memset
 2029              	.LVL310:
 487:PSoC.h        ****     
 488:PSoC.h        ****     result = sendCmd(p, cmd, rec_data, 25, 100000, 0);
 2030              		.loc 1 488 0
 2031 0026 0023     		movs	r3, #0
 2032 0028 0293     		str	r3, [sp, #8]
 2033 002a 0E4A     		ldr	r2, .L137+4
 2034 002c 0023     		movs	r3, #0
 2035 002e 0092     		str	r2, [sp]
 2036 0030 0193     		str	r3, [sp, #4]
 2037 0032 1923     		movs	r3, #25
 2038 0034 09AA     		add	r2, sp, #36
 2039 0036 2100     		movs	r1, r4
 2040 0038 2800     		movs	r0, r5
 2041 003a FFF7FEFF 		bl	sendCmd
 2042              	.LVL311:
 489:PSoC.h        ****     ptr = rec_data;
 490:PSoC.h        ****     if (result>=0)
 2043              		.loc 1 490 0
ARM GAS  C:\Users\PRAJWA~1\AppData\Local\Temp\ccedcYia.s 			page 46


 2044 003e 0028     		cmp	r0, #0
 2045 0040 04DA     		bge	.L136
 491:PSoC.h        ****     {
 492:PSoC.h        ****         while(*ptr != ',')  ptr++;
 493:PSoC.h        ****         ptr--;
 494:PSoC.h        ****         return (atoi(ptr));
 495:PSoC.h        ****     }
 496:PSoC.h        ****     return -1;   
 2046              		.loc 1 496 0
 2047 0042 0120     		movs	r0, #1
 2048              	.LVL312:
 2049 0044 4042     		rsbs	r0, r0, #0
 2050 0046 08E0     		b	.L134
 2051              	.LVL313:
 2052              	.L135:
 492:PSoC.h        ****         ptr--;
 2053              		.loc 1 492 0 discriminator 2
 2054 0048 0130     		adds	r0, r0, #1
 2055              	.LVL314:
 2056 004a 00E0     		b	.L133
 2057              	.LVL315:
 2058              	.L136:
 2059 004c 09A8     		add	r0, sp, #36
 2060              	.LVL316:
 2061              	.L133:
 492:PSoC.h        ****         ptr--;
 2062              		.loc 1 492 0 is_stmt 0 discriminator 1
 2063 004e 0378     		ldrb	r3, [r0]
 2064 0050 2C2B     		cmp	r3, #44
 2065 0052 F9D1     		bne	.L135
 493:PSoC.h        ****         return (atoi(ptr));
 2066              		.loc 1 493 0 is_stmt 1
 2067 0054 0138     		subs	r0, r0, #1
 2068              	.LVL317:
 494:PSoC.h        ****     }
 2069              		.loc 1 494 0
 2070 0056 FFF7FEFF 		bl	atoi
 2071              	.LVL318:
 2072              	.L134:
 497:PSoC.h        **** }
 2073              		.loc 1 497 0
 2074 005a 10B0     		add	sp, sp, #64
 2075              		@ sp needed
 2076              	.LVL319:
 2077 005c 70BD     		pop	{r4, r5, r6, pc}
 2078              	.L138:
 2079 005e C046     		.align	2
 2080              	.L137:
 2081 0060 C0000000 		.word	.LANCHOR1
 2082 0064 A0860100 		.word	100000
 2083              		.cfi_endproc
 2084              	.LFE54:
 2085              		.size	WiFiON_AP, .-WiFiON_AP
 2086              		.section	.text.WiFiON_AP_STA,"ax",%progbits
 2087              		.align	2
 2088              		.global	WiFiON_AP_STA
 2089              		.code	16
ARM GAS  C:\Users\PRAJWA~1\AppData\Local\Temp\ccedcYia.s 			page 47


 2090              		.thumb_func
 2091              		.type	WiFiON_AP_STA, %function
 2092              	WiFiON_AP_STA:
 2093              	.LFB55:
 498:PSoC.h        **** 
 499:PSoC.h        **** int WiFiON_AP_STA(struct PSC_McM_6_00 *p)
 500:PSoC.h        **** {    
 2094              		.loc 1 500 0
 2095              		.cfi_startproc
 2096              		@ args = 0, pretend = 0, frame = 48
 2097              		@ frame_needed = 0, uses_anonymous_args = 0
 2098              	.LVL320:
 2099 0000 70B5     		push	{r4, r5, r6, lr}
 2100              		.cfi_def_cfa_offset 16
 2101              		.cfi_offset 4, -16
 2102              		.cfi_offset 5, -12
 2103              		.cfi_offset 6, -8
 2104              		.cfi_offset 14, -4
 2105 0002 90B0     		sub	sp, sp, #64
 2106              		.cfi_def_cfa_offset 80
 2107 0004 0500     		movs	r5, r0
 501:PSoC.h        ****     char rec_data[25],*ptr;
 502:PSoC.h        ****     int result;
 503:PSoC.h        ****     char cmd[18] = "AT+WMODE=3,0\r\n";
 2108              		.loc 1 503 0
 2109 0006 04AC     		add	r4, sp, #16
 2110 0008 2200     		movs	r2, r4
 2111 000a 154B     		ldr	r3, .L144
 2112 000c 0C33     		adds	r3, r3, #12
 2113 000e 43CB     		ldmia	r3!, {r0, r1, r6}
 2114 0010 43C2     		stmia	r2!, {r0, r1, r6}
 2115              	.LVL321:
 2116 0012 1988     		ldrh	r1, [r3]
 2117 0014 1180     		strh	r1, [r2]
 2118 0016 9B78     		ldrb	r3, [r3, #2]
 2119 0018 9370     		strb	r3, [r2, #2]
 2120 001a 0322     		movs	r2, #3
 2121 001c 0021     		movs	r1, #0
 2122 001e 1F20     		movs	r0, #31
 2123 0020 6844     		add	r0, r0, sp
 2124 0022 FFF7FEFF 		bl	memset
 2125              	.LVL322:
 504:PSoC.h        ****     
 505:PSoC.h        ****     result = sendCmd(p, cmd, rec_data, 25, 100000, 0);
 2126              		.loc 1 505 0
 2127 0026 0023     		movs	r3, #0
 2128 0028 0293     		str	r3, [sp, #8]
 2129 002a 0E4A     		ldr	r2, .L144+4
 2130 002c 0023     		movs	r3, #0
 2131 002e 0092     		str	r2, [sp]
 2132 0030 0193     		str	r3, [sp, #4]
 2133 0032 1923     		movs	r3, #25
 2134 0034 09AA     		add	r2, sp, #36
 2135 0036 2100     		movs	r1, r4
 2136 0038 2800     		movs	r0, r5
 2137 003a FFF7FEFF 		bl	sendCmd
 2138              	.LVL323:
ARM GAS  C:\Users\PRAJWA~1\AppData\Local\Temp\ccedcYia.s 			page 48


 506:PSoC.h        ****     ptr = rec_data;
 507:PSoC.h        ****     if (result>=0)
 2139              		.loc 1 507 0
 2140 003e 0028     		cmp	r0, #0
 2141 0040 04DA     		bge	.L143
 508:PSoC.h        ****     {
 509:PSoC.h        ****         while(*ptr != ',')  ptr++;
 510:PSoC.h        ****         ptr--;
 511:PSoC.h        ****         return (atoi(ptr));
 512:PSoC.h        ****     }
 513:PSoC.h        ****     return -1;   
 2142              		.loc 1 513 0
 2143 0042 0120     		movs	r0, #1
 2144              	.LVL324:
 2145 0044 4042     		rsbs	r0, r0, #0
 2146 0046 08E0     		b	.L141
 2147              	.LVL325:
 2148              	.L142:
 509:PSoC.h        ****         ptr--;
 2149              		.loc 1 509 0 discriminator 2
 2150 0048 0130     		adds	r0, r0, #1
 2151              	.LVL326:
 2152 004a 00E0     		b	.L140
 2153              	.LVL327:
 2154              	.L143:
 2155 004c 09A8     		add	r0, sp, #36
 2156              	.LVL328:
 2157              	.L140:
 509:PSoC.h        ****         ptr--;
 2158              		.loc 1 509 0 is_stmt 0 discriminator 1
 2159 004e 0378     		ldrb	r3, [r0]
 2160 0050 2C2B     		cmp	r3, #44
 2161 0052 F9D1     		bne	.L142
 510:PSoC.h        ****         return (atoi(ptr));
 2162              		.loc 1 510 0 is_stmt 1
 2163 0054 0138     		subs	r0, r0, #1
 2164              	.LVL329:
 511:PSoC.h        ****     }
 2165              		.loc 1 511 0
 2166 0056 FFF7FEFF 		bl	atoi
 2167              	.LVL330:
 2168              	.L141:
 514:PSoC.h        **** }
 2169              		.loc 1 514 0
 2170 005a 10B0     		add	sp, sp, #64
 2171              		@ sp needed
 2172              	.LVL331:
 2173 005c 70BD     		pop	{r4, r5, r6, pc}
 2174              	.L145:
 2175 005e C046     		.align	2
 2176              	.L144:
 2177 0060 40010000 		.word	.LANCHOR2
 2178 0064 A0860100 		.word	100000
 2179              		.cfi_endproc
 2180              	.LFE55:
 2181              		.size	WiFiON_AP_STA, .-WiFiON_AP_STA
 2182              		.section	.text.WiFi_scan,"ax",%progbits
ARM GAS  C:\Users\PRAJWA~1\AppData\Local\Temp\ccedcYia.s 			page 49


 2183              		.align	2
 2184              		.global	WiFi_scan
 2185              		.code	16
 2186              		.thumb_func
 2187              		.type	WiFi_scan, %function
 2188              	WiFi_scan:
 2189              	.LFB56:
 515:PSoC.h        **** 
 516:PSoC.h        **** int WiFi_scan(struct PSC_McM_6_00 *p, char *rec_data)
 517:PSoC.h        **** {
 2190              		.loc 1 517 0
 2191              		.cfi_startproc
 2192              		@ args = 0, pretend = 0, frame = 16
 2193              		@ frame_needed = 0, uses_anonymous_args = 0
 2194              	.LVL332:
 2195 0000 F0B5     		push	{r4, r5, r6, r7, lr}
 2196              		.cfi_def_cfa_offset 20
 2197              		.cfi_offset 4, -20
 2198              		.cfi_offset 5, -16
 2199              		.cfi_offset 6, -12
 2200              		.cfi_offset 7, -8
 2201              		.cfi_offset 14, -4
 2202 0002 4746     		mov	r7, r8
 2203 0004 80B4     		push	{r7}
 2204              		.cfi_def_cfa_offset 24
 2205              		.cfi_offset 8, -24
 2206 0006 88B0     		sub	sp, sp, #32
 2207              		.cfi_def_cfa_offset 56
 2208 0008 0400     		movs	r4, r0
 2209 000a 0F00     		movs	r7, r1
 2210              	.LVL333:
 518:PSoC.h        ****     int result, i=0;
 519:PSoC.h        ****     char *ptr;
 520:PSoC.h        ****     char cmd[12] = "AT+WSCAN\r\n";
 2211              		.loc 1 520 0
 2212 000c 05AD     		add	r5, sp, #20
 2213 000e 2A00     		movs	r2, r5
 2214 0010 1D4B     		ldr	r3, .L153
 2215 0012 2033     		adds	r3, r3, #32
 2216 0014 03CB     		ldmia	r3!, {r0, r1}
 2217 0016 03C2     		stmia	r2!, {r0, r1}
 2218              	.LVL334:
 2219 0018 1988     		ldrh	r1, [r3]
 2220 001a 1180     		strh	r1, [r2]
 2221 001c 9B78     		ldrb	r3, [r3, #2]
 2222 001e 9370     		strb	r3, [r2, #2]
 2223 0020 0026     		movs	r6, #0
 2224 0022 EE72     		strb	r6, [r5, #11]
 521:PSoC.h        **** 
 522:PSoC.h        ****     UART_UartPutString("Scanning...");
 2225              		.loc 1 522 0
 2226 0024 1948     		ldr	r0, .L153+4
 2227 0026 FFF7FEFF 		bl	UART_UartPutString
 2228              	.LVL335:
 523:PSoC.h        ****     result = sendCmd(p, cmd, rec_data, 1000, 80000000, 0);
 2229              		.loc 1 523 0
 2230 002a 0296     		str	r6, [sp, #8]
ARM GAS  C:\Users\PRAJWA~1\AppData\Local\Temp\ccedcYia.s 			page 50


 2231 002c 184A     		ldr	r2, .L153+8
 2232 002e 0023     		movs	r3, #0
 2233 0030 0092     		str	r2, [sp]
 2234 0032 0193     		str	r3, [sp, #4]
 2235 0034 FA23     		movs	r3, #250
 2236 0036 9B00     		lsls	r3, r3, #2
 2237 0038 3A00     		movs	r2, r7
 2238 003a 2900     		movs	r1, r5
 2239 003c 2000     		movs	r0, r4
 2240 003e FFF7FEFF 		bl	sendCmd
 2241              	.LVL336:
 2242 0042 8046     		mov	r8, r0
 2243              	.LVL337:
 524:PSoC.h        ****     ptr = rec_data;
 2244              		.loc 1 524 0
 2245 0044 3C00     		movs	r4, r7
 2246              	.LVL338:
 525:PSoC.h        **** 
 526:PSoC.h        ****     while(*ptr != '+')  ptr++;
 2247              		.loc 1 526 0
 2248 0046 00E0     		b	.L147
 2249              	.LVL339:
 2250              	.L148:
 2251              		.loc 1 526 0 is_stmt 0 discriminator 2
 2252 0048 0134     		adds	r4, r4, #1
 2253              	.LVL340:
 2254              	.L147:
 2255              		.loc 1 526 0 discriminator 1
 2256 004a 2378     		ldrb	r3, [r4]
 2257 004c 2B2B     		cmp	r3, #43
 2258 004e FBD1     		bne	.L148
 2259 0050 0026     		movs	r6, #0
 2260 0052 03E0     		b	.L149
 2261              	.LVL341:
 2262              	.L150:
 527:PSoC.h        ****     while(strncmp(ptr, "\r\nOK\r\n", 6) != 0)
 528:PSoC.h        ****     {
 529:PSoC.h        ****       rec_data[i] = *ptr;
 2263              		.loc 1 529 0 is_stmt 1
 2264 0054 2378     		ldrb	r3, [r4]
 2265 0056 BB55     		strb	r3, [r7, r6]
 530:PSoC.h        ****       i++; ptr++;
 2266              		.loc 1 530 0
 2267 0058 0136     		adds	r6, r6, #1
 2268              	.LVL342:
 2269 005a 0134     		adds	r4, r4, #1
 2270              	.LVL343:
 2271              	.L149:
 527:PSoC.h        ****     while(strncmp(ptr, "\r\nOK\r\n", 6) != 0)
 2272              		.loc 1 527 0
 2273 005c 0622     		movs	r2, #6
 2274 005e 0D49     		ldr	r1, .L153+12
 2275 0060 2000     		movs	r0, r4
 2276 0062 FFF7FEFF 		bl	strncmp
 2277              	.LVL344:
 2278 0066 051E     		subs	r5, r0, #0
 2279 0068 F4D1     		bne	.L150
ARM GAS  C:\Users\PRAJWA~1\AppData\Local\Temp\ccedcYia.s 			page 51


 531:PSoC.h        ****     }
 532:PSoC.h        ****     rec_data[i] = 0;
 2280              		.loc 1 532 0
 2281 006a BE19     		adds	r6, r7, r6
 2282              	.LVL345:
 2283 006c 0023     		movs	r3, #0
 2284 006e 3370     		strb	r3, [r6]
 533:PSoC.h        ****     UART_UartPutString("Scanning Complete.");
 2285              		.loc 1 533 0
 2286 0070 0948     		ldr	r0, .L153+16
 2287 0072 FFF7FEFF 		bl	UART_UartPutString
 2288              	.LVL346:
 534:PSoC.h        ****     
 535:PSoC.h        ****     if(result >= 0)  return 0;
 2289              		.loc 1 535 0
 2290 0076 4346     		mov	r3, r8
 2291 0078 002B     		cmp	r3, #0
 2292 007a 00DA     		bge	.L151
 2293              	.LVL347:
 536:PSoC.h        ****     return -1;
 2294              		.loc 1 536 0
 2295 007c 013D     		subs	r5, r5, #1
 2296              	.L151:
 537:PSoC.h        **** }
 2297              		.loc 1 537 0
 2298 007e 2800     		movs	r0, r5
 2299 0080 08B0     		add	sp, sp, #32
 2300              		@ sp needed
 2301              	.LVL348:
 2302              	.LVL349:
 2303 0082 04BC     		pop	{r2}
 2304 0084 9046     		mov	r8, r2
 2305 0086 F0BD     		pop	{r4, r5, r6, r7, pc}
 2306              	.L154:
 2307              		.align	2
 2308              	.L153:
 2309 0088 40010000 		.word	.LANCHOR2
 2310 008c FC000000 		.word	.LC48
 2311 0090 00B4C404 		.word	80000000
 2312 0094 00000000 		.word	.LC1
 2313 0098 08010000 		.word	.LC51
 2314              		.cfi_endproc
 2315              	.LFE56:
 2316              		.size	WiFi_scan, .-WiFi_scan
 2317              		.section	.text.WiFi_connect,"ax",%progbits
 2318              		.align	2
 2319              		.global	WiFi_connect
 2320              		.code	16
 2321              		.thumb_func
 2322              		.type	WiFi_connect, %function
 2323              	WiFi_connect:
 2324              	.LFB57:
 538:PSoC.h        **** 
 539:PSoC.h        **** int WiFi_connect(struct PSC_McM_6_00 *p, char* ssid, char* password)
 540:PSoC.h        **** {
 2325              		.loc 1 540 0
 2326              		.cfi_startproc
ARM GAS  C:\Users\PRAJWA~1\AppData\Local\Temp\ccedcYia.s 			page 52


 2327              		@ args = 0, pretend = 0, frame = 304
 2328              		@ frame_needed = 0, uses_anonymous_args = 0
 2329              	.LVL350:
 2330 0000 70B5     		push	{r4, r5, r6, lr}
 2331              		.cfi_def_cfa_offset 16
 2332              		.cfi_offset 4, -16
 2333              		.cfi_offset 5, -12
 2334              		.cfi_offset 6, -8
 2335              		.cfi_offset 14, -4
 2336 0002 D0B0     		sub	sp, sp, #320
 2337              		.cfi_def_cfa_offset 336
 2338 0004 0500     		movs	r5, r0
 2339 0006 0C00     		movs	r4, r1
 2340 0008 1600     		movs	r6, r2
 541:PSoC.h        ****     char buffer[100],rec_data[200];
 542:PSoC.h        ****     int result;
 543:PSoC.h        **** 
 544:PSoC.h        ****     UART_UartPutString("Trying to connect with ");
 2341              		.loc 1 544 0
 2342 000a 1448     		ldr	r0, .L158
 2343              	.LVL351:
 2344 000c FFF7FEFF 		bl	UART_UartPutString
 2345              	.LVL352:
 545:PSoC.h        ****     UART_UartPutString(ssid);UART_UartPutString("...\n");
 2346              		.loc 1 545 0
 2347 0010 2000     		movs	r0, r4
 2348 0012 FFF7FEFF 		bl	UART_UartPutString
 2349              	.LVL353:
 2350 0016 1248     		ldr	r0, .L158+4
 2351 0018 FFF7FEFF 		bl	UART_UartPutString
 2352              	.LVL354:
 546:PSoC.h        ****     sprintf(buffer, "AT+WJAP=%s,%s\r\n", ssid,  password);
 2353              		.loc 1 546 0
 2354 001c 3300     		movs	r3, r6
 2355 001e 2200     		movs	r2, r4
 2356 0020 1049     		ldr	r1, .L158+8
 2357 0022 37A8     		add	r0, sp, #220
 2358 0024 FFF7FEFF 		bl	sprintf
 2359              	.LVL355:
 547:PSoC.h        ****     result = sendCmd(p, buffer, rec_data, 200, 100000000, 0);
 2360              		.loc 1 547 0
 2361 0028 0023     		movs	r3, #0
 2362 002a 0293     		str	r3, [sp, #8]
 2363 002c 0E4A     		ldr	r2, .L158+12
 2364 002e 0023     		movs	r3, #0
 2365 0030 0092     		str	r2, [sp]
 2366 0032 0193     		str	r3, [sp, #4]
 2367 0034 C823     		movs	r3, #200
 2368 0036 05AA     		add	r2, sp, #20
 2369 0038 37A9     		add	r1, sp, #220
 2370 003a 2800     		movs	r0, r5
 2371 003c FFF7FEFF 		bl	sendCmd
 2372              	.LVL356:
 548:PSoC.h        ****     if(result >= 0)  {UART_UartPutString("Connected\n"); return 0;}
 2373              		.loc 1 548 0
 2374 0040 0028     		cmp	r0, #0
 2375 0042 04DB     		blt	.L156
ARM GAS  C:\Users\PRAJWA~1\AppData\Local\Temp\ccedcYia.s 			page 53


 2376              		.loc 1 548 0 is_stmt 0 discriminator 1
 2377 0044 0948     		ldr	r0, .L158+16
 2378              	.LVL357:
 2379 0046 FFF7FEFF 		bl	UART_UartPutString
 2380              	.LVL358:
 2381 004a 0020     		movs	r0, #0
 2382 004c 04E0     		b	.L157
 2383              	.LVL359:
 2384              	.L156:
 549:PSoC.h        ****     UART_UartPutString("Connection failed\n"); return -1;
 2385              		.loc 1 549 0 is_stmt 1
 2386 004e 0848     		ldr	r0, .L158+20
 2387              	.LVL360:
 2388 0050 FFF7FEFF 		bl	UART_UartPutString
 2389              	.LVL361:
 2390 0054 0120     		movs	r0, #1
 2391 0056 4042     		rsbs	r0, r0, #0
 2392              	.L157:
 550:PSoC.h        **** }
 2393              		.loc 1 550 0
 2394 0058 50B0     		add	sp, sp, #320
 2395              		@ sp needed
 2396              	.LVL362:
 2397              	.LVL363:
 2398              	.LVL364:
 2399 005a 70BD     		pop	{r4, r5, r6, pc}
 2400              	.L159:
 2401              		.align	2
 2402              	.L158:
 2403 005c 1C010000 		.word	.LC53
 2404 0060 34010000 		.word	.LC55
 2405 0064 3C010000 		.word	.LC57
 2406 0068 00E1F505 		.word	100000000
 2407 006c 4C010000 		.word	.LC59
 2408 0070 58010000 		.word	.LC61
 2409              		.cfi_endproc
 2410              	.LFE57:
 2411              		.size	WiFi_connect, .-WiFi_connect
 2412              		.section	.text.WiFi_disconnect,"ax",%progbits
 2413              		.align	2
 2414              		.global	WiFi_disconnect
 2415              		.code	16
 2416              		.thumb_func
 2417              		.type	WiFi_disconnect, %function
 2418              	WiFi_disconnect:
 2419              	.LFB58:
 551:PSoC.h        **** 
 552:PSoC.h        **** int WiFi_disconnect(struct PSC_McM_6_00 *p)
 553:PSoC.h        **** {
 2420              		.loc 1 553 0
 2421              		.cfi_startproc
 2422              		@ args = 0, pretend = 0, frame = 216
 2423              		@ frame_needed = 0, uses_anonymous_args = 0
 2424              	.LVL365:
 2425 0000 30B5     		push	{r4, r5, lr}
 2426              		.cfi_def_cfa_offset 12
 2427              		.cfi_offset 4, -12
ARM GAS  C:\Users\PRAJWA~1\AppData\Local\Temp\ccedcYia.s 			page 54


 2428              		.cfi_offset 5, -8
 2429              		.cfi_offset 14, -4
 2430 0002 BBB0     		sub	sp, sp, #236
 2431              		.cfi_def_cfa_offset 248
 554:PSoC.h        ****     int result;
 555:PSoC.h        ****     char rec_data[200];
 556:PSoC.h        ****     char cmd[10] = "AT+RST\r\n";
 2432              		.loc 1 556 0
 2433 0004 05A9     		add	r1, sp, #20
 2434 0006 0A00     		movs	r2, r1
 2435 0008 0C4B     		ldr	r3, .L163
 2436 000a 4433     		adds	r3, r3, #68
 2437 000c 30CB     		ldmia	r3!, {r4, r5}
 2438 000e 30C2     		stmia	r2!, {r4, r5}
 2439 0010 1B78     		ldrb	r3, [r3]
 2440 0012 1370     		strb	r3, [r2]
 2441 0014 0023     		movs	r3, #0
 2442 0016 4B72     		strb	r3, [r1, #9]
 557:PSoC.h        ****     
 558:PSoC.h        ****     result = sendCmd(p, cmd, rec_data, 200, 1000000, 0);
 2443              		.loc 1 558 0
 2444 0018 0293     		str	r3, [sp, #8]
 2445 001a 094A     		ldr	r2, .L163+4
 2446 001c 0023     		movs	r3, #0
 2447 001e 0092     		str	r2, [sp]
 2448 0020 0193     		str	r3, [sp, #4]
 2449 0022 C823     		movs	r3, #200
 2450 0024 08AA     		add	r2, sp, #32
 2451 0026 FFF7FEFF 		bl	sendCmd
 2452              	.LVL366:
 559:PSoC.h        ****     if(result >= 0)  return 0;
 2453              		.loc 1 559 0
 2454 002a 0028     		cmp	r0, #0
 2455 002c 01DB     		blt	.L162
 2456 002e 0020     		movs	r0, #0
 2457              	.LVL367:
 2458 0030 01E0     		b	.L161
 2459              	.LVL368:
 2460              	.L162:
 560:PSoC.h        ****     return -1;
 2461              		.loc 1 560 0
 2462 0032 0120     		movs	r0, #1
 2463              	.LVL369:
 2464 0034 4042     		rsbs	r0, r0, #0
 2465              	.L161:
 561:PSoC.h        **** }
 2466              		.loc 1 561 0
 2467 0036 3BB0     		add	sp, sp, #236
 2468              		@ sp needed
 2469 0038 30BD     		pop	{r4, r5, pc}
 2470              	.L164:
 2471 003a C046     		.align	2
 2472              	.L163:
 2473 003c C0000000 		.word	.LANCHOR1
 2474 0040 40420F00 		.word	1000000
 2475              		.cfi_endproc
 2476              	.LFE58:
ARM GAS  C:\Users\PRAJWA~1\AppData\Local\Temp\ccedcYia.s 			page 55


 2477              		.size	WiFi_disconnect, .-WiFi_disconnect
 2478              		.section	.text.WiFi_whoRu,"ax",%progbits
 2479              		.align	2
 2480              		.global	WiFi_whoRu
 2481              		.code	16
 2482              		.thumb_func
 2483              		.type	WiFi_whoRu, %function
 2484              	WiFi_whoRu:
 2485              	.LFB59:
 562:PSoC.h        **** 
 563:PSoC.h        **** int WiFi_whoRu(struct PSC_McM_6_00 *p, char *ssid)
 564:PSoC.h        **** {
 2486              		.loc 1 564 0
 2487              		.cfi_startproc
 2488              		@ args = 0, pretend = 0, frame = 216
 2489              		@ frame_needed = 0, uses_anonymous_args = 0
 2490              	.LVL370:
 2491 0000 70B5     		push	{r4, r5, r6, lr}
 2492              		.cfi_def_cfa_offset 16
 2493              		.cfi_offset 4, -16
 2494              		.cfi_offset 5, -12
 2495              		.cfi_offset 6, -8
 2496              		.cfi_offset 14, -4
 2497 0002 BAB0     		sub	sp, sp, #232
 2498              		.cfi_def_cfa_offset 248
 2499 0004 0500     		movs	r5, r0
 2500 0006 0C00     		movs	r4, r1
 2501              	.LVL371:
 565:PSoC.h        ****     int result, i=0;
 566:PSoC.h        ****     char rec_data[200], *ptr;
 567:PSoC.h        ****     char cmd[13] = "AT+WJAP?\r\n";
 2502              		.loc 1 567 0
 2503 0008 04AE     		add	r6, sp, #16
 2504 000a 3200     		movs	r2, r6
 2505 000c 1B4B     		ldr	r3, .L174
 2506 000e 2C33     		adds	r3, r3, #44
 2507 0010 03CB     		ldmia	r3!, {r0, r1}
 2508 0012 03C2     		stmia	r2!, {r0, r1}
 2509              	.LVL372:
 2510 0014 1988     		ldrh	r1, [r3]
 2511 0016 1180     		strh	r1, [r2]
 2512 0018 9B78     		ldrb	r3, [r3, #2]
 2513 001a 9370     		strb	r3, [r2, #2]
 2514 001c 0222     		movs	r2, #2
 2515 001e 0021     		movs	r1, #0
 2516 0020 1B20     		movs	r0, #27
 2517 0022 6844     		add	r0, r0, sp
 2518 0024 FFF7FEFF 		bl	memset
 2519              	.LVL373:
 568:PSoC.h        ****     
 569:PSoC.h        ****     result = sendCmd(p, cmd, rec_data, 200, 1000000, 0);
 2520              		.loc 1 569 0
 2521 0028 0023     		movs	r3, #0
 2522 002a 0293     		str	r3, [sp, #8]
 2523 002c 144A     		ldr	r2, .L174+4
 2524 002e 0023     		movs	r3, #0
 2525 0030 0092     		str	r2, [sp]
ARM GAS  C:\Users\PRAJWA~1\AppData\Local\Temp\ccedcYia.s 			page 56


 2526 0032 0193     		str	r3, [sp, #4]
 2527 0034 C823     		movs	r3, #200
 2528 0036 08AA     		add	r2, sp, #32
 2529 0038 3100     		movs	r1, r6
 2530 003a 2800     		movs	r0, r5
 2531 003c FFF7FEFF 		bl	sendCmd
 2532              	.LVL374:
 570:PSoC.h        ****     ptr = rec_data;
 571:PSoC.h        **** 
 572:PSoC.h        ****     if(result >= 0)
 2533              		.loc 1 572 0
 2534 0040 0028     		cmp	r0, #0
 2535 0042 02DA     		bge	.L172
 2536 0044 11E0     		b	.L167
 2537              	.LVL375:
 2538              	.L168:
 573:PSoC.h        ****     {
 574:PSoC.h        ****       while(*ptr != ',')  ptr++;
 2539              		.loc 1 574 0 discriminator 2
 2540 0046 0133     		adds	r3, r3, #1
 2541              	.LVL376:
 2542 0048 00E0     		b	.L166
 2543              	.LVL377:
 2544              	.L172:
 2545 004a 08AB     		add	r3, sp, #32
 2546              	.LVL378:
 2547              	.L166:
 2548              		.loc 1 574 0 is_stmt 0 discriminator 1
 2549 004c 1A78     		ldrb	r2, [r3]
 2550 004e 2C2A     		cmp	r2, #44
 2551 0050 F9D1     		bne	.L168
 575:PSoC.h        ****       ptr++;
 2552              		.loc 1 575 0 is_stmt 1
 2553 0052 0133     		adds	r3, r3, #1
 2554              	.LVL379:
 565:PSoC.h        ****     char rec_data[200], *ptr;
 2555              		.loc 1 565 0
 2556 0054 0021     		movs	r1, #0
 576:PSoC.h        ****       
 577:PSoC.h        ****       while(*ptr != ',')
 2557              		.loc 1 577 0
 2558 0056 02E0     		b	.L169
 2559              	.LVL380:
 2560              	.L170:
 578:PSoC.h        ****       {
 579:PSoC.h        ****         ssid[i] = *ptr;
 2561              		.loc 1 579 0
 2562 0058 6254     		strb	r2, [r4, r1]
 580:PSoC.h        ****         i++; ptr++;
 2563              		.loc 1 580 0
 2564 005a 0131     		adds	r1, r1, #1
 2565              	.LVL381:
 2566 005c 0133     		adds	r3, r3, #1
 2567              	.LVL382:
 2568              	.L169:
 577:PSoC.h        ****       {
 2569              		.loc 1 577 0
ARM GAS  C:\Users\PRAJWA~1\AppData\Local\Temp\ccedcYia.s 			page 57


 2570 005e 1A78     		ldrb	r2, [r3]
 2571 0060 2C2A     		cmp	r2, #44
 2572 0062 F9D1     		bne	.L170
 581:PSoC.h        ****       }
 582:PSoC.h        ****       ssid[i] = 0;
 2573              		.loc 1 582 0
 2574 0064 6118     		adds	r1, r4, r1
 2575              	.LVL383:
 2576 0066 0023     		movs	r3, #0
 2577              	.LVL384:
 2578 0068 0B70     		strb	r3, [r1]
 2579              	.L167:
 583:PSoC.h        ****     }
 584:PSoC.h        ****     
 585:PSoC.h        ****     if(result >= 0)  return 0;
 2580              		.loc 1 585 0
 2581 006a 0028     		cmp	r0, #0
 2582 006c 01DB     		blt	.L173
 2583 006e 0020     		movs	r0, #0
 2584              	.LVL385:
 2585 0070 01E0     		b	.L171
 2586              	.LVL386:
 2587              	.L173:
 586:PSoC.h        ****     return -1;
 2588              		.loc 1 586 0
 2589 0072 0120     		movs	r0, #1
 2590              	.LVL387:
 2591 0074 4042     		rsbs	r0, r0, #0
 2592              	.L171:
 587:PSoC.h        **** }
 2593              		.loc 1 587 0
 2594 0076 3AB0     		add	sp, sp, #232
 2595              		@ sp needed
 2596              	.LVL388:
 2597              	.LVL389:
 2598 0078 70BD     		pop	{r4, r5, r6, pc}
 2599              	.L175:
 2600 007a C046     		.align	2
 2601              	.L174:
 2602 007c 40010000 		.word	.LANCHOR2
 2603 0080 40420F00 		.word	1000000
 2604              		.cfi_endproc
 2605              	.LFE59:
 2606              		.size	WiFi_whoRu, .-WiFi_whoRu
 2607              		.section	.text.WiFi_sendData,"ax",%progbits
 2608              		.align	2
 2609              		.global	WiFi_sendData
 2610              		.code	16
 2611              		.thumb_func
 2612              		.type	WiFi_sendData, %function
 2613              	WiFi_sendData:
 2614              	.LFB60:
 588:PSoC.h        **** 
 589:PSoC.h        **** int WiFi_sendData(struct PSC_McM_6_00 *p, char *trans_type, char *opt, char *host, char *path, int 
 590:PSoC.h        **** {    
 2615              		.loc 1 590 0
 2616              		.cfi_startproc
ARM GAS  C:\Users\PRAJWA~1\AppData\Local\Temp\ccedcYia.s 			page 58


 2617              		@ args = 8, pretend = 0, frame = 408
 2618              		@ frame_needed = 0, uses_anonymous_args = 0
 2619              	.LVL390:
 2620 0000 F0B5     		push	{r4, r5, r6, r7, lr}
 2621              		.cfi_def_cfa_offset 20
 2622              		.cfi_offset 4, -20
 2623              		.cfi_offset 5, -16
 2624              		.cfi_offset 6, -12
 2625              		.cfi_offset 7, -8
 2626              		.cfi_offset 14, -4
 2627 0002 EBB0     		sub	sp, sp, #428
 2628              		.cfi_def_cfa_offset 448
 2629 0004 0590     		str	r0, [sp, #20]
 2630 0006 0D00     		movs	r5, r1
 2631 0008 1400     		movs	r4, r2
 2632 000a 1F00     		movs	r7, r3
 2633              	.LVL391:
 591:PSoC.h        ****     int type, optype, port, result;
 592:PSoC.h        ****     char buffer[200], rec_data[200];
 593:PSoC.h        ****     
 594:PSoC.h        ****     if((strcmp(trans_type,"HTTP")==0)  ||  (strcmp(trans_type,"http")==0)) {type = 1; port = 80 ;}
 595:PSoC.h        ****     if((strcmp(trans_type,"HTTPS")==0) || (strcmp(trans_type,"https")==0)) {type = 2; port = 443;}
 2634              		.loc 1 595 0
 2635 000c 2249     		ldr	r1, .L185
 2636              	.LVL392:
 2637 000e 2800     		movs	r0, r5
 2638              	.LVL393:
 2639 0010 FFF7FEFF 		bl	strcmp
 2640              	.LVL394:
 2641 0014 0028     		cmp	r0, #0
 2642 0016 08D0     		beq	.L180
 2643              		.loc 1 595 0 is_stmt 0 discriminator 2
 2644 0018 2049     		ldr	r1, .L185+4
 2645 001a 2800     		movs	r0, r5
 2646 001c FFF7FEFF 		bl	strcmp
 2647              	.LVL395:
 2648 0020 0028     		cmp	r0, #0
 2649 0022 06D0     		beq	.L181
 2650              		.loc 1 595 0
 2651 0024 5026     		movs	r6, #80
 2652 0026 0125     		movs	r5, #1
 2653              	.LVL396:
 2654 0028 06E0     		b	.L177
 2655              	.LVL397:
 2656              	.L180:
 2657 002a BC26     		movs	r6, #188
 2658 002c FF36     		adds	r6, r6, #255
 2659 002e 0225     		movs	r5, #2
 2660              	.LVL398:
 2661 0030 02E0     		b	.L177
 2662              	.LVL399:
 2663              	.L181:
 2664 0032 BC26     		movs	r6, #188
 2665 0034 FF36     		adds	r6, r6, #255
 2666 0036 0225     		movs	r5, #2
 2667              	.LVL400:
 2668              	.L177:
ARM GAS  C:\Users\PRAJWA~1\AppData\Local\Temp\ccedcYia.s 			page 59


 596:PSoC.h        ****     if((strcmp(opt,"GET")==0)  ||  (strcmp(opt,"get")==0)) optype = 2;
 597:PSoC.h        ****     if((strcmp(opt,"POST")==0) || (strcmp(opt,"post")==0)) optype = 3;
 2669              		.loc 1 597 0 is_stmt 1
 2670 0038 1949     		ldr	r1, .L185+8
 2671 003a 2000     		movs	r0, r4
 2672 003c FFF7FEFF 		bl	strcmp
 2673              	.LVL401:
 2674 0040 0028     		cmp	r0, #0
 2675 0042 07D0     		beq	.L182
 2676              		.loc 1 597 0 is_stmt 0 discriminator 2
 2677 0044 1749     		ldr	r1, .L185+12
 2678 0046 2000     		movs	r0, r4
 2679 0048 FFF7FEFF 		bl	strcmp
 2680              	.LVL402:
 2681 004c 0028     		cmp	r0, #0
 2682 004e 03D0     		beq	.L183
 2683              		.loc 1 597 0
 2684 0050 0223     		movs	r3, #2
 2685 0052 02E0     		b	.L178
 2686              	.L182:
 2687 0054 0323     		movs	r3, #3
 2688 0056 00E0     		b	.L178
 2689              	.L183:
 2690 0058 0323     		movs	r3, #3
 2691              	.L178:
 2692              	.LVL403:
 598:PSoC.h        ****     
 599:PSoC.h        ****     sprintf(buffer, "AT+HTTTPCLIENTLINE=%d,%d,application/json,%s,%d,%s,%d\r\n", type, optype, host
 2693              		.loc 1 599 0 is_stmt 1
 2694 005a 719A     		ldr	r2, [sp, #452]
 2695 005c 0392     		str	r2, [sp, #12]
 2696 005e 709A     		ldr	r2, [sp, #448]
 2697 0060 0292     		str	r2, [sp, #8]
 2698 0062 0196     		str	r6, [sp, #4]
 2699 0064 0097     		str	r7, [sp]
 2700 0066 2A00     		movs	r2, r5
 2701 0068 0F49     		ldr	r1, .L185+16
 2702 006a 38A8     		add	r0, sp, #224
 2703 006c FFF7FEFF 		bl	sprintf
 2704              	.LVL404:
 600:PSoC.h        ****     result = sendCmd(p, buffer, rec_data, 200, 100000000, 0);
 2705              		.loc 1 600 0
 2706 0070 0023     		movs	r3, #0
 2707 0072 0293     		str	r3, [sp, #8]
 2708 0074 0D4A     		ldr	r2, .L185+20
 2709 0076 0023     		movs	r3, #0
 2710 0078 0092     		str	r2, [sp]
 2711 007a 0193     		str	r3, [sp, #4]
 2712 007c C823     		movs	r3, #200
 2713 007e 06AA     		add	r2, sp, #24
 2714 0080 38A9     		add	r1, sp, #224
 2715 0082 0598     		ldr	r0, [sp, #20]
 2716 0084 FFF7FEFF 		bl	sendCmd
 2717              	.LVL405:
 601:PSoC.h        ****     
 602:PSoC.h        ****     if(result>=0)  return 0;
 2718              		.loc 1 602 0
ARM GAS  C:\Users\PRAJWA~1\AppData\Local\Temp\ccedcYia.s 			page 60


 2719 0088 0028     		cmp	r0, #0
 2720 008a 01DB     		blt	.L184
 2721 008c 0020     		movs	r0, #0
 2722              	.LVL406:
 2723 008e 01E0     		b	.L179
 2724              	.LVL407:
 2725              	.L184:
 603:PSoC.h        ****     return -1;
 2726              		.loc 1 603 0
 2727 0090 0120     		movs	r0, #1
 2728              	.LVL408:
 2729 0092 4042     		rsbs	r0, r0, #0
 2730              	.L179:
 604:PSoC.h        **** }
 2731              		.loc 1 604 0
 2732 0094 6BB0     		add	sp, sp, #428
 2733              		@ sp needed
 2734              	.LVL409:
 2735              	.LVL410:
 2736              	.LVL411:
 2737              	.LVL412:
 2738 0096 F0BD     		pop	{r4, r5, r6, r7, pc}
 2739              	.L186:
 2740              		.align	2
 2741              	.L185:
 2742 0098 6C010000 		.word	.LC66
 2743 009c 74010000 		.word	.LC68
 2744 00a0 7C010000 		.word	.LC70
 2745 00a4 84010000 		.word	.LC72
 2746 00a8 8C010000 		.word	.LC74
 2747 00ac 00E1F505 		.word	100000000
 2748              		.cfi_endproc
 2749              	.LFE60:
 2750              		.size	WiFi_sendData, .-WiFi_sendData
 2751              		.section	.text.WiFi_receiveData,"ax",%progbits
 2752              		.align	2
 2753              		.global	WiFi_receiveData
 2754              		.code	16
 2755              		.thumb_func
 2756              		.type	WiFi_receiveData, %function
 2757              	WiFi_receiveData:
 2758              	.LFB61:
 605:PSoC.h        **** 
 606:PSoC.h        **** int WiFi_receiveData(struct PSC_McM_6_00 *p, char *trans_type, char *opt, char *host, char *path, c
 607:PSoC.h        **** {    
 2759              		.loc 1 607 0
 2760              		.cfi_startproc
 2761              		@ args = 8, pretend = 0, frame = 712
 2762              		@ frame_needed = 0, uses_anonymous_args = 0
 2763              	.LVL413:
 2764 0000 F0B5     		push	{r4, r5, r6, r7, lr}
 2765              		.cfi_def_cfa_offset 20
 2766              		.cfi_offset 4, -20
 2767              		.cfi_offset 5, -16
 2768              		.cfi_offset 6, -12
 2769              		.cfi_offset 7, -8
 2770              		.cfi_offset 14, -4
ARM GAS  C:\Users\PRAJWA~1\AppData\Local\Temp\ccedcYia.s 			page 61


 2771 0002 3E4C     		ldr	r4, .L203
 2772 0004 A544     		add	sp, sp, r4
 2773              		.cfi_def_cfa_offset 752
 2774 0006 0590     		str	r0, [sp, #20]
 2775 0008 0E00     		movs	r6, r1
 2776 000a 0492     		str	r2, [sp, #16]
 2777 000c 1F00     		movs	r7, r3
 2778 000e BD9C     		ldr	r4, [sp, #756]
 2779              	.LVL414:
 608:PSoC.h        ****     int type, optype, port, result, i=0, j=0;
 609:PSoC.h        ****     char buffer[200], rec_data[500];
 610:PSoC.h        ****     
 611:PSoC.h        ****     if((strcmp(trans_type,"HTTP")==0)  ||  (strcmp(trans_type,"http")==0)) {type = 1; port = 80 ;}
 612:PSoC.h        ****     if((strcmp(trans_type,"HTTPS")==0) || (strcmp(trans_type,"https")==0)) {type = 2; port = 443;}
 2780              		.loc 1 612 0
 2781 0010 3B49     		ldr	r1, .L203+4
 2782              	.LVL415:
 2783 0012 3000     		movs	r0, r6
 2784              	.LVL416:
 2785 0014 FFF7FEFF 		bl	strcmp
 2786              	.LVL417:
 2787 0018 0028     		cmp	r0, #0
 2788 001a 08D0     		beq	.L198
 2789              		.loc 1 612 0 is_stmt 0 discriminator 2
 2790 001c 3949     		ldr	r1, .L203+8
 2791 001e 3000     		movs	r0, r6
 2792 0020 FFF7FEFF 		bl	strcmp
 2793              	.LVL418:
 2794 0024 0028     		cmp	r0, #0
 2795 0026 06D0     		beq	.L199
 2796              		.loc 1 612 0
 2797 0028 5025     		movs	r5, #80
 2798 002a 0126     		movs	r6, #1
 2799              	.LVL419:
 2800 002c 06E0     		b	.L188
 2801              	.LVL420:
 2802              	.L198:
 2803 002e BC25     		movs	r5, #188
 2804 0030 FF35     		adds	r5, r5, #255
 2805 0032 0226     		movs	r6, #2
 2806              	.LVL421:
 2807 0034 02E0     		b	.L188
 2808              	.LVL422:
 2809              	.L199:
 2810 0036 BC25     		movs	r5, #188
 2811 0038 FF35     		adds	r5, r5, #255
 2812 003a 0226     		movs	r6, #2
 2813              	.LVL423:
 2814              	.L188:
 613:PSoC.h        ****     if((strcmp(opt,"GET")==0)  ||  (strcmp(opt,"get")==0)) optype = 2;
 614:PSoC.h        ****     if((strcmp(opt,"POST")==0) || (strcmp(opt,"post")==0)) optype = 3;
 2815              		.loc 1 614 0 is_stmt 1
 2816 003c 3249     		ldr	r1, .L203+12
 2817 003e 0498     		ldr	r0, [sp, #16]
 2818 0040 FFF7FEFF 		bl	strcmp
 2819              	.LVL424:
 2820 0044 0028     		cmp	r0, #0
ARM GAS  C:\Users\PRAJWA~1\AppData\Local\Temp\ccedcYia.s 			page 62


 2821 0046 07D0     		beq	.L200
 2822              		.loc 1 614 0 is_stmt 0 discriminator 2
 2823 0048 3049     		ldr	r1, .L203+16
 2824 004a 0498     		ldr	r0, [sp, #16]
 2825 004c FFF7FEFF 		bl	strcmp
 2826              	.LVL425:
 2827 0050 0028     		cmp	r0, #0
 2828 0052 03D0     		beq	.L201
 2829              		.loc 1 614 0
 2830 0054 0223     		movs	r3, #2
 2831 0056 02E0     		b	.L189
 2832              	.L200:
 2833 0058 0323     		movs	r3, #3
 2834 005a 00E0     		b	.L189
 2835              	.L201:
 2836 005c 0323     		movs	r3, #3
 2837              	.L189:
 2838              	.LVL426:
 615:PSoC.h        ****     
 616:PSoC.h        ****     sprintf(buffer, "AT+HTTTPCLIENTLINE=%d,%d,application/json,%s,%d,%s\r\n", type, optype, host, p
 2839              		.loc 1 616 0 is_stmt 1
 2840 005e BC9A     		ldr	r2, [sp, #752]
 2841 0060 0292     		str	r2, [sp, #8]
 2842 0062 0195     		str	r5, [sp, #4]
 2843 0064 0097     		str	r7, [sp]
 2844 0066 3200     		movs	r2, r6
 2845 0068 2949     		ldr	r1, .L203+20
 2846 006a 84A8     		add	r0, sp, #528
 2847 006c FFF7FEFF 		bl	sprintf
 2848              	.LVL427:
 617:PSoC.h        ****     result = sendCmd(p, buffer, rec_data, 500, 10000000, 0);
 2849              		.loc 1 617 0
 2850 0070 0023     		movs	r3, #0
 2851 0072 0293     		str	r3, [sp, #8]
 2852 0074 274A     		ldr	r2, .L203+24
 2853 0076 0023     		movs	r3, #0
 2854 0078 0092     		str	r2, [sp]
 2855 007a 0193     		str	r3, [sp, #4]
 2856 007c FA23     		movs	r3, #250
 2857 007e 5B00     		lsls	r3, r3, #1
 2858 0080 07AA     		add	r2, sp, #28
 2859 0082 84A9     		add	r1, sp, #528
 2860 0084 0598     		ldr	r0, [sp, #20]
 2861 0086 FFF7FEFF 		bl	sendCmd
 2862              	.LVL428:
 608:PSoC.h        ****     char buffer[200], rec_data[500];
 2863              		.loc 1 608 0
 2864 008a 0023     		movs	r3, #0
 618:PSoC.h        **** 
 619:PSoC.h        ****     while(rec_data[i] != '{')  i++;
 2865              		.loc 1 619 0
 2866 008c 00E0     		b	.L190
 2867              	.LVL429:
 2868              	.L191:
 2869              		.loc 1 619 0 is_stmt 0 discriminator 2
 2870 008e 0133     		adds	r3, r3, #1
 2871              	.LVL430:
ARM GAS  C:\Users\PRAJWA~1\AppData\Local\Temp\ccedcYia.s 			page 63


 2872              	.L190:
 2873              		.loc 1 619 0 discriminator 1
 2874 0090 07AA     		add	r2, sp, #28
 2875 0092 D25C     		ldrb	r2, [r2, r3]
 2876 0094 7B2A     		cmp	r2, #123
 2877 0096 FAD1     		bne	.L191
 2878 0098 0022     		movs	r2, #0
 2879 009a 09E0     		b	.L192
 2880              	.LVL431:
 2881              	.L194:
 620:PSoC.h        ****     while(rec_data[i] != '\n')
 621:PSoC.h        ****     {
 622:PSoC.h        ****       readData[j] = rec_data[i];
 2882              		.loc 1 622 0 is_stmt 1
 2883 009c A154     		strb	r1, [r4, r2]
 623:PSoC.h        ****       if(rec_data[i] == ',')
 2884              		.loc 1 623 0
 2885 009e 07A9     		add	r1, sp, #28
 2886 00a0 C95C     		ldrb	r1, [r1, r3]
 2887 00a2 2C29     		cmp	r1, #44
 2888 00a4 02D1     		bne	.L193
 624:PSoC.h        ****       {
 625:PSoC.h        ****         j++;
 2889              		.loc 1 625 0
 2890 00a6 0132     		adds	r2, r2, #1
 2891              	.LVL432:
 626:PSoC.h        ****         readData[j] = '\n';
 2892              		.loc 1 626 0
 2893 00a8 2239     		subs	r1, r1, #34
 2894 00aa A154     		strb	r1, [r4, r2]
 2895              	.L193:
 627:PSoC.h        ****       }
 628:PSoC.h        ****       i++; j++;
 2896              		.loc 1 628 0
 2897 00ac 0133     		adds	r3, r3, #1
 2898              	.LVL433:
 2899 00ae 0132     		adds	r2, r2, #1
 2900              	.LVL434:
 2901              	.L192:
 620:PSoC.h        ****     {
 2902              		.loc 1 620 0
 2903 00b0 07A9     		add	r1, sp, #28
 2904 00b2 C95C     		ldrb	r1, [r1, r3]
 2905 00b4 0A29     		cmp	r1, #10
 2906 00b6 F1D1     		bne	.L194
 2907 00b8 00E0     		b	.L195
 2908              	.LVL435:
 2909              	.L196:
 629:PSoC.h        ****     }
 630:PSoC.h        ****     while(readData[j] != '}')  j--;
 2910              		.loc 1 630 0 discriminator 2
 2911 00ba 013A     		subs	r2, r2, #1
 2912              	.LVL436:
 2913              	.L195:
 2914              		.loc 1 630 0 is_stmt 0 discriminator 1
 2915 00bc 1100     		movs	r1, r2
 2916 00be A518     		adds	r5, r4, r2
ARM GAS  C:\Users\PRAJWA~1\AppData\Local\Temp\ccedcYia.s 			page 64


 2917 00c0 2B78     		ldrb	r3, [r5]
 2918 00c2 7D2B     		cmp	r3, #125
 2919 00c4 F9D1     		bne	.L196
 2920              	.LVL437:
 631:PSoC.h        ****     readData[j+1] = 0;
 2921              		.loc 1 631 0 is_stmt 1
 2922 00c6 0131     		adds	r1, r1, #1
 2923              	.LVL438:
 2924 00c8 6418     		adds	r4, r4, r1
 2925 00ca 0023     		movs	r3, #0
 2926 00cc 2370     		strb	r3, [r4]
 632:PSoC.h        **** 
 633:PSoC.h        ****     UART_UartPutString("Getting data. Please wait...");
 2927              		.loc 1 633 0
 2928 00ce 1248     		ldr	r0, .L203+28
 2929 00d0 FFF7FEFF 		bl	UART_UartPutString
 2930              	.LVL439:
 634:PSoC.h        ****     delay(40000);
 2931              		.loc 1 634 0
 2932 00d4 1148     		ldr	r0, .L203+32
 2933 00d6 FFF7FEFF 		bl	delay
 2934              	.LVL440:
 635:PSoC.h        ****     UART_UartPutString("Just a bit longer...\n");
 2935              		.loc 1 635 0
 2936 00da 1148     		ldr	r0, .L203+36
 2937 00dc FFF7FEFF 		bl	UART_UartPutString
 2938              	.LVL441:
 636:PSoC.h        ****     delay(10000);
 2939              		.loc 1 636 0
 2940 00e0 1048     		ldr	r0, .L203+40
 2941 00e2 FFF7FEFF 		bl	delay
 2942              	.LVL442:
 637:PSoC.h        ****     
 638:PSoC.h        ****     if(readData[j] == '}')  return 0;
 2943              		.loc 1 638 0
 2944 00e6 2B78     		ldrb	r3, [r5]
 2945 00e8 7D2B     		cmp	r3, #125
 2946 00ea 01D1     		bne	.L202
 2947 00ec 0020     		movs	r0, #0
 2948 00ee 01E0     		b	.L197
 2949              	.L202:
 639:PSoC.h        ****     return -1;
 2950              		.loc 1 639 0
 2951 00f0 0120     		movs	r0, #1
 2952 00f2 4042     		rsbs	r0, r0, #0
 2953              	.L197:
 640:PSoC.h        **** }
 2954              		.loc 1 640 0
 2955 00f4 B723     		movs	r3, #183
 2956 00f6 9B00     		lsls	r3, r3, #2
 2957 00f8 9D44     		add	sp, sp, r3
 2958              		@ sp needed
 2959              	.LVL443:
 2960              	.LVL444:
 2961 00fa F0BD     		pop	{r4, r5, r6, r7, pc}
 2962              	.L204:
 2963              		.align	2
ARM GAS  C:\Users\PRAJWA~1\AppData\Local\Temp\ccedcYia.s 			page 65


 2964              	.L203:
 2965 00fc 24FDFFFF 		.word	-732
 2966 0100 6C010000 		.word	.LC66
 2967 0104 74010000 		.word	.LC68
 2968 0108 7C010000 		.word	.LC70
 2969 010c 84010000 		.word	.LC72
 2970 0110 C4010000 		.word	.LC80
 2971 0114 80969800 		.word	10000000
 2972 0118 FC010000 		.word	.LC82
 2973 011c 409C0000 		.word	40000
 2974 0120 1C020000 		.word	.LC84
 2975 0124 10270000 		.word	10000
 2976              		.cfi_endproc
 2977              	.LFE61:
 2978              		.size	WiFi_receiveData, .-WiFi_receiveData
 2979              		.section	.text._write,"ax",%progbits
 2980              		.align	2
 2981              		.global	_write
 2982              		.code	16
 2983              		.thumb_func
 2984              		.type	_write, %function
 2985              	_write:
 2986              	.LFB62:
 2987              		.file 2 "main.c"
   1:main.c        **** /* ========================================
   2:main.c        ****  *
   3:main.c        ****  * Copyright YOUR COMPANY, THE YEAR
   4:main.c        ****  * All Rights Reserved
   5:main.c        ****  * UNPUBLISHED, LICENSED SOFTWARE.
   6:main.c        ****  *
   7:main.c        ****  * CONFIDENTIAL AND PROPRIETARY INFORMATION
   8:main.c        ****  * WHICH IS THE PROPERTY OF your company.
   9:main.c        ****  *
  10:main.c        ****  * ========================================
  11:main.c        **** */
  12:main.c        **** #include "project.h"
  13:main.c        **** #include "stdio.h"
  14:main.c        **** #include "PSoC.h"
  15:main.c        **** 
  16:main.c        ****  /********************************
  17:main.c        ****  ***START printf() ACCOMODATION***
  18:main.c        ****  *********************************/
  19:main.c        ****  int _write(int file, char *ptr, int len)
  20:main.c        ****  {
 2988              		.loc 2 20 0
 2989              		.cfi_startproc
 2990              		@ args = 0, pretend = 0, frame = 0
 2991              		@ frame_needed = 0, uses_anonymous_args = 0
 2992              	.LVL445:
 2993 0000 70B5     		push	{r4, r5, r6, lr}
 2994              		.cfi_def_cfa_offset 16
 2995              		.cfi_offset 4, -16
 2996              		.cfi_offset 5, -12
 2997              		.cfi_offset 6, -8
 2998              		.cfi_offset 14, -4
 2999 0002 1600     		movs	r6, r2
 3000              	.LVL446:
ARM GAS  C:\Users\PRAJWA~1\AppData\Local\Temp\ccedcYia.s 			page 66


  21:main.c        ****      (void) file ;
  22:main.c        ****      int i ;
  23:main.c        ****      for (i = 0 ; i < len ; i++) {
 3001              		.loc 2 23 0
 3002 0004 0024     		movs	r4, #0
 3003 0006 05E0     		b	.L206
 3004              	.LVL447:
 3005              	.L207:
  24:main.c        ****          UART_UartPutChar(*ptr++) ;
 3006              		.loc 2 24 0 discriminator 3
 3007 0008 4D1C     		adds	r5, r1, #1
 3008              	.LVL448:
 3009 000a 0878     		ldrb	r0, [r1]
 3010 000c FFF7FEFF 		bl	UART_SpiUartWriteTxData
 3011              	.LVL449:
  23:main.c        ****          UART_UartPutChar(*ptr++) ;
 3012              		.loc 2 23 0 discriminator 3
 3013 0010 0134     		adds	r4, r4, #1
 3014              	.LVL450:
 3015              		.loc 2 24 0 discriminator 3
 3016 0012 2900     		movs	r1, r5
 3017              	.LVL451:
 3018              	.L206:
  23:main.c        ****          UART_UartPutChar(*ptr++) ;
 3019              		.loc 2 23 0 discriminator 1
 3020 0014 B442     		cmp	r4, r6
 3021 0016 F7DB     		blt	.L207
  25:main.c        ****      }
  26:main.c        ****      return len ;
  27:main.c        ****  }
 3022              		.loc 2 27 0
 3023 0018 3000     		movs	r0, r6
 3024              		@ sp needed
 3025              	.LVL452:
 3026              	.LVL453:
 3027 001a 70BD     		pop	{r4, r5, r6, pc}
 3028              		.cfi_endproc
 3029              	.LFE62:
 3030              		.size	_write, .-_write
 3031              		.section	.text.main,"ax",%progbits
 3032              		.align	2
 3033              		.global	main
 3034              		.code	16
 3035              		.thumb_func
 3036              		.type	main, %function
 3037              	main:
 3038              	.LFB63:
  28:main.c        **** /********************************
  29:main.c        ****  ****END printf() ACCOMODATION****
  30:main.c        ****  *********************************/
  31:main.c        **** 
  32:main.c        **** int main(void){
 3039              		.loc 2 32 0
 3040              		.cfi_startproc
 3041              		@ args = 0, pretend = 0, frame = 256
 3042              		@ frame_needed = 0, uses_anonymous_args = 0
 3043 0000 70B5     		push	{r4, r5, r6, lr}
ARM GAS  C:\Users\PRAJWA~1\AppData\Local\Temp\ccedcYia.s 			page 67


 3044              		.cfi_def_cfa_offset 16
 3045              		.cfi_offset 4, -16
 3046              		.cfi_offset 5, -12
 3047              		.cfi_offset 6, -8
 3048              		.cfi_offset 14, -4
 3049 0002 C0B0     		sub	sp, sp, #256
 3050              		.cfi_def_cfa_offset 272
  33:main.c        ****    
  34:main.c        ****     CyGlobalIntEnable;
 3051              		.loc 2 34 0
 3052              		.syntax divided
 3053              	@ 34 "main.c" 1
 3054 0004 62B6     		CPSIE   i
 3055              	@ 0 "" 2
 3056              	.LVL454:
  35:main.c        ****     
  36:main.c        ****     struct PSC_McM_6_00 proc1;
  37:main.c        ****     uint32 pos, k=0;
  38:main.c        ****     uint8 i=0, state=1;
  39:main.c        ****     char rec_data[300];
  40:main.c        ****     unsigned long prev = Counter_micros_ReadCounter();
 3057              		.loc 2 40 0
 3058              		.thumb
 3059              		.syntax unified
 3060 0006 FFF7FEFF 		bl	Counter_micros_ReadCounter
 3061              	.LVL455:
 3062 000a 0600     		movs	r6, r0
 3063              	.LVL456:
  41:main.c        ****     
  42:main.c        ****     Counter_micros_Start();
 3064              		.loc 2 42 0
 3065 000c FFF7FEFF 		bl	Counter_micros_Start
 3066              	.LVL457:
  43:main.c        ****     
  44:main.c        ****     UART_Start();
 3067              		.loc 2 44 0
 3068 0010 FFF7FEFF 		bl	UART_Start
 3069              	.LVL458:
  45:main.c        ****     CTRL_Write(0);
 3070              		.loc 2 45 0
 3071 0014 0020     		movs	r0, #0
 3072 0016 FFF7FEFF 		bl	CTRL_Write
 3073              	.LVL459:
  46:main.c        ****     
  47:main.c        ****     EZI2C_Start();
 3074              		.loc 2 47 0
 3075 001a FFF7FEFF 		bl	EZI2C_Start
 3076              	.LVL460:
  48:main.c        ****     
  49:main.c        ****     EZI2C_EzI2CSetBuffer1(sizeof(Mux_CapSense_dsRam), 
 3077              		.loc 2 49 0
 3078 001e 744A     		ldr	r2, .L223
 3079 0020 8C21     		movs	r1, #140
 3080 0022 8C20     		movs	r0, #140
 3081 0024 FFF7FEFF 		bl	EZI2C_EzI2CSetBuffer1
 3082              	.LVL461:
  50:main.c        ****                           sizeof(Mux_CapSense_dsRam),
ARM GAS  C:\Users\PRAJWA~1\AppData\Local\Temp\ccedcYia.s 			page 68


  51:main.c        ****                          (uint8 *)&Mux_CapSense_dsRam);
  52:main.c        ****     
  53:main.c        ****     Mux_CapSense_Start();
 3083              		.loc 2 53 0
 3084 0028 FFF7FEFF 		bl	Mux_CapSense_Start
 3085              	.LVL462:
  54:main.c        ****     
  55:main.c        ****     delay(1000);
 3086              		.loc 2 55 0
 3087 002c FA20     		movs	r0, #250
 3088 002e 8000     		lsls	r0, r0, #2
 3089 0030 FFF7FEFF 		bl	delay
 3090              	.LVL463:
  56:main.c        ****     
  57:main.c        ****     ble_disconnect(&proc1);
 3091              		.loc 2 57 0
 3092 0034 01A8     		add	r0, sp, #4
 3093 0036 FFF7FEFF 		bl	ble_disconnect
 3094              	.LVL464:
  58:main.c        ****     delay(20);
 3095              		.loc 2 58 0
 3096 003a 1420     		movs	r0, #20
 3097 003c FFF7FEFF 		bl	delay
 3098              	.LVL465:
  59:main.c        ****     ble_OFF(&proc1);
 3099              		.loc 2 59 0
 3100 0040 01A8     		add	r0, sp, #4
 3101 0042 FFF7FEFF 		bl	ble_OFF
 3102              	.LVL466:
  60:main.c        ****     delay(20);
 3103              		.loc 2 60 0
 3104 0046 1420     		movs	r0, #20
 3105 0048 FFF7FEFF 		bl	delay
 3106              	.LVL467:
  61:main.c        ****     bleON_host(&proc1);
 3107              		.loc 2 61 0
 3108 004c 01A8     		add	r0, sp, #4
 3109 004e FFF7FEFF 		bl	bleON_host
 3110              	.LVL468:
  62:main.c        ****     delay(20);
 3111              		.loc 2 62 0
 3112 0052 1420     		movs	r0, #20
 3113 0054 FFF7FEFF 		bl	delay
 3114              	.LVL469:
  63:main.c        ****     ble_connect(&proc1, "7cb94c3876b8");    //MAC
 3115              		.loc 2 63 0
 3116 0058 6649     		ldr	r1, .L223+4
 3117 005a 01A8     		add	r0, sp, #4
 3118 005c FFF7FEFF 		bl	ble_connect
 3119              	.LVL470:
  38:main.c        ****     char rec_data[300];
 3120              		.loc 2 38 0
 3121 0060 0125     		movs	r5, #1
 3122              	.LVL471:
 3123              	.L209:
  64:main.c        ****     
  65:main.c        ****     for(;;)
ARM GAS  C:\Users\PRAJWA~1\AppData\Local\Temp\ccedcYia.s 			page 69


  66:main.c        ****     {   
  67:main.c        ****         k=0;
  68:main.c        ****         
  69:main.c        ****         if(Mux_CapSense_NOT_BUSY == Mux_CapSense_IsBusy())
 3124              		.loc 2 69 0
 3125 0062 FFF7FEFF 		bl	Mux_CapSense_IsBusy
 3126              	.LVL472:
 3127 0066 0028     		cmp	r0, #0
 3128 0068 05D1     		bne	.L210
  70:main.c        ****         {
  71:main.c        ****             Mux_CapSense_ProcessAllWidgets();
 3129              		.loc 2 71 0
 3130 006a FFF7FEFF 		bl	Mux_CapSense_ProcessAllWidgets
 3131              	.LVL473:
  72:main.c        ****             
  73:main.c        ****             Mux_CapSense_RunTuner();      
 3132              		.loc 2 73 0
 3133 006e FFF7FEFF 		bl	Mux_CapSense_RunTuner
 3134              	.LVL474:
  74:main.c        ****             
  75:main.c        ****             Mux_CapSense_ScanAllWidgets();
 3135              		.loc 2 75 0
 3136 0072 FFF7FEFF 		bl	Mux_CapSense_ScanAllWidgets
 3137              	.LVL475:
 3138              	.L210:
  76:main.c        ****         }
  77:main.c        ****         
  78:main.c        ****         if(Mux_CapSense_IsSensorActive(0, 4))
 3139              		.loc 2 78 0
 3140 0076 0421     		movs	r1, #4
 3141 0078 0020     		movs	r0, #0
 3142 007a FFF7FEFF 		bl	Mux_CapSense_IsSensorActive
 3143              	.LVL476:
 3144 007e 0028     		cmp	r0, #0
 3145 0080 0BD0     		beq	.L221
  79:main.c        ****         {
  80:main.c        ****             if(Mux_CapSense_IsSensorActive(0, 0))
 3146              		.loc 2 80 0
 3147 0082 0021     		movs	r1, #0
 3148 0084 0020     		movs	r0, #0
 3149 0086 FFF7FEFF 		bl	Mux_CapSense_IsSensorActive
 3150              	.LVL477:
 3151 008a 0028     		cmp	r0, #0
 3152 008c 07D0     		beq	.L222
 3153              	.LVL478:
  81:main.c        ****             {
  82:main.c        ****                 k++;
  83:main.c        ****                 if(k==1) ble_sendData(&proc1, "R\r\n");
 3154              		.loc 2 83 0 discriminator 1
 3155 008e 5A49     		ldr	r1, .L223+8
 3156 0090 01A8     		add	r0, sp, #4
 3157 0092 FFF7FEFF 		bl	ble_sendData
 3158              	.LVL479:
  82:main.c        ****                 if(k==1) ble_sendData(&proc1, "R\r\n");
 3159              		.loc 2 82 0 discriminator 1
 3160 0096 0124     		movs	r4, #1
 3161 0098 02E0     		b	.L211
ARM GAS  C:\Users\PRAJWA~1\AppData\Local\Temp\ccedcYia.s 			page 70


 3162              	.LVL480:
 3163              	.L221:
  67:main.c        ****         
 3164              		.loc 2 67 0
 3165 009a 0024     		movs	r4, #0
 3166 009c 00E0     		b	.L211
 3167              	.L222:
 3168 009e 0024     		movs	r4, #0
 3169              	.LVL481:
 3170              	.L211:
  84:main.c        ****             }
  85:main.c        ****         }
  86:main.c        ****         
  87:main.c        ****         if(Mux_CapSense_IsSensorActive(0, 4))
 3171              		.loc 2 87 0
 3172 00a0 0421     		movs	r1, #4
 3173 00a2 0020     		movs	r0, #0
 3174 00a4 FFF7FEFF 		bl	Mux_CapSense_IsSensorActive
 3175              	.LVL482:
 3176 00a8 0028     		cmp	r0, #0
 3177 00aa 0CD0     		beq	.L212
  88:main.c        ****         {
  89:main.c        ****             if(Mux_CapSense_IsSensorActive(0, 1))
 3178              		.loc 2 89 0
 3179 00ac 0121     		movs	r1, #1
 3180 00ae 0020     		movs	r0, #0
 3181 00b0 FFF7FEFF 		bl	Mux_CapSense_IsSensorActive
 3182              	.LVL483:
 3183 00b4 0028     		cmp	r0, #0
 3184 00b6 06D0     		beq	.L212
  90:main.c        ****             {
  91:main.c        ****                 k++;
 3185              		.loc 2 91 0
 3186 00b8 0134     		adds	r4, r4, #1
 3187              	.LVL484:
  92:main.c        ****                 if(k==1) ble_sendData(&proc1, "G\r\n");
 3188              		.loc 2 92 0
 3189 00ba 012C     		cmp	r4, #1
 3190 00bc 03D1     		bne	.L212
 3191              		.loc 2 92 0 is_stmt 0 discriminator 1
 3192 00be 4F49     		ldr	r1, .L223+12
 3193 00c0 01A8     		add	r0, sp, #4
 3194 00c2 FFF7FEFF 		bl	ble_sendData
 3195              	.LVL485:
 3196              	.L212:
  93:main.c        ****             }
  94:main.c        ****         }
  95:main.c        ****         
  96:main.c        ****         if(Mux_CapSense_IsSensorActive(0, 4))
 3197              		.loc 2 96 0 is_stmt 1
 3198 00c6 0421     		movs	r1, #4
 3199 00c8 0020     		movs	r0, #0
 3200 00ca FFF7FEFF 		bl	Mux_CapSense_IsSensorActive
 3201              	.LVL486:
 3202 00ce 0028     		cmp	r0, #0
 3203 00d0 0CD0     		beq	.L213
  97:main.c        ****         {
ARM GAS  C:\Users\PRAJWA~1\AppData\Local\Temp\ccedcYia.s 			page 71


  98:main.c        ****             if(Mux_CapSense_IsSensorActive(0, 2))
 3204              		.loc 2 98 0
 3205 00d2 0221     		movs	r1, #2
 3206 00d4 0020     		movs	r0, #0
 3207 00d6 FFF7FEFF 		bl	Mux_CapSense_IsSensorActive
 3208              	.LVL487:
 3209 00da 0028     		cmp	r0, #0
 3210 00dc 06D0     		beq	.L213
  99:main.c        ****             {
 100:main.c        ****                 k++;
 3211              		.loc 2 100 0
 3212 00de 0134     		adds	r4, r4, #1
 3213              	.LVL488:
 101:main.c        ****                 if(k==1) ble_sendData(&proc1, "B\r\n");
 3214              		.loc 2 101 0
 3215 00e0 012C     		cmp	r4, #1
 3216 00e2 03D1     		bne	.L213
 3217              		.loc 2 101 0 is_stmt 0 discriminator 1
 3218 00e4 4649     		ldr	r1, .L223+16
 3219 00e6 01A8     		add	r0, sp, #4
 3220 00e8 FFF7FEFF 		bl	ble_sendData
 3221              	.LVL489:
 3222              	.L213:
 102:main.c        ****             }
 103:main.c        ****         }
 104:main.c        ****         
 105:main.c        ****         if(Mux_CapSense_IsSensorActive(0, 4))
 3223              		.loc 2 105 0 is_stmt 1
 3224 00ec 0421     		movs	r1, #4
 3225 00ee 0020     		movs	r0, #0
 3226 00f0 FFF7FEFF 		bl	Mux_CapSense_IsSensorActive
 3227              	.LVL490:
 3228 00f4 0028     		cmp	r0, #0
 3229 00f6 0CD0     		beq	.L214
 106:main.c        ****         {
 107:main.c        ****             if(Mux_CapSense_IsSensorActive(0, 3))
 3230              		.loc 2 107 0
 3231 00f8 0321     		movs	r1, #3
 3232 00fa 0020     		movs	r0, #0
 3233 00fc FFF7FEFF 		bl	Mux_CapSense_IsSensorActive
 3234              	.LVL491:
 3235 0100 0028     		cmp	r0, #0
 3236 0102 06D0     		beq	.L214
 108:main.c        ****             {
 109:main.c        ****                 k++;
 3237              		.loc 2 109 0
 3238 0104 0134     		adds	r4, r4, #1
 3239              	.LVL492:
 110:main.c        ****                 if(k==1) ble_sendData(&proc1, "W\r\n");
 3240              		.loc 2 110 0
 3241 0106 012C     		cmp	r4, #1
 3242 0108 03D1     		bne	.L214
 3243              		.loc 2 110 0 is_stmt 0 discriminator 1
 3244 010a 3E49     		ldr	r1, .L223+20
 3245 010c 01A8     		add	r0, sp, #4
 3246 010e FFF7FEFF 		bl	ble_sendData
 3247              	.LVL493:
ARM GAS  C:\Users\PRAJWA~1\AppData\Local\Temp\ccedcYia.s 			page 72


 3248              	.L214:
 111:main.c        ****             }
 112:main.c        ****         }
 113:main.c        ****         
 114:main.c        ****         if(Mux_CapSense_IsSensorActive(0, 5))
 3249              		.loc 2 114 0 is_stmt 1
 3250 0112 0521     		movs	r1, #5
 3251 0114 0020     		movs	r0, #0
 3252 0116 FFF7FEFF 		bl	Mux_CapSense_IsSensorActive
 3253              	.LVL494:
 3254 011a 0028     		cmp	r0, #0
 3255 011c 0CD0     		beq	.L215
 115:main.c        ****         {
 116:main.c        ****             if(Mux_CapSense_IsSensorActive(0, 0))
 3256              		.loc 2 116 0
 3257 011e 0021     		movs	r1, #0
 3258 0120 0020     		movs	r0, #0
 3259 0122 FFF7FEFF 		bl	Mux_CapSense_IsSensorActive
 3260              	.LVL495:
 3261 0126 0028     		cmp	r0, #0
 3262 0128 06D0     		beq	.L215
 117:main.c        ****             {
 118:main.c        ****                 k++;
 3263              		.loc 2 118 0
 3264 012a 0134     		adds	r4, r4, #1
 3265              	.LVL496:
 119:main.c        ****                 if(k==1) ble_sendData(&proc1, "C\r\n");
 3266              		.loc 2 119 0
 3267 012c 012C     		cmp	r4, #1
 3268 012e 03D1     		bne	.L215
 3269              		.loc 2 119 0 is_stmt 0 discriminator 1
 3270 0130 3549     		ldr	r1, .L223+24
 3271 0132 01A8     		add	r0, sp, #4
 3272 0134 FFF7FEFF 		bl	ble_sendData
 3273              	.LVL497:
 3274              	.L215:
 120:main.c        ****             }
 121:main.c        ****         }
 122:main.c        ****         
 123:main.c        ****         if(Mux_CapSense_IsSensorActive(0, 5))
 3275              		.loc 2 123 0 is_stmt 1
 3276 0138 0521     		movs	r1, #5
 3277 013a 0020     		movs	r0, #0
 3278 013c FFF7FEFF 		bl	Mux_CapSense_IsSensorActive
 3279              	.LVL498:
 3280 0140 0028     		cmp	r0, #0
 3281 0142 0CD0     		beq	.L216
 124:main.c        ****         {
 125:main.c        ****             if(Mux_CapSense_IsSensorActive(0, 1))
 3282              		.loc 2 125 0
 3283 0144 0121     		movs	r1, #1
 3284 0146 0020     		movs	r0, #0
 3285 0148 FFF7FEFF 		bl	Mux_CapSense_IsSensorActive
 3286              	.LVL499:
 3287 014c 0028     		cmp	r0, #0
 3288 014e 06D0     		beq	.L216
 126:main.c        ****             {
ARM GAS  C:\Users\PRAJWA~1\AppData\Local\Temp\ccedcYia.s 			page 73


 127:main.c        ****                 k++;
 3289              		.loc 2 127 0
 3290 0150 0134     		adds	r4, r4, #1
 3291              	.LVL500:
 128:main.c        ****                 if(k==1) ble_sendData(&proc1, "M\r\n");
 3292              		.loc 2 128 0
 3293 0152 012C     		cmp	r4, #1
 3294 0154 03D1     		bne	.L216
 3295              		.loc 2 128 0 is_stmt 0 discriminator 1
 3296 0156 2D49     		ldr	r1, .L223+28
 3297 0158 01A8     		add	r0, sp, #4
 3298 015a FFF7FEFF 		bl	ble_sendData
 3299              	.LVL501:
 3300              	.L216:
 129:main.c        ****             }
 130:main.c        ****         }
 131:main.c        ****         
 132:main.c        ****         if(Mux_CapSense_IsSensorActive(0, 5))
 3301              		.loc 2 132 0 is_stmt 1
 3302 015e 0521     		movs	r1, #5
 3303 0160 0020     		movs	r0, #0
 3304 0162 FFF7FEFF 		bl	Mux_CapSense_IsSensorActive
 3305              	.LVL502:
 3306 0166 0028     		cmp	r0, #0
 3307 0168 0CD0     		beq	.L217
 133:main.c        ****         {
 134:main.c        ****             if(Mux_CapSense_IsSensorActive(0, 2))
 3308              		.loc 2 134 0
 3309 016a 0221     		movs	r1, #2
 3310 016c 0020     		movs	r0, #0
 3311 016e FFF7FEFF 		bl	Mux_CapSense_IsSensorActive
 3312              	.LVL503:
 3313 0172 0028     		cmp	r0, #0
 3314 0174 06D0     		beq	.L217
 135:main.c        ****             {
 136:main.c        ****                 k++;
 3315              		.loc 2 136 0
 3316 0176 0134     		adds	r4, r4, #1
 3317              	.LVL504:
 137:main.c        ****                 if(k==1) ble_sendData(&proc1, "Y\r\n");
 3318              		.loc 2 137 0
 3319 0178 012C     		cmp	r4, #1
 3320 017a 03D1     		bne	.L217
 3321              		.loc 2 137 0 is_stmt 0 discriminator 1
 3322 017c 2449     		ldr	r1, .L223+32
 3323 017e 01A8     		add	r0, sp, #4
 3324 0180 FFF7FEFF 		bl	ble_sendData
 3325              	.LVL505:
 3326              	.L217:
 138:main.c        ****             }
 139:main.c        ****         }
 140:main.c        ****         
 141:main.c        ****         
 142:main.c        ****         
 143:main.c        ****         if(Counter_micros_ReadCounter() - prev > 200000)
 3327              		.loc 2 143 0 is_stmt 1
 3328 0184 FFF7FEFF 		bl	Counter_micros_ReadCounter
ARM GAS  C:\Users\PRAJWA~1\AppData\Local\Temp\ccedcYia.s 			page 74


 3329              	.LVL506:
 3330 0188 801B     		subs	r0, r0, r6
 3331 018a 224B     		ldr	r3, .L223+36
 3332 018c 9842     		cmp	r0, r3
 3333 018e 07D9     		bls	.L218
 144:main.c        ****         {
 145:main.c        ****             Pin_Green_Write(state);
 3334              		.loc 2 145 0
 3335 0190 2800     		movs	r0, r5
 3336 0192 FFF7FEFF 		bl	Pin_Green_Write
 3337              	.LVL507:
 146:main.c        ****             state = ~state;
 3338              		.loc 2 146 0
 3339 0196 ED43     		mvns	r5, r5
 3340              	.LVL508:
 3341 0198 EDB2     		uxtb	r5, r5
 3342              	.LVL509:
 147:main.c        ****             prev = Counter_micros_ReadCounter();
 3343              		.loc 2 147 0
 3344 019a FFF7FEFF 		bl	Counter_micros_ReadCounter
 3345              	.LVL510:
 3346 019e 0600     		movs	r6, r0
 3347              	.LVL511:
 3348              	.L218:
 148:main.c        ****         }
 149:main.c        ****         
 150:main.c        ****         
 151:main.c        ****         
 152:main.c        ****         if(Mux_CapSense_IsSensorActive(0, 7))
 3349              		.loc 2 152 0
 3350 01a0 0721     		movs	r1, #7
 3351 01a2 0020     		movs	r0, #0
 3352 01a4 FFF7FEFF 		bl	Mux_CapSense_IsSensorActive
 3353              	.LVL512:
 3354 01a8 0028     		cmp	r0, #0
 3355 01aa 0BD0     		beq	.L219
 153:main.c        ****         {
 154:main.c        ****             if(Mux_CapSense_IsSensorActive(0, 1))
 3356              		.loc 2 154 0
 3357 01ac 0121     		movs	r1, #1
 3358 01ae 0020     		movs	r0, #0
 3359 01b0 FFF7FEFF 		bl	Mux_CapSense_IsSensorActive
 3360              	.LVL513:
 3361 01b4 0028     		cmp	r0, #0
 3362 01b6 05D0     		beq	.L219
 155:main.c        ****             {
 156:main.c        ****                 k++;
 3363              		.loc 2 156 0
 3364 01b8 0134     		adds	r4, r4, #1
 3365              	.LVL514:
 157:main.c        ****                 if(k==1) ble_disconnect(&proc1);
 3366              		.loc 2 157 0
 3367 01ba 012C     		cmp	r4, #1
 3368 01bc 02D1     		bne	.L219
 3369              		.loc 2 157 0 is_stmt 0 discriminator 1
 3370 01be 01A8     		add	r0, sp, #4
 3371 01c0 FFF7FEFF 		bl	ble_disconnect
ARM GAS  C:\Users\PRAJWA~1\AppData\Local\Temp\ccedcYia.s 			page 75


 3372              	.LVL515:
 3373              	.L219:
 158:main.c        ****             }
 159:main.c        ****         }
 160:main.c        ****         
 161:main.c        ****         if(Mux_CapSense_IsSensorActive(0, 7))
 3374              		.loc 2 161 0 is_stmt 1
 3375 01c4 0721     		movs	r1, #7
 3376 01c6 0020     		movs	r0, #0
 3377 01c8 FFF7FEFF 		bl	Mux_CapSense_IsSensorActive
 3378              	.LVL516:
 3379 01cc 0028     		cmp	r0, #0
 3380 01ce 00D1     		bne	.LCB3447
 3381 01d0 47E7     		b	.L209	@long jump
 3382              	.LCB3447:
 162:main.c        ****         {
 163:main.c        ****             if(Mux_CapSense_IsSensorActive(0, 2))
 3383              		.loc 2 163 0
 3384 01d2 0221     		movs	r1, #2
 3385 01d4 0020     		movs	r0, #0
 3386 01d6 FFF7FEFF 		bl	Mux_CapSense_IsSensorActive
 3387              	.LVL517:
 3388 01da 0028     		cmp	r0, #0
 3389 01dc 00D1     		bne	.LCB3454
 3390 01de 40E7     		b	.L209	@long jump
 3391              	.LCB3454:
 3392              	.LVL518:
 164:main.c        ****             {
 165:main.c        ****                 k++;
 166:main.c        ****                 if(k==1) ble_connect(&proc1, "7cb94c3876b8");
 3393              		.loc 2 166 0
 3394 01e0 002C     		cmp	r4, #0
 3395 01e2 00D0     		beq	.LCB3457
 3396 01e4 3DE7     		b	.L209	@long jump
 3397              	.LCB3457:
 3398              		.loc 2 166 0 is_stmt 0 discriminator 1
 3399 01e6 0349     		ldr	r1, .L223+4
 3400 01e8 01A8     		add	r0, sp, #4
 3401 01ea FFF7FEFF 		bl	ble_connect
 3402              	.LVL519:
 3403 01ee 38E7     		b	.L209
 3404              	.L224:
 3405              		.align	2
 3406              	.L223:
 3407 01f0 00000000 		.word	Mux_CapSense_dsRam
 3408 01f4 34020000 		.word	.LC87
 3409 01f8 44020000 		.word	.LC89
 3410 01fc 48020000 		.word	.LC91
 3411 0200 4C020000 		.word	.LC93
 3412 0204 50020000 		.word	.LC95
 3413 0208 54020000 		.word	.LC97
 3414 020c 58020000 		.word	.LC99
 3415 0210 5C020000 		.word	.LC101
 3416 0214 400D0300 		.word	200000
 3417              		.cfi_endproc
 3418              	.LFE63:
 3419              		.size	main, .-main
ARM GAS  C:\Users\PRAJWA~1\AppData\Local\Temp\ccedcYia.s 			page 76


 3420              		.section	.rodata
 3421              		.align	2
 3422              		.set	.LANCHOR0,. + 0
 3423              		.set	.LANCHOR1,. + 128
 3424              		.set	.LANCHOR2,. + 256
 3425              	.LC5:
 3426 0040 41542B42 		.ascii	"AT+BLEMAC?\015\012\000"
 3426      4C454D41 
 3426      433F0D0A 
 3426      00
 3427 004d 00000000 		.space	7
 3427      000000
 3428              	.LC7:
 3429 0054 41542B42 		.ascii	"AT+BLERFPWR?\015\012\000"
 3429      4C455246 
 3429      5057523F 
 3429      0D0A00
 3430 0063 000000   		.space	3
 3431 0066 0000     		.space	2
 3432              	.LC9:
 3433 0068 41542B42 		.ascii	"AT+BLERFPWR=\000"
 3433      4C455246 
 3433      5057523D 
 3433      00
 3434 0075 0000     		.space	2
 3435 0077 00       		.space	1
 3436              	.LC13:
 3437 0078 41542B42 		.ascii	"AT+BLEMODE?\015\012\000"
 3437      4C454D4F 
 3437      44453F0D 
 3437      0A00
 3438 0086 00       		.space	1
 3439 0087 00       		.space	1
 3440              	.LC17:
 3441 0088 41542B42 		.ascii	"AT+BLEMODE=9\015\012\000"
 3441      4C454D4F 
 3441      44453D39 
 3441      0D0A00
 3442 0097 000000   		.space	3
 3443 009a 0000     		.space	2
 3444              	.LC19:
 3445 009c 41542B42 		.ascii	"AT+BLEMODE=1\015\012\000"
 3445      4C454D4F 
 3445      44453D31 
 3445      0D0A00
 3446 00ab 000000   		.space	3
 3447 00ae 0000     		.space	2
 3448              	.LC21:
 3449 00b0 41542B42 		.ascii	"AT+BLEMODE=0\015\012\000"
 3449      4C454D4F 
 3449      44453D30 
 3449      0D0A00
 3450 00bf 000000   		.space	3
 3451 00c2 0000     		.space	2
 3452              	.LC25:
 3453 00c4 41542B42 		.ascii	"AT+BLEDISCON\015\012\000"
 3453      4C454449 
ARM GAS  C:\Users\PRAJWA~1\AppData\Local\Temp\ccedcYia.s 			page 77


 3453      53434F4E 
 3453      0D0A00
 3454 00d3 000000   		.space	3
 3455 00d6 0000     		.space	2
 3456              	.LC31:
 3457 00d8 41542B43 		.ascii	"AT+CIPSTAMAC_DEF?\015\012\000"
 3457      49505354 
 3457      414D4143 
 3457      5F444546 
 3457      3F0D0A00 
 3458 00ec 00000000 		.space	5
 3458      00
 3459 00f1 000000   		.space	3
 3460              	.LC33:
 3461 00f4 41542B57 		.ascii	"AT+WMODE?\015\012\000"
 3461      4D4F4445 
 3461      3F0D0A00 
 3462 0100 000000   		.space	3
 3463 0103 00       		.space	1
 3464              	.LC37:
 3465 0104 41542B52 		.ascii	"AT+RST\015\012\000"
 3465      53540D0A 
 3465      00
 3466 010d 00       		.space	1
 3467 010e 0000     		.space	2
 3468              	.LC39:
 3469 0110 41542B57 		.ascii	"AT+WMODE=0,0\015\012\000"
 3469      4D4F4445 
 3469      3D302C30 
 3469      0D0A00
 3470 011f 000000   		.space	3
 3471 0122 0000     		.space	2
 3472              	.LC40:
 3473 0124 41542B57 		.ascii	"AT+WMODE=1,0\015\012\000"
 3473      4D4F4445 
 3473      3D312C30 
 3473      0D0A00
 3474 0133 000000   		.space	3
 3475 0136 0000     		.space	2
 3476              	.LC42:
 3477 0138 41542B57 		.ascii	"AT+WMODE=2,0\015\012\000"
 3477      4D4F4445 
 3477      3D322C30 
 3477      0D0A00
 3478 0147 000000   		.space	3
 3479 014a 0000     		.space	2
 3480              	.LC44:
 3481 014c 41542B57 		.ascii	"AT+WMODE=3,0\015\012\000"
 3481      4D4F4445 
 3481      3D332C30 
 3481      0D0A00
 3482 015b 000000   		.space	3
 3483 015e 0000     		.space	2
 3484              	.LC46:
 3485 0160 41542B57 		.ascii	"AT+WSCAN\015\012\000"
 3485      5343414E 
 3485      0D0A00
ARM GAS  C:\Users\PRAJWA~1\AppData\Local\Temp\ccedcYia.s 			page 78


 3486 016b 00       		.space	1
 3487              	.LC64:
 3488 016c 41542B57 		.ascii	"AT+WJAP?\015\012\000"
 3488      4A41503F 
 3488      0D0A00
 3489 0177 0000     		.space	2
 3490              		.section	.rodata.str1.4,"aMS",%progbits,1
 3491              		.align	2
 3492              	.LC1:
 3493 0000 0D0A4F4B 		.ascii	"\015\012OK\015\012\000"
 3493      0D0A00
 3494 0007 00       		.space	1
 3495              	.LC3:
 3496 0008 0D0A4552 		.ascii	"\015\012ERROR\015\012\000"
 3496      524F520D 
 3496      0A00
 3497 0012 0000     		.space	2
 3498              	.LC11:
 3499 0014 25732564 		.ascii	"%s%d\015\012\000"
 3499      0D0A00
 3500 001b 00       		.space	1
 3501              	.LC15:
 3502 001c 393A2042 		.ascii	"9: BLE is OFF.\0120: BLE is configured in Slave Mod"
 3502      4C452069 
 3502      73204F46 
 3502      462E0A30 
 3502      3A20424C 
 3503 004c 652E0A31 		.ascii	"e.\0121: BLE is configured in Host Mode.\012\012\000"
 3503      3A20424C 
 3503      45206973 
 3503      20636F6E 
 3503      66696775 
 3504              	.LC23:
 3505 0074 41542B42 		.ascii	"AT+BLECONNECT=%s\015\012\000"
 3505      4C45434F 
 3505      4E4E4543 
 3505      543D2573 
 3505      0D0A00
 3506 0087 00       		.space	1
 3507              	.LC27:
 3508 0088 0D0A00   		.ascii	"\015\012\000"
 3509 008b 00       		.space	1
 3510              	.LC29:
 3511 008c 25732573 		.ascii	"%s%s\000"
 3511      00
 3512 0091 000000   		.space	3
 3513              	.LC35:
 3514 0094 303A2057 		.ascii	"0: WiFi is OFF.\0121: WiFi is configured as STA.\012"
 3514      69466920 
 3514      6973204F 
 3514      46462E0A 
 3514      313A2057 
 3515 00c2 323A2057 		.ascii	"2: WiFi is configured AP.\0123: WiFi is configured "
 3515      69466920 
 3515      69732063 
 3515      6F6E6669 
 3515      67757265 
ARM GAS  C:\Users\PRAJWA~1\AppData\Local\Temp\ccedcYia.s 			page 79


 3516 00f2 41502B53 		.ascii	"AP+STA.\012\012\000"
 3516      54412E0A 
 3516      0A00
 3517              	.LC48:
 3518 00fc 5363616E 		.ascii	"Scanning...\000"
 3518      6E696E67 
 3518      2E2E2E00 
 3519              	.LC51:
 3520 0108 5363616E 		.ascii	"Scanning Complete.\000"
 3520      6E696E67 
 3520      20436F6D 
 3520      706C6574 
 3520      652E00
 3521 011b 00       		.space	1
 3522              	.LC53:
 3523 011c 54727969 		.ascii	"Trying to connect with \000"
 3523      6E672074 
 3523      6F20636F 
 3523      6E6E6563 
 3523      74207769 
 3524              	.LC55:
 3525 0134 2E2E2E0A 		.ascii	"...\012\000"
 3525      00
 3526 0139 000000   		.space	3
 3527              	.LC57:
 3528 013c 41542B57 		.ascii	"AT+WJAP=%s,%s\015\012\000"
 3528      4A41503D 
 3528      25732C25 
 3528      730D0A00 
 3529              	.LC59:
 3530 014c 436F6E6E 		.ascii	"Connected\012\000"
 3530      65637465 
 3530      640A00
 3531 0157 00       		.space	1
 3532              	.LC61:
 3533 0158 436F6E6E 		.ascii	"Connection failed\012\000"
 3533      65637469 
 3533      6F6E2066 
 3533      61696C65 
 3533      640A00
 3534 016b 00       		.space	1
 3535              	.LC66:
 3536 016c 48545450 		.ascii	"HTTPS\000"
 3536      5300
 3537 0172 0000     		.space	2
 3538              	.LC68:
 3539 0174 68747470 		.ascii	"https\000"
 3539      7300
 3540 017a 0000     		.space	2
 3541              	.LC70:
 3542 017c 504F5354 		.ascii	"POST\000"
 3542      00
 3543 0181 000000   		.space	3
 3544              	.LC72:
 3545 0184 706F7374 		.ascii	"post\000"
 3545      00
 3546 0189 000000   		.space	3
ARM GAS  C:\Users\PRAJWA~1\AppData\Local\Temp\ccedcYia.s 			page 80


 3547              	.LC74:
 3548 018c 41542B48 		.ascii	"AT+HTTTPCLIENTLINE=%d,%d,application/json,%s,%d,%s,"
 3548      54545450 
 3548      434C4945 
 3548      4E544C49 
 3548      4E453D25 
 3549 01bf 25640D0A 		.ascii	"%d\015\012\000"
 3549      00
 3550              	.LC80:
 3551 01c4 41542B48 		.ascii	"AT+HTTTPCLIENTLINE=%d,%d,application/json,%s,%d,%s\015"
 3551      54545450 
 3551      434C4945 
 3551      4E544C49 
 3551      4E453D25 
 3552 01f7 0A00     		.ascii	"\012\000"
 3553 01f9 000000   		.space	3
 3554              	.LC82:
 3555 01fc 47657474 		.ascii	"Getting data. Please wait...\000"
 3555      696E6720 
 3555      64617461 
 3555      2E20506C 
 3555      65617365 
 3556 0219 000000   		.space	3
 3557              	.LC84:
 3558 021c 4A757374 		.ascii	"Just a bit longer...\012\000"
 3558      20612062 
 3558      6974206C 
 3558      6F6E6765 
 3558      722E2E2E 
 3559 0232 0000     		.space	2
 3560              	.LC87:
 3561 0234 37636239 		.ascii	"7cb94c3876b8\000"
 3561      34633338 
 3561      37366238 
 3561      00
 3562 0241 000000   		.space	3
 3563              	.LC89:
 3564 0244 520D0A00 		.ascii	"R\015\012\000"
 3565              	.LC91:
 3566 0248 470D0A00 		.ascii	"G\015\012\000"
 3567              	.LC93:
 3568 024c 420D0A00 		.ascii	"B\015\012\000"
 3569              	.LC95:
 3570 0250 570D0A00 		.ascii	"W\015\012\000"
 3571              	.LC97:
 3572 0254 430D0A00 		.ascii	"C\015\012\000"
 3573              	.LC99:
 3574 0258 4D0D0A00 		.ascii	"M\015\012\000"
 3575              	.LC101:
 3576 025c 590D0A00 		.ascii	"Y\015\012\000"
 3577              		.text
 3578              	.Letext0:
 3579              		.file 3 "c:\\program files (x86)\\cypress\\psoc creator\\4.4\\psoc creator\\import\\gnu\\arm\\5.4.
 3580              		.file 4 "c:\\program files (x86)\\cypress\\psoc creator\\4.4\\psoc creator\\import\\gnu\\arm\\5.4.
 3581              		.file 5 "Generated_Source\\PSoC4/cytypes.h"
 3582              		.file 6 "Generated_Source\\PSoC4/Mux_CapSense_Configuration.h"
 3583              		.file 7 "Generated_Source\\PSoC4/Mux_CapSense_Structure.h"
ARM GAS  C:\Users\PRAJWA~1\AppData\Local\Temp\ccedcYia.s 			page 81


 3584              		.file 8 "c:\\program files (x86)\\cypress\\psoc creator\\4.4\\psoc creator\\import\\gnu\\arm\\5.4.
 3585              		.file 9 "Generated_Source\\PSoC4/S3.h"
 3586              		.file 10 "Generated_Source\\PSoC4/S2.h"
 3587              		.file 11 "Generated_Source\\PSoC4/S1.h"
 3588              		.file 12 "Generated_Source\\PSoC4/S0.h"
 3589              		.file 13 "Generated_Source\\PSoC4/CyLib.h"
 3590              		.file 14 "Generated_Source\\PSoC4/UART_SPI_UART.h"
 3591              		.file 15 "Generated_Source\\PSoC4/CTRL.h"
 3592              		.file 16 "Generated_Source\\PSoC4/UART.h"
 3593              		.file 17 "c:\\program files (x86)\\cypress\\psoc creator\\4.4\\psoc creator\\import\\gnu\\arm\\5.4
 3594              		.file 18 "c:\\program files (x86)\\cypress\\psoc creator\\4.4\\psoc creator\\import\\gnu\\arm\\5.4
 3595              		.file 19 "c:\\program files (x86)\\cypress\\psoc creator\\4.4\\psoc creator\\import\\gnu\\arm\\5.4
 3596              		.file 20 "Generated_Source\\PSoC4/Counter_micros.h"
 3597              		.file 21 "Generated_Source\\PSoC4/EZI2C.h"
 3598              		.file 22 "Generated_Source\\PSoC4/EZI2C_EZI2C.h"
 3599              		.file 23 "Generated_Source\\PSoC4/Mux_CapSense_Control.h"
 3600              		.file 24 "Generated_Source\\PSoC4/Mux_CapSense_Sensing.h"
 3601              		.file 25 "Generated_Source\\PSoC4/Mux_CapSense_Tuner.h"
 3602              		.file 26 "Generated_Source\\PSoC4/Pin_Green.h"