ARM GAS  C:\Users\PRAJWA~1\AppData\Local\Temp\ccedcYia.s 			page 1


   1              		.syntax unified
   2              		.cpu cortex-m0
   3              		.fpu softvfp
   4              		.eabi_attribute 20, 1
   5              		.eabi_attribute 21, 1
   6              		.eabi_attribute 23, 3
   7              		.eabi_attribute 24, 1
   8              		.eabi_attribute 25, 1
   9              		.eabi_attribute 26, 1
  10              		.eabi_attribute 30, 1
  11              		.eabi_attribute 34, 0
  12              		.eabi_attribute 18, 4
  13              		.thumb
  14              		.syntax unified
  15              		.file	"main.c"
  16              		.text
  17              	.Ltext0:
  18              		.cfi_sections	.debug_frame
  19              		.section	.text.setmux,"ax",%progbits
  20              		.align	2
  21              		.global	setmux
  22              		.code	16
  23              		.thumb_func
  24              		.type	setmux, %function
  25              	setmux:
  26              	.LFB35:
  27              		.file 1 "PSoC.h"
   1:PSoC.h        **** /* ========================================
   2:PSoC.h        ****  *
   3:PSoC.h        ****  * Copyright YOUR COMPANY, THE YEAR
   4:PSoC.h        ****  * All Rights Reserved
   5:PSoC.h        ****  * UNPUBLISHED, LICENSED SOFTWARE.
   6:PSoC.h        ****  *
   7:PSoC.h        ****  * CONFIDENTIAL AND PROPRIETARY INFORMATION
   8:PSoC.h        ****  * WHICH IS THE PROPERTY OF your company.
   9:PSoC.h        ****  *
  10:PSoC.h        ****  * ========================================
  11:PSoC.h        **** */
  12:PSoC.h        **** 
  13:PSoC.h        **** #include "project.h"
  14:PSoC.h        **** #include "stdlib.h"
  15:PSoC.h        **** #include "stdio.h"
  16:PSoC.h        **** 
  17:PSoC.h        **** #ifndef PSOC_H
  18:PSoC.h        **** #define PSOC_H
  19:PSoC.h        **** 
  20:PSoC.h        **** #define TIMEOUT 1000
  21:PSoC.h        **** #define ADC_MODE 0
  22:PSoC.h        **** #define DAC_MODE 1
  23:PSoC.h        **** 
  24:PSoC.h        **** #define BLE 1
  25:PSoC.h        **** #define USB 0
  26:PSoC.h        ****     
  27:PSoC.h        **** #define LOW   0
  28:PSoC.h        **** #define HIGH  1
  29:PSoC.h        **** 
  30:PSoC.h        **** #define ON  0
ARM GAS  C:\Users\PRAJWA~1\AppData\Local\Temp\ccedcYia.s 			page 2


  31:PSoC.h        **** #define OFF 1
  32:PSoC.h        **** 
  33:PSoC.h        **** #define C1   11
  34:PSoC.h        **** #define C2   12
  35:PSoC.h        **** #define C3   13
  36:PSoC.h        **** #define C4   14
  37:PSoC.h        **** #define C5   15
  38:PSoC.h        **** #define C6   16
  39:PSoC.h        **** #define C7   17
  40:PSoC.h        **** #define C8   18
  41:PSoC.h        **** #define C9   19
  42:PSoC.h        **** #define C10 110
  43:PSoC.h        **** #define C11 111
  44:PSoC.h        **** #define C12 112
  45:PSoC.h        **** #define C13 113
  46:PSoC.h        **** #define C14 114
  47:PSoC.h        **** #define C15 115
  48:PSoC.h        **** #define C16 116
  49:PSoC.h        **** 
  50:PSoC.h        **** #define C_A  11
  51:PSoC.h        **** #define C_B  12
  52:PSoC.h        **** #define C_C  13
  53:PSoC.h        **** #define C_D  14
  54:PSoC.h        **** #define C_E  15
  55:PSoC.h        **** #define C_F  16
  56:PSoC.h        **** #define C_G  17
  57:PSoC.h        **** #define C_H  18
  58:PSoC.h        **** #define C_I  19
  59:PSoC.h        **** #define C_J 110
  60:PSoC.h        **** #define C_K 111
  61:PSoC.h        **** #define C_L 112
  62:PSoC.h        **** #define C_M 113
  63:PSoC.h        **** #define C_N 114
  64:PSoC.h        **** #define C_O 115
  65:PSoC.h        **** #define C_P 116
  66:PSoC.h        **** 
  67:PSoC.h        **** # define O1  0
  68:PSoC.h        **** # define O2  1
  69:PSoC.h        **** # define O3  2
  70:PSoC.h        **** # define O4  3
  71:PSoC.h        **** # define O5  4
  72:PSoC.h        **** # define O6  5
  73:PSoC.h        **** # define O7  6
  74:PSoC.h        **** # define O8  7
  75:PSoC.h        **** # define O9  8
  76:PSoC.h        **** # define O10 9
  77:PSoC.h        **** # define O11 10
  78:PSoC.h        **** # define O12 11
  79:PSoC.h        **** # define O13 12
  80:PSoC.h        **** # define O14 13
  81:PSoC.h        **** # define O15 14
  82:PSoC.h        **** # define O16 15
  83:PSoC.h        **** 
  84:PSoC.h        **** # define I1  0
  85:PSoC.h        **** # define I2  1
  86:PSoC.h        **** # define I3  2
  87:PSoC.h        **** # define I4  3
ARM GAS  C:\Users\PRAJWA~1\AppData\Local\Temp\ccedcYia.s 			page 3


  88:PSoC.h        **** # define I5  4
  89:PSoC.h        **** # define I6  5
  90:PSoC.h        **** # define I7  6
  91:PSoC.h        **** # define I8  7
  92:PSoC.h        **** # define I9  8
  93:PSoC.h        **** # define I10 9
  94:PSoC.h        **** # define I11 10
  95:PSoC.h        **** # define I12 11
  96:PSoC.h        **** # define I13 12
  97:PSoC.h        **** # define I14 13
  98:PSoC.h        **** # define I15 14
  99:PSoC.h        **** # define I16 15
 100:PSoC.h        **** 
 101:PSoC.h        **** #define MISO 59
 102:PSoC.h        **** #define MOSI 58
 103:PSoC.h        **** #define SCLK 60
 104:PSoC.h        **** 
 105:PSoC.h        **** #define SCL 12
 106:PSoC.h        **** #define SDA 13
 107:PSoC.h        **** 
 108:PSoC.h        **** #define AMOSI 38
 109:PSoC.h        **** #define AMISO 37
 110:PSoC.h        **** 
 111:PSoC.h        **** #define ANALOG_IO 8
 112:PSoC.h        **** #define R_LED 64
 113:PSoC.h        **** #define G_LED 15
 114:PSoC.h        **** #define B_LED 6
 115:PSoC.h        ****     
 116:PSoC.h        **** 
 117:PSoC.h        ****     
 118:PSoC.h        **** struct PSC_McM_6_00{
 119:PSoC.h        ****     uint8 A_Dstate;
 120:PSoC.h        ****     uint32 A_D_period;
 121:PSoC.h        ****     struct boardconf{
 122:PSoC.h        ****         uint8 reserved;
 123:PSoC.h        ****         uint8 brdtype;
 124:PSoC.h        ****         uint8 brdno;
 125:PSoC.h        ****     }b;
 126:PSoC.h        ****     uint8_t con_, sync_;
 127:PSoC.h        ****     struct {
 128:PSoC.h        ****         uint8 timer;// = 6;
 129:PSoC.h        ****         uint freq;// = 5000;
 130:PSoC.h        ****         uint res;//  = 12;
 131:PSoC.h        ****     }dac;
 132:PSoC.h        ****     struct {
 133:PSoC.h        ****         uint32_t device_id;
 134:PSoC.h        ****     }flash;
 135:PSoC.h        ****     struct{
 136:PSoC.h        ****         char ssid[100];
 137:PSoC.h        ****         char password[100];
 138:PSoC.h        ****         char mac[20];
 139:PSoC.h        ****     }bleWiFi;
 140:PSoC.h        **** };
 141:PSoC.h        **** 
 142:PSoC.h        **** void setmux(struct PSC_McM_6_00 *p, int a){
  28              		.loc 1 142 0
  29              		.cfi_startproc
ARM GAS  C:\Users\PRAJWA~1\AppData\Local\Temp\ccedcYia.s 			page 4


  30              		@ args = 0, pretend = 0, frame = 0
  31              		@ frame_needed = 0, uses_anonymous_args = 0
  32              	.LVL0:
  33 0000 10B5     		push	{r4, lr}
  34              		.cfi_def_cfa_offset 8
  35              		.cfi_offset 4, -8
  36              		.cfi_offset 14, -4
 143:PSoC.h        ****     switch(a){
  37              		.loc 1 143 0
  38 0002 0F29     		cmp	r1, #15
  39 0004 00D9     		bls	.LCB11
  40 0006 D2E0     		b	.L1	@long jump
  41              	.LCB11:
  42 0008 8900     		lsls	r1, r1, #2
  43              	.LVL1:
  44 000a 694B     		ldr	r3, .L20
  45 000c 5B58     		ldr	r3, [r3, r1]
  46 000e 9F46     		mov	pc, r3
  47              		.section	.rodata
  48              		.align	2
  49              	.L4:
  50 0000 10000000 		.word	.L3
  51 0004 2A000000 		.word	.L5
  52 0008 44000000 		.word	.L6
  53 000c 5E000000 		.word	.L7
  54 0010 78000000 		.word	.L8
  55 0014 92000000 		.word	.L9
  56 0018 AC000000 		.word	.L10
  57 001c C6000000 		.word	.L11
  58 0020 E0000000 		.word	.L12
  59 0024 FA000000 		.word	.L13
  60 0028 14010000 		.word	.L14
  61 002c 2E010000 		.word	.L15
  62 0030 48010000 		.word	.L16
  63 0034 62010000 		.word	.L17
  64 0038 7C010000 		.word	.L18
  65 003c 96010000 		.word	.L19
  66              		.section	.text.setmux
  67              	.L3:
 144:PSoC.h        ****         case  I1:    S3_Write(0);   S2_Write(0);    S1_Write(0);    S0_Write(0);     break;
  68              		.loc 1 144 0
  69 0010 0020     		movs	r0, #0
  70              	.LVL2:
  71 0012 FFF7FEFF 		bl	S3_Write
  72              	.LVL3:
  73 0016 0020     		movs	r0, #0
  74 0018 FFF7FEFF 		bl	S2_Write
  75              	.LVL4:
  76 001c 0020     		movs	r0, #0
  77 001e FFF7FEFF 		bl	S1_Write
  78              	.LVL5:
  79 0022 0020     		movs	r0, #0
  80 0024 FFF7FEFF 		bl	S0_Write
  81              	.LVL6:
  82 0028 C1E0     		b	.L1
  83              	.LVL7:
  84              	.L5:
ARM GAS  C:\Users\PRAJWA~1\AppData\Local\Temp\ccedcYia.s 			page 5


 145:PSoC.h        ****         case  I2:    S3_Write(0);   S2_Write(0);    S1_Write(0);    S0_Write(1);     break;
  85              		.loc 1 145 0
  86 002a 0020     		movs	r0, #0
  87              	.LVL8:
  88 002c FFF7FEFF 		bl	S3_Write
  89              	.LVL9:
  90 0030 0020     		movs	r0, #0
  91 0032 FFF7FEFF 		bl	S2_Write
  92              	.LVL10:
  93 0036 0020     		movs	r0, #0
  94 0038 FFF7FEFF 		bl	S1_Write
  95              	.LVL11:
  96 003c 0120     		movs	r0, #1
  97 003e FFF7FEFF 		bl	S0_Write
  98              	.LVL12:
  99 0042 B4E0     		b	.L1
 100              	.LVL13:
 101              	.L6:
 146:PSoC.h        ****         case  I3:    S3_Write(0);   S2_Write(0);    S1_Write(1);    S0_Write(0);     break;
 102              		.loc 1 146 0
 103 0044 0020     		movs	r0, #0
 104              	.LVL14:
 105 0046 FFF7FEFF 		bl	S3_Write
 106              	.LVL15:
 107 004a 0020     		movs	r0, #0
 108 004c FFF7FEFF 		bl	S2_Write
 109              	.LVL16:
 110 0050 0120     		movs	r0, #1
 111 0052 FFF7FEFF 		bl	S1_Write
 112              	.LVL17:
 113 0056 0020     		movs	r0, #0
 114 0058 FFF7FEFF 		bl	S0_Write
 115              	.LVL18:
 116 005c A7E0     		b	.L1
 117              	.LVL19:
 118              	.L7:
 147:PSoC.h        ****         case  I4:    S3_Write(0);   S2_Write(0);    S1_Write(1);    S0_Write(1);     break;
 119              		.loc 1 147 0
 120 005e 0020     		movs	r0, #0
 121              	.LVL20:
 122 0060 FFF7FEFF 		bl	S3_Write
 123              	.LVL21:
 124 0064 0020     		movs	r0, #0
 125 0066 FFF7FEFF 		bl	S2_Write
 126              	.LVL22:
 127 006a 0120     		movs	r0, #1
 128 006c FFF7FEFF 		bl	S1_Write
 129              	.LVL23:
 130 0070 0120     		movs	r0, #1
 131 0072 FFF7FEFF 		bl	S0_Write
 132              	.LVL24:
 133 0076 9AE0     		b	.L1
 134              	.LVL25:
 135              	.L8:
 148:PSoC.h        ****         case  I5:    S3_Write(0);   S2_Write(1);    S1_Write(0);    S0_Write(0);     break;
 136              		.loc 1 148 0
 137 0078 0020     		movs	r0, #0
ARM GAS  C:\Users\PRAJWA~1\AppData\Local\Temp\ccedcYia.s 			page 6


 138              	.LVL26:
 139 007a FFF7FEFF 		bl	S3_Write
 140              	.LVL27:
 141 007e 0120     		movs	r0, #1
 142 0080 FFF7FEFF 		bl	S2_Write
 143              	.LVL28:
 144 0084 0020     		movs	r0, #0
 145 0086 FFF7FEFF 		bl	S1_Write
 146              	.LVL29:
 147 008a 0020     		movs	r0, #0
 148 008c FFF7FEFF 		bl	S0_Write
 149              	.LVL30:
 150 0090 8DE0     		b	.L1
 151              	.LVL31:
 152              	.L9:
 149:PSoC.h        ****         case  I6:    S3_Write(0);   S2_Write(1);    S1_Write(0);    S0_Write(1);     break;
 153              		.loc 1 149 0
 154 0092 0020     		movs	r0, #0
 155              	.LVL32:
 156 0094 FFF7FEFF 		bl	S3_Write
 157              	.LVL33:
 158 0098 0120     		movs	r0, #1
 159 009a FFF7FEFF 		bl	S2_Write
 160              	.LVL34:
 161 009e 0020     		movs	r0, #0
 162 00a0 FFF7FEFF 		bl	S1_Write
 163              	.LVL35:
 164 00a4 0120     		movs	r0, #1
 165 00a6 FFF7FEFF 		bl	S0_Write
 166              	.LVL36:
 167 00aa 80E0     		b	.L1
 168              	.LVL37:
 169              	.L10:
 150:PSoC.h        ****         case  I7:    S3_Write(0);   S2_Write(1);    S1_Write(1);    S0_Write(0);     break;
 170              		.loc 1 150 0
 171 00ac 0020     		movs	r0, #0
 172              	.LVL38:
 173 00ae FFF7FEFF 		bl	S3_Write
 174              	.LVL39:
 175 00b2 0120     		movs	r0, #1
 176 00b4 FFF7FEFF 		bl	S2_Write
 177              	.LVL40:
 178 00b8 0120     		movs	r0, #1
 179 00ba FFF7FEFF 		bl	S1_Write
 180              	.LVL41:
 181 00be 0020     		movs	r0, #0
 182 00c0 FFF7FEFF 		bl	S0_Write
 183              	.LVL42:
 184 00c4 73E0     		b	.L1
 185              	.LVL43:
 186              	.L11:
 151:PSoC.h        ****         case  I8:    S3_Write(0);   S2_Write(1);    S1_Write(1);    S0_Write(1);     break;
 187              		.loc 1 151 0
 188 00c6 0020     		movs	r0, #0
 189              	.LVL44:
 190 00c8 FFF7FEFF 		bl	S3_Write
 191              	.LVL45:
ARM GAS  C:\Users\PRAJWA~1\AppData\Local\Temp\ccedcYia.s 			page 7


 192 00cc 0120     		movs	r0, #1
 193 00ce FFF7FEFF 		bl	S2_Write
 194              	.LVL46:
 195 00d2 0120     		movs	r0, #1
 196 00d4 FFF7FEFF 		bl	S1_Write
 197              	.LVL47:
 198 00d8 0120     		movs	r0, #1
 199 00da FFF7FEFF 		bl	S0_Write
 200              	.LVL48:
 201 00de 66E0     		b	.L1
 202              	.LVL49:
 203              	.L12:
 152:PSoC.h        ****         case  I9:    S3_Write(1);   S2_Write(0);    S1_Write(0);    S0_Write(0);     break;
 204              		.loc 1 152 0
 205 00e0 0120     		movs	r0, #1
 206              	.LVL50:
 207 00e2 FFF7FEFF 		bl	S3_Write
 208              	.LVL51:
 209 00e6 0020     		movs	r0, #0
 210 00e8 FFF7FEFF 		bl	S2_Write
 211              	.LVL52:
 212 00ec 0020     		movs	r0, #0
 213 00ee FFF7FEFF 		bl	S1_Write
 214              	.LVL53:
 215 00f2 0020     		movs	r0, #0
 216 00f4 FFF7FEFF 		bl	S0_Write
 217              	.LVL54:
 218 00f8 59E0     		b	.L1
 219              	.LVL55:
 220              	.L13:
 153:PSoC.h        ****         case I10:    S3_Write(1);   S2_Write(0);    S1_Write(0);    S0_Write(1);     break;
 221              		.loc 1 153 0
 222 00fa 0120     		movs	r0, #1
 223              	.LVL56:
 224 00fc FFF7FEFF 		bl	S3_Write
 225              	.LVL57:
 226 0100 0020     		movs	r0, #0
 227 0102 FFF7FEFF 		bl	S2_Write
 228              	.LVL58:
 229 0106 0020     		movs	r0, #0
 230 0108 FFF7FEFF 		bl	S1_Write
 231              	.LVL59:
 232 010c 0120     		movs	r0, #1
 233 010e FFF7FEFF 		bl	S0_Write
 234              	.LVL60:
 235 0112 4CE0     		b	.L1
 236              	.LVL61:
 237              	.L14:
 154:PSoC.h        ****         case I11:    S3_Write(1);   S2_Write(0);    S1_Write(1);    S0_Write(0);     break;
 238              		.loc 1 154 0
 239 0114 0120     		movs	r0, #1
 240              	.LVL62:
 241 0116 FFF7FEFF 		bl	S3_Write
 242              	.LVL63:
 243 011a 0020     		movs	r0, #0
 244 011c FFF7FEFF 		bl	S2_Write
 245              	.LVL64:
ARM GAS  C:\Users\PRAJWA~1\AppData\Local\Temp\ccedcYia.s 			page 8


 246 0120 0120     		movs	r0, #1
 247 0122 FFF7FEFF 		bl	S1_Write
 248              	.LVL65:
 249 0126 0020     		movs	r0, #0
 250 0128 FFF7FEFF 		bl	S0_Write
 251              	.LVL66:
 252 012c 3FE0     		b	.L1
 253              	.LVL67:
 254              	.L15:
 155:PSoC.h        ****         case I12:    S3_Write(1);   S2_Write(0);    S1_Write(1);    S0_Write(1);     break;
 255              		.loc 1 155 0
 256 012e 0120     		movs	r0, #1
 257              	.LVL68:
 258 0130 FFF7FEFF 		bl	S3_Write
 259              	.LVL69:
 260 0134 0020     		movs	r0, #0
 261 0136 FFF7FEFF 		bl	S2_Write
 262              	.LVL70:
 263 013a 0120     		movs	r0, #1
 264 013c FFF7FEFF 		bl	S1_Write
 265              	.LVL71:
 266 0140 0120     		movs	r0, #1
 267 0142 FFF7FEFF 		bl	S0_Write
 268              	.LVL72:
 269 0146 32E0     		b	.L1
 270              	.LVL73:
 271              	.L16:
 156:PSoC.h        ****         case I13:    S3_Write(1);   S2_Write(1);    S1_Write(0);    S0_Write(0);     break;
 272              		.loc 1 156 0
 273 0148 0120     		movs	r0, #1
 274              	.LVL74:
 275 014a FFF7FEFF 		bl	S3_Write
 276              	.LVL75:
 277 014e 0120     		movs	r0, #1
 278 0150 FFF7FEFF 		bl	S2_Write
 279              	.LVL76:
 280 0154 0020     		movs	r0, #0
 281 0156 FFF7FEFF 		bl	S1_Write
 282              	.LVL77:
 283 015a 0020     		movs	r0, #0
 284 015c FFF7FEFF 		bl	S0_Write
 285              	.LVL78:
 286 0160 25E0     		b	.L1
 287              	.LVL79:
 288              	.L17:
 157:PSoC.h        ****         case I14:    S3_Write(1);   S2_Write(1);    S1_Write(0);    S0_Write(1);     break;
 289              		.loc 1 157 0
 290 0162 0120     		movs	r0, #1
 291              	.LVL80:
 292 0164 FFF7FEFF 		bl	S3_Write
 293              	.LVL81:
 294 0168 0120     		movs	r0, #1
 295 016a FFF7FEFF 		bl	S2_Write
 296              	.LVL82:
 297 016e 0020     		movs	r0, #0
 298 0170 FFF7FEFF 		bl	S1_Write
 299              	.LVL83:
ARM GAS  C:\Users\PRAJWA~1\AppData\Local\Temp\ccedcYia.s 			page 9


 300 0174 0120     		movs	r0, #1
 301 0176 FFF7FEFF 		bl	S0_Write
 302              	.LVL84:
 303 017a 18E0     		b	.L1
 304              	.LVL85:
 305              	.L18:
 158:PSoC.h        ****         case I15:    S3_Write(1);   S2_Write(1);    S1_Write(1);    S0_Write(0);     break;
 306              		.loc 1 158 0
 307 017c 0120     		movs	r0, #1
 308              	.LVL86:
 309 017e FFF7FEFF 		bl	S3_Write
 310              	.LVL87:
 311 0182 0120     		movs	r0, #1
 312 0184 FFF7FEFF 		bl	S2_Write
 313              	.LVL88:
 314 0188 0120     		movs	r0, #1
 315 018a FFF7FEFF 		bl	S1_Write
 316              	.LVL89:
 317 018e 0020     		movs	r0, #0
 318 0190 FFF7FEFF 		bl	S0_Write
 319              	.LVL90:
 320 0194 0BE0     		b	.L1
 321              	.LVL91:
 322              	.L19:
 159:PSoC.h        ****         case I16:    S3_Write(1);   S2_Write(1);    S1_Write(1);    S0_Write(1);     break;
 323              		.loc 1 159 0
 324 0196 0120     		movs	r0, #1
 325              	.LVL92:
 326 0198 FFF7FEFF 		bl	S3_Write
 327              	.LVL93:
 328 019c 0120     		movs	r0, #1
 329 019e FFF7FEFF 		bl	S2_Write
 330              	.LVL94:
 331 01a2 0120     		movs	r0, #1
 332 01a4 FFF7FEFF 		bl	S1_Write
 333              	.LVL95:
 334 01a8 0120     		movs	r0, #1
 335 01aa FFF7FEFF 		bl	S0_Write
 336              	.LVL96:
 337              	.L1:
 160:PSoC.h        ****     }
 161:PSoC.h        **** }
 338              		.loc 1 161 0
 339              		@ sp needed
 340 01ae 10BD     		pop	{r4, pc}
 341              	.L21:
 342              		.align	2
 343              	.L20:
 344 01b0 00000000 		.word	.L4
 345              		.cfi_endproc
 346              	.LFE35:
 347              		.size	setmux, .-setmux
 348              		.section	.text.delay,"ax",%progbits
 349              		.align	2
 350              		.global	delay
 351              		.code	16
 352              		.thumb_func
ARM GAS  C:\Users\PRAJWA~1\AppData\Local\Temp\ccedcYia.s 			page 10


 353              		.type	delay, %function
 354              	delay:
 355              	.LFB36:
 162:PSoC.h        **** 
 163:PSoC.h        **** void delay(int val){
 356              		.loc 1 163 0
 357              		.cfi_startproc
 358              		@ args = 0, pretend = 0, frame = 0
 359              		@ frame_needed = 0, uses_anonymous_args = 0
 360              	.LVL97:
 361 0000 10B5     		push	{r4, lr}
 362              		.cfi_def_cfa_offset 8
 363              		.cfi_offset 4, -8
 364              		.cfi_offset 14, -4
 164:PSoC.h        ****     CyDelay(val);
 365              		.loc 1 164 0
 366 0002 FFF7FEFF 		bl	CyDelay
 367              	.LVL98:
 165:PSoC.h        **** }
 368              		.loc 1 165 0
 369              		@ sp needed
 370 0006 10BD     		pop	{r4, pc}
 371              		.cfi_endproc
 372              	.LFE36:
 373              		.size	delay, .-delay
 374              		.section	.text.switchTo,"ax",%progbits
 375              		.align	2
 376              		.global	switchTo
 377              		.code	16
 378              		.thumb_func
 379              		.type	switchTo, %function
 380              	switchTo:
 381              	.LFB37:
 166:PSoC.h        **** 
 167:PSoC.h        **** void switchTo(uint8 val){
 382              		.loc 1 167 0
 383              		.cfi_startproc
 384              		@ args = 0, pretend = 0, frame = 0
 385              		@ frame_needed = 0, uses_anonymous_args = 0
 386              	.LVL99:
 387 0000 70B5     		push	{r4, r5, r6, lr}
 388              		.cfi_def_cfa_offset 16
 389              		.cfi_offset 4, -16
 390              		.cfi_offset 5, -12
 391              		.cfi_offset 6, -8
 392              		.cfi_offset 14, -4
 393 0002 0500     		movs	r5, r0
 394              	.LVL100:
 168:PSoC.h        ****     uint16 timeout=10000;
 395              		.loc 1 168 0
 396 0004 084C     		ldr	r4, .L27
 169:PSoC.h        ****     while(UART_SpiUartGetTxBufferSize() != 0 && timeout){timeout--;};
 397              		.loc 1 169 0
 398 0006 01E0     		b	.L24
 399              	.LVL101:
 400              	.L26:
 401              		.loc 1 169 0 is_stmt 0 discriminator 3
ARM GAS  C:\Users\PRAJWA~1\AppData\Local\Temp\ccedcYia.s 			page 11


 402 0008 013C     		subs	r4, r4, #1
 403              	.LVL102:
 404 000a A4B2     		uxth	r4, r4
 405              	.LVL103:
 406              	.L24:
 407              		.loc 1 169 0 discriminator 1
 408 000c FFF7FEFF 		bl	UART_SpiUartGetTxBufferSize
 409              	.LVL104:
 410 0010 0028     		cmp	r0, #0
 411 0012 01D0     		beq	.L25
 412              		.loc 1 169 0 discriminator 2
 413 0014 002C     		cmp	r4, #0
 414 0016 F7D1     		bne	.L26
 415              	.L25:
 170:PSoC.h        ****     UART_SpiUartClearTxBuffer();
 416              		.loc 1 170 0 is_stmt 1
 417 0018 FFF7FEFF 		bl	UART_SpiUartClearTxBuffer
 418              	.LVL105:
 171:PSoC.h        ****     UART_SpiUartClearRxBuffer();
 419              		.loc 1 171 0
 420 001c FFF7FEFF 		bl	UART_SpiUartClearRxBuffer
 421              	.LVL106:
 172:PSoC.h        ****     CTRL_Write(val);
 422              		.loc 1 172 0
 423 0020 2800     		movs	r0, r5
 424 0022 FFF7FEFF 		bl	CTRL_Write
 425              	.LVL107:
 173:PSoC.h        **** }
 426              		.loc 1 173 0
 427              		@ sp needed
 428              	.LVL108:
 429 0026 70BD     		pop	{r4, r5, r6, pc}
 430              	.L28:
 431              		.align	2
 432              	.L27:
 433 0028 10270000 		.word	10000
 434              		.cfi_endproc
 435              	.LFE37:
 436              		.size	switchTo, .-switchTo
 437              		.section	.text.PSC_McM_6_00_init,"ax",%progbits
 438              		.align	2
 439              		.global	PSC_McM_6_00_init
 440              		.code	16
 441              		.thumb_func
 442              		.type	PSC_McM_6_00_init, %function
 443              	PSC_McM_6_00_init:
 444              	.LFB38:
 174:PSoC.h        **** 
 175:PSoC.h        **** void PSC_McM_6_00_init(struct PSC_McM_6_00 *p){
 445              		.loc 1 175 0
 446              		.cfi_startproc
 447              		@ args = 0, pretend = 0, frame = 0
 448              		@ frame_needed = 0, uses_anonymous_args = 0
 449              	.LVL109:
 450 0000 10B5     		push	{r4, lr}
 451              		.cfi_def_cfa_offset 8
 452              		.cfi_offset 4, -8
ARM GAS  C:\Users\PRAJWA~1\AppData\Local\Temp\ccedcYia.s 			page 12


 453              		.cfi_offset 14, -4
 176:PSoC.h        ****     UART_Start();
 454              		.loc 1 176 0
 455 0002 FFF7FEFF 		bl	UART_Start
 456              	.LVL110:
 177:PSoC.h        ****     switchTo(USB);
 457              		.loc 1 177 0
 458 0006 0020     		movs	r0, #0
 459 0008 FFF7FEFF 		bl	switchTo
 460              	.LVL111:
 178:PSoC.h        **** }
 461              		.loc 1 178 0
 462              		@ sp needed
 463 000c 10BD     		pop	{r4, pc}
 464              		.cfi_endproc
 465              	.LFE38:
 466              		.size	PSC_McM_6_00_init, .-PSC_McM_6_00_init
 467 000e C046     		.section	.text.sendCmd,"ax",%progbits
 468              		.align	2
 469              		.global	sendCmd
 470              		.code	16
 471              		.thumb_func
 472              		.type	sendCmd, %function
 473              	sendCmd:
 474              	.LFB39:
 179:PSoC.h        **** 
 180:PSoC.h        **** //ble+wifi
 181:PSoC.h        **** 
 182:PSoC.h        **** int sendCmd(struct PSC_McM_6_00 *p, char *cmd, char *rec_data, int len, unsigned long long timeout,
 475              		.loc 1 182 0
 476              		.cfi_startproc
 477              		@ args = 12, pretend = 0, frame = 0
 478              		@ frame_needed = 0, uses_anonymous_args = 0
 479              	.LVL112:
 480 0000 F0B5     		push	{r4, r5, r6, r7, lr}
 481              		.cfi_def_cfa_offset 20
 482              		.cfi_offset 4, -20
 483              		.cfi_offset 5, -16
 484              		.cfi_offset 6, -12
 485              		.cfi_offset 7, -8
 486              		.cfi_offset 14, -4
 487 0002 5746     		mov	r7, r10
 488 0004 4E46     		mov	r6, r9
 489 0006 4546     		mov	r5, r8
 490 0008 E0B4     		push	{r5, r6, r7}
 491              		.cfi_def_cfa_offset 32
 492              		.cfi_offset 8, -32
 493              		.cfi_offset 9, -28
 494              		.cfi_offset 10, -24
 495 000a 0E00     		movs	r6, r1
 496 000c 9246     		mov	r10, r2
 497 000e 9846     		mov	r8, r3
 498 0010 08AB     		add	r3, sp, #32
 499              	.LVL113:
 500 0012 30CB     		ldmia	r3!, {r4, r5}
 501              	.LVL114:
 502 0014 1F78     		ldrb	r7, [r3]
ARM GAS  C:\Users\PRAJWA~1\AppData\Local\Temp\ccedcYia.s 			page 13


 183:PSoC.h        **** 
 184:PSoC.h        ****     switchTo(BLE);
 503              		.loc 1 184 0
 504 0016 0120     		movs	r0, #1
 505              	.LVL115:
 506 0018 FFF7FEFF 		bl	switchTo
 507              	.LVL116:
 185:PSoC.h        ****     
 186:PSoC.h        ****     int i=0, temp=0;
 187:PSoC.h        ****     char *ptr = rec_data;
 188:PSoC.h        ****     unsigned long long to = timeout;
 189:PSoC.h        ****     UART_UartPutString(cmd);
 508              		.loc 1 189 0
 509 001c 3000     		movs	r0, r6
 510 001e FFF7FEFF 		bl	UART_UartPutString
 511              	.LVL117:
 190:PSoC.h        ****       
 191:PSoC.h        ****     if(Delay) delay(1000);
 512              		.loc 1 191 0
 513 0022 002F     		cmp	r7, #0
 514 0024 03D0     		beq	.L31
 515              		.loc 1 191 0 is_stmt 0 discriminator 1
 516 0026 FA20     		movs	r0, #250
 517 0028 8000     		lsls	r0, r0, #2
 518 002a FFF7FEFF 		bl	delay
 519              	.LVL118:
 520              	.L31:
 182:PSoC.h        **** 
 521              		.loc 1 182 0 is_stmt 1
 522 002e D146     		mov	r9, r10
 523 0030 0026     		movs	r6, #0
 524              	.LVL119:
 525              	.L32:
 192:PSoC.h        ****     
 193:PSoC.h        ****     for(;;)
 194:PSoC.h        ****     {
 195:PSoC.h        ****         to--;
 526              		.loc 1 195 0
 527 0032 0122     		movs	r2, #1
 528 0034 5242     		rsbs	r2, r2, #0
 529 0036 D317     		asrs	r3, r2, #31
 530 0038 A418     		adds	r4, r4, r2
 531 003a 5D41     		adcs	r5, r5, r3
 532              	.LVL120:
 196:PSoC.h        ****         if(!to) {temp = -2; break;}
 533              		.loc 1 196 0
 534 003c 2300     		movs	r3, r4
 535 003e 2B43     		orrs	r3, r5
 536 0040 25D0     		beq	.L38
 197:PSoC.h        ****        
 198:PSoC.h        ****         if((UART_SpiUartGetRxBufferSize() != 0) && i<len)
 537              		.loc 1 198 0
 538 0042 FFF7FEFF 		bl	UART_SpiUartGetRxBufferSize
 539              	.LVL121:
 540 0046 0028     		cmp	r0, #0
 541 0048 F3D0     		beq	.L32
 542              		.loc 1 198 0 is_stmt 0 discriminator 1
ARM GAS  C:\Users\PRAJWA~1\AppData\Local\Temp\ccedcYia.s 			page 14


 543 004a 4645     		cmp	r6, r8
 544 004c F1DA     		bge	.L32
 199:PSoC.h        ****         {
 200:PSoC.h        ****             rec_data[i] = UART_SpiUartReadRxData();
 545              		.loc 1 200 0 is_stmt 1
 546 004e 5346     		mov	r3, r10
 547 0050 9F19     		adds	r7, r3, r6
 548 0052 FFF7FEFF 		bl	UART_SpiUartReadRxData
 549              	.LVL122:
 550 0056 3870     		strb	r0, [r7]
 201:PSoC.h        **** 
 202:PSoC.h        ****             if ((i>4) && (strncmp(ptr-5, "\r\nOK\r\n",6)==0))     {temp = i-6; break;}
 551              		.loc 1 202 0
 552 0058 042E     		cmp	r6, #4
 553 005a 09DD     		ble	.L36
 554              		.loc 1 202 0 is_stmt 0 discriminator 1
 555 005c 4B46     		mov	r3, r9
 556 005e 581F     		subs	r0, r3, #5
 557 0060 0622     		movs	r2, #6
 558 0062 1249     		ldr	r1, .L40
 559 0064 FFF7FEFF 		bl	strncmp
 560              	.LVL123:
 561 0068 0028     		cmp	r0, #0
 562 006a 01D1     		bne	.L36
 563              		.loc 1 202 0 discriminator 2
 564 006c 063E     		subs	r6, r6, #6
 565              	.LVL124:
 566 006e 13E0     		b	.L33
 567              	.LVL125:
 568              	.L36:
 203:PSoC.h        ****             if ((i>7) && (strncmp(ptr-8, "\r\nERROR\r\n",9)==0))  {temp =  -1; break;}
 569              		.loc 1 203 0 is_stmt 1
 570 0070 072E     		cmp	r6, #7
 571 0072 07DD     		ble	.L37
 572              		.loc 1 203 0 is_stmt 0 discriminator 1
 573 0074 0922     		movs	r2, #9
 574 0076 0E49     		ldr	r1, .L40+4
 575 0078 4846     		mov	r0, r9
 576 007a 0838     		subs	r0, r0, #8
 577 007c FFF7FEFF 		bl	strncmp
 578              	.LVL126:
 579 0080 0028     		cmp	r0, #0
 580 0082 07D0     		beq	.L39
 581              	.L37:
 204:PSoC.h        ****           
 205:PSoC.h        ****             i++; ptr++;
 582              		.loc 1 205 0 is_stmt 1
 583 0084 0136     		adds	r6, r6, #1
 584              	.LVL127:
 585 0086 0123     		movs	r3, #1
 586 0088 9C46     		mov	ip, r3
 587 008a E144     		add	r9, r9, ip
 588              	.LVL128:
 589 008c D1E7     		b	.L32
 590              	.L38:
 196:PSoC.h        ****        
 591              		.loc 1 196 0
ARM GAS  C:\Users\PRAJWA~1\AppData\Local\Temp\ccedcYia.s 			page 15


 592 008e 0226     		movs	r6, #2
 593              	.LVL129:
 594 0090 7642     		rsbs	r6, r6, #0
 595 0092 01E0     		b	.L33
 596              	.LVL130:
 597              	.L39:
 203:PSoC.h        ****             if ((i>7) && (strncmp(ptr-8, "\r\nERROR\r\n",9)==0))  {temp =  -1; break;}
 598              		.loc 1 203 0
 599 0094 0126     		movs	r6, #1
 600              	.LVL131:
 601 0096 7642     		rsbs	r6, r6, #0
 602              	.LVL132:
 603              	.L33:
 206:PSoC.h        ****         }
 207:PSoC.h        ****     }
 208:PSoC.h        ****     
 209:PSoC.h        ****     switchTo(USB);
 604              		.loc 1 209 0
 605 0098 0020     		movs	r0, #0
 606 009a FFF7FEFF 		bl	switchTo
 607              	.LVL133:
 210:PSoC.h        **** 
 211:PSoC.h        ****     return temp;
 212:PSoC.h        **** }
 608              		.loc 1 212 0
 609 009e 3000     		movs	r0, r6
 610              		@ sp needed
 611              	.LVL134:
 612              	.LVL135:
 613              	.LVL136:
 614              	.LVL137:
 615              	.LVL138:
 616 00a0 1CBC     		pop	{r2, r3, r4}
 617 00a2 9046     		mov	r8, r2
 618 00a4 9946     		mov	r9, r3
 619 00a6 A246     		mov	r10, r4
 620 00a8 F0BD     		pop	{r4, r5, r6, r7, pc}
 621              	.L41:
 622 00aa C046     		.align	2
 623              	.L40:
 624 00ac 00000000 		.word	.LC1
 625 00b0 08000000 		.word	.LC3
 626              		.cfi_endproc
 627              	.LFE39:
 628              		.size	sendCmd, .-sendCmd
 629              		.section	.text.ble_mac,"ax",%progbits
 630              		.align	2
 631              		.global	ble_mac
 632              		.code	16
 633              		.thumb_func
 634              		.type	ble_mac, %function
 635              	ble_mac:
 636              	.LFB40:
 213:PSoC.h        **** 
 214:PSoC.h        **** int ble_mac(struct PSC_McM_6_00 *p, char *mac)
 215:PSoC.h        **** {
 637              		.loc 1 215 0
ARM GAS  C:\Users\PRAJWA~1\AppData\Local\Temp\ccedcYia.s 			page 16


 638              		.cfi_startproc
 639              		@ args = 0, pretend = 0, frame = 88
 640              		@ frame_needed = 0, uses_anonymous_args = 0
 641              	.LVL139:
 642 0000 F0B5     		push	{r4, r5, r6, r7, lr}
 643              		.cfi_def_cfa_offset 20
 644              		.cfi_offset 4, -20
 645              		.cfi_offset 5, -16
 646              		.cfi_offset 6, -12
 647              		.cfi_offset 7, -8
 648              		.cfi_offset 14, -4
 649 0002 9BB0     		sub	sp, sp, #108
 650              		.cfi_def_cfa_offset 128
 651 0004 0600     		movs	r6, r0
 652 0006 0C00     		movs	r4, r1
 653              	.LVL140:
 216:PSoC.h        ****     uint8_t result=0, j=0;
 217:PSoC.h        ****     char cmd[20] = "AT+BLEMAC?\r\n";
 654              		.loc 1 217 0
 655 0008 15AD     		add	r5, sp, #84
 656 000a 154B     		ldr	r3, .L47
 657 000c 2A00     		movs	r2, r5
 658 000e 83CB     		ldmia	r3!, {r0, r1, r7}
 659 0010 83C2     		stmia	r2!, {r0, r1, r7}
 660              	.LVL141:
 661 0012 1B78     		ldrb	r3, [r3]
 662 0014 1370     		strb	r3, [r2]
 663 0016 0722     		movs	r2, #7
 664 0018 0021     		movs	r1, #0
 665 001a 6120     		movs	r0, #97
 666 001c 6844     		add	r0, r0, sp
 667 001e FFF7FEFF 		bl	memset
 668              	.LVL142:
 218:PSoC.h        ****     char rec_data[65];
 219:PSoC.h        ****     char *ptr = rec_data;
 220:PSoC.h        **** 
 221:PSoC.h        ****     result = sendCmd(p, cmd, rec_data, 65, 10000, 0);
 669              		.loc 1 221 0
 670 0022 0023     		movs	r3, #0
 671 0024 0293     		str	r3, [sp, #8]
 672 0026 0F4A     		ldr	r2, .L47+4
 673 0028 0023     		movs	r3, #0
 674 002a 0092     		str	r2, [sp]
 675 002c 0193     		str	r3, [sp, #4]
 676 002e 4123     		movs	r3, #65
 677 0030 04AA     		add	r2, sp, #16
 678              	.LVL143:
 679 0032 2900     		movs	r1, r5
 680 0034 3000     		movs	r0, r6
 681 0036 FFF7FEFF 		bl	sendCmd
 682              	.LVL144:
 219:PSoC.h        **** 
 683              		.loc 1 219 0
 684 003a 04AB     		add	r3, sp, #16
 685              	.LVL145:
 222:PSoC.h        **** 
 223:PSoC.h        ****     if(result>=0)
ARM GAS  C:\Users\PRAJWA~1\AppData\Local\Temp\ccedcYia.s 			page 17


 224:PSoC.h        ****     {
 225:PSoC.h        ****         while(*ptr != ':')  ptr++;
 686              		.loc 1 225 0
 687 003c 00E0     		b	.L43
 688              	.L44:
 689              		.loc 1 225 0 is_stmt 0 discriminator 2
 690 003e 0133     		adds	r3, r3, #1
 691              	.LVL146:
 692              	.L43:
 693              		.loc 1 225 0 discriminator 1
 694 0040 1A78     		ldrb	r2, [r3]
 695 0042 3A2A     		cmp	r2, #58
 696 0044 FBD1     		bne	.L44
 226:PSoC.h        ****         ptr++;
 697              		.loc 1 226 0 is_stmt 1
 698 0046 0133     		adds	r3, r3, #1
 699              	.LVL147:
 216:PSoC.h        ****     char cmd[20] = "AT+BLEMAC?\r\n";
 700              		.loc 1 216 0
 701 0048 0022     		movs	r2, #0
 227:PSoC.h        ****       
 228:PSoC.h        ****         while(*ptr != '\r')
 702              		.loc 1 228 0
 703 004a 03E0     		b	.L45
 704              	.LVL148:
 705              	.L46:
 229:PSoC.h        ****         {
 230:PSoC.h        ****             mac[j] = *ptr;
 706              		.loc 1 230 0
 707 004c A154     		strb	r1, [r4, r2]
 231:PSoC.h        ****             j++; ptr++;
 708              		.loc 1 231 0
 709 004e 0132     		adds	r2, r2, #1
 710              	.LVL149:
 711 0050 D2B2     		uxtb	r2, r2
 712              	.LVL150:
 713 0052 0133     		adds	r3, r3, #1
 714              	.LVL151:
 715              	.L45:
 228:PSoC.h        ****         {
 716              		.loc 1 228 0
 717 0054 1978     		ldrb	r1, [r3]
 718 0056 0D29     		cmp	r1, #13
 719 0058 F8D1     		bne	.L46
 232:PSoC.h        ****         }
 233:PSoC.h        ****     }
 234:PSoC.h        **** 
 235:PSoC.h        ****     if(result>=0) return 0;
 236:PSoC.h        ****     return -1;
 237:PSoC.h        **** }
 720              		.loc 1 237 0 discriminator 1
 721 005a 0020     		movs	r0, #0
 722 005c 1BB0     		add	sp, sp, #108
 723              		@ sp needed
 724              	.LVL152:
 725              	.LVL153:
 726 005e F0BD     		pop	{r4, r5, r6, r7, pc}
ARM GAS  C:\Users\PRAJWA~1\AppData\Local\Temp\ccedcYia.s 			page 18


 727              	.L48:
 728              		.align	2
 729              	.L47:
 730 0060 40000000 		.word	.LANCHOR0
 731 0064 10270000 		.word	10000
 732              		.cfi_endproc
 733              	.LFE40:
 734              		.size	ble_mac, .-ble_mac
 735              		.global	__aeabi_d2iz
 736              		.section	.text.ble_checkRFpower,"ax",%progbits
 737              		.align	2
 738              		.global	ble_checkRFpower
 739              		.code	16
 740              		.thumb_func
 741              		.type	ble_checkRFpower, %function
 742              	ble_checkRFpower:
 743              	.LFB41:
 238:PSoC.h        **** 
 239:PSoC.h        **** int ble_checkRFpower(struct PSC_McM_6_00 *p)
 240:PSoC.h        **** {
 744              		.loc 1 240 0
 745              		.cfi_startproc
 746              		@ args = 0, pretend = 0, frame = 80
 747              		@ frame_needed = 0, uses_anonymous_args = 0
 748              	.LVL154:
 749 0000 70B5     		push	{r4, r5, r6, lr}
 750              		.cfi_def_cfa_offset 16
 751              		.cfi_offset 4, -16
 752              		.cfi_offset 5, -12
 753              		.cfi_offset 6, -8
 754              		.cfi_offset 14, -4
 755 0002 98B0     		sub	sp, sp, #96
 756              		.cfi_def_cfa_offset 112
 757 0004 0500     		movs	r5, r0
 241:PSoC.h        ****     int8_t result;
 242:PSoC.h        ****     char rec_data[60],*ptr;
 243:PSoC.h        ****     char cmd[18] = "AT+BLERFPWR?\r\n";
 758              		.loc 1 243 0
 759 0006 04AC     		add	r4, sp, #16
 760 0008 2200     		movs	r2, r4
 761 000a 184B     		ldr	r3, .L54
 762 000c 1433     		adds	r3, r3, #20
 763 000e 43CB     		ldmia	r3!, {r0, r1, r6}
 764 0010 43C2     		stmia	r2!, {r0, r1, r6}
 765              	.LVL155:
 766 0012 1988     		ldrh	r1, [r3]
 767 0014 1180     		strh	r1, [r2]
 768 0016 9B78     		ldrb	r3, [r3, #2]
 769 0018 9370     		strb	r3, [r2, #2]
 770 001a 0322     		movs	r2, #3
 771 001c 0021     		movs	r1, #0
 772 001e 1F20     		movs	r0, #31
 773 0020 6844     		add	r0, r0, sp
 774 0022 FFF7FEFF 		bl	memset
 775              	.LVL156:
 244:PSoC.h        **** 
 245:PSoC.h        ****     delay(1000);
ARM GAS  C:\Users\PRAJWA~1\AppData\Local\Temp\ccedcYia.s 			page 19


 776              		.loc 1 245 0
 777 0026 FA20     		movs	r0, #250
 778 0028 8000     		lsls	r0, r0, #2
 779 002a FFF7FEFF 		bl	delay
 780              	.LVL157:
 246:PSoC.h        ****     
 247:PSoC.h        ****     result = sendCmd(p, cmd, rec_data, 60, 100000, 0);
 781              		.loc 1 247 0
 782 002e 0023     		movs	r3, #0
 783 0030 0293     		str	r3, [sp, #8]
 784 0032 0F4A     		ldr	r2, .L54+4
 785 0034 0023     		movs	r3, #0
 786 0036 0092     		str	r2, [sp]
 787 0038 0193     		str	r3, [sp, #4]
 788 003a 3C23     		movs	r3, #60
 789 003c 09AA     		add	r2, sp, #36
 790 003e 2100     		movs	r1, r4
 791 0040 2800     		movs	r0, r5
 792 0042 FFF7FEFF 		bl	sendCmd
 793              	.LVL158:
 248:PSoC.h        ****     ptr = &rec_data[60];
 249:PSoC.h        ****     if (result>=0)
 794              		.loc 1 249 0
 795 0046 0306     		lsls	r3, r0, #24
 796 0048 04D5     		bpl	.L53
 250:PSoC.h        ****     {
 251:PSoC.h        ****         while(*ptr != ':')  ptr--;
 252:PSoC.h        ****         ptr++;
 253:PSoC.h        ****         return(atof(ptr));
 254:PSoC.h        ****     }
 255:PSoC.h        ****     return -1;
 797              		.loc 1 255 0
 798 004a 0120     		movs	r0, #1
 799              	.LVL159:
 800 004c 4042     		rsbs	r0, r0, #0
 801 004e 0AE0     		b	.L51
 802              	.LVL160:
 803              	.L52:
 251:PSoC.h        ****         ptr++;
 804              		.loc 1 251 0 discriminator 2
 805 0050 0138     		subs	r0, r0, #1
 806              	.LVL161:
 807 0052 00E0     		b	.L50
 808              	.LVL162:
 809              	.L53:
 810 0054 18A8     		add	r0, sp, #96
 811              	.LVL163:
 812              	.L50:
 251:PSoC.h        ****         ptr++;
 813              		.loc 1 251 0 is_stmt 0 discriminator 1
 814 0056 0378     		ldrb	r3, [r0]
 815 0058 3A2B     		cmp	r3, #58
 816 005a F9D1     		bne	.L52
 252:PSoC.h        ****         return(atof(ptr));
 817              		.loc 1 252 0 is_stmt 1
 818 005c 0130     		adds	r0, r0, #1
 819              	.LVL164:
ARM GAS  C:\Users\PRAJWA~1\AppData\Local\Temp\ccedcYia.s 			page 20


 253:PSoC.h        ****     }
 820              		.loc 1 253 0
 821 005e FFF7FEFF 		bl	atof
 822              	.LVL165:
 823 0062 FFF7FEFF 		bl	__aeabi_d2iz
 824              	.LVL166:
 825              	.L51:
 256:PSoC.h        **** }
 826              		.loc 1 256 0
 827 0066 18B0     		add	sp, sp, #96
 828              		@ sp needed
 829              	.LVL167:
 830 0068 70BD     		pop	{r4, r5, r6, pc}
 831              	.L55:
 832 006a C046     		.align	2
 833              	.L54:
 834 006c 40000000 		.word	.LANCHOR0
 835 0070 A0860100 		.word	100000
 836              		.cfi_endproc
 837              	.LFE41:
 838              		.size	ble_checkRFpower, .-ble_checkRFpower
 839              		.section	.text.ble_setRFpower,"ax",%progbits
 840              		.align	2
 841              		.global	ble_setRFpower
 842              		.code	16
 843              		.thumb_func
 844              		.type	ble_setRFpower, %function
 845              	ble_setRFpower:
 846              	.LFB42:
 257:PSoC.h        **** 
 258:PSoC.h        **** int ble_setRFpower(struct PSC_McM_6_00 *p, int val)
 259:PSoC.h        **** {        
 847              		.loc 1 259 0
 848              		.cfi_startproc
 849              		@ args = 0, pretend = 0, frame = 96
 850              		@ frame_needed = 0, uses_anonymous_args = 0
 851              	.LVL168:
 852 0000 70B5     		push	{r4, r5, r6, lr}
 853              		.cfi_def_cfa_offset 16
 854              		.cfi_offset 4, -16
 855              		.cfi_offset 5, -12
 856              		.cfi_offset 6, -8
 857              		.cfi_offset 14, -4
 858 0002 9CB0     		sub	sp, sp, #112
 859              		.cfi_def_cfa_offset 128
 860 0004 0500     		movs	r5, r0
 861 0006 0C00     		movs	r4, r1
 260:PSoC.h        ****     char rec_data[60];
 261:PSoC.h        ****     int result;
 262:PSoC.h        ****     char buffer[20], cmd[15] = "AT+BLERFPWR=";
 862              		.loc 1 262 0
 863 0008 04AA     		add	r2, sp, #16
 864 000a 154B     		ldr	r3, .L60
 865 000c 2833     		adds	r3, r3, #40
 866 000e 43CB     		ldmia	r3!, {r0, r1, r6}
 867 0010 43C2     		stmia	r2!, {r0, r1, r6}
 868              	.LVL169:
ARM GAS  C:\Users\PRAJWA~1\AppData\Local\Temp\ccedcYia.s 			page 21


 869 0012 1B78     		ldrb	r3, [r3]
 870 0014 1370     		strb	r3, [r2]
 871 0016 0222     		movs	r2, #2
 872 0018 0021     		movs	r1, #0
 873 001a 1D20     		movs	r0, #29
 874 001c 6844     		add	r0, r0, sp
 875 001e FFF7FEFF 		bl	memset
 876              	.LVL170:
 263:PSoC.h        **** 
 264:PSoC.h        ****     if(val<0) return -2;
 877              		.loc 1 264 0
 878 0022 002C     		cmp	r4, #0
 879 0024 15DB     		blt	.L58
 265:PSoC.h        **** 
 266:PSoC.h        ****     sprintf(buffer, "%s%d\r\n", cmd, val);
 880              		.loc 1 266 0
 881 0026 2300     		movs	r3, r4
 882 0028 04AA     		add	r2, sp, #16
 883 002a 0E49     		ldr	r1, .L60+4
 884 002c 08A8     		add	r0, sp, #32
 885 002e FFF7FEFF 		bl	sprintf
 886              	.LVL171:
 267:PSoC.h        ****     
 268:PSoC.h        ****     result = sendCmd(p, buffer, rec_data, 60, 1000000, 0);
 887              		.loc 1 268 0
 888 0032 0023     		movs	r3, #0
 889 0034 0293     		str	r3, [sp, #8]
 890 0036 0C4A     		ldr	r2, .L60+8
 891 0038 0023     		movs	r3, #0
 892 003a 0092     		str	r2, [sp]
 893 003c 0193     		str	r3, [sp, #4]
 894 003e 3C23     		movs	r3, #60
 895 0040 0DAA     		add	r2, sp, #52
 896 0042 08A9     		add	r1, sp, #32
 897 0044 2800     		movs	r0, r5
 898 0046 FFF7FEFF 		bl	sendCmd
 899              	.LVL172:
 269:PSoC.h        ****     
 270:PSoC.h        ****     if(result >= 0) return 0;
 900              		.loc 1 270 0
 901 004a 0028     		cmp	r0, #0
 902 004c 04DB     		blt	.L59
 903 004e 0020     		movs	r0, #0
 904              	.LVL173:
 905 0050 04E0     		b	.L57
 906              	.L58:
 264:PSoC.h        **** 
 907              		.loc 1 264 0
 908 0052 0220     		movs	r0, #2
 909 0054 4042     		rsbs	r0, r0, #0
 910 0056 01E0     		b	.L57
 911              	.LVL174:
 912              	.L59:
 271:PSoC.h        ****     return -1;
 913              		.loc 1 271 0
 914 0058 0120     		movs	r0, #1
 915              	.LVL175:
ARM GAS  C:\Users\PRAJWA~1\AppData\Local\Temp\ccedcYia.s 			page 22


 916 005a 4042     		rsbs	r0, r0, #0
 917              	.L57:
 272:PSoC.h        **** }
 918              		.loc 1 272 0
 919 005c 1CB0     		add	sp, sp, #112
 920              		@ sp needed
 921              	.LVL176:
 922              	.LVL177:
 923 005e 70BD     		pop	{r4, r5, r6, pc}
 924              	.L61:
 925              		.align	2
 926              	.L60:
 927 0060 40000000 		.word	.LANCHOR0
 928 0064 14000000 		.word	.LC11
 929 0068 40420F00 		.word	1000000
 930              		.cfi_endproc
 931              	.LFE42:
 932              		.size	ble_setRFpower, .-ble_setRFpower
 933              		.section	.text.ble_status,"ax",%progbits
 934              		.align	2
 935              		.global	ble_status
 936              		.code	16
 937              		.thumb_func
 938              		.type	ble_status, %function
 939              	ble_status:
 940              	.LFB43:
 273:PSoC.h        **** 
 274:PSoC.h        **** int ble_status(struct PSC_McM_6_00 *p)
 275:PSoC.h        **** {    
 941              		.loc 1 275 0
 942              		.cfi_startproc
 943              		@ args = 0, pretend = 0, frame = 56
 944              		@ frame_needed = 0, uses_anonymous_args = 0
 945              	.LVL178:
 946 0000 70B5     		push	{r4, r5, r6, lr}
 947              		.cfi_def_cfa_offset 16
 948              		.cfi_offset 4, -16
 949              		.cfi_offset 5, -12
 950              		.cfi_offset 6, -8
 951              		.cfi_offset 14, -4
 952 0002 92B0     		sub	sp, sp, #72
 953              		.cfi_def_cfa_offset 88
 954 0004 0500     		movs	r5, r0
 276:PSoC.h        ****     uint8_t result, i;
 277:PSoC.h        ****     char rec_data[40],*ptr;
 278:PSoC.h        ****     char cmd[15] = "AT+BLEMODE?\r\n";
 955              		.loc 1 278 0
 956 0006 04AC     		add	r4, sp, #16
 957 0008 2200     		movs	r2, r4
 958 000a 104B     		ldr	r3, .L65
 959 000c 3833     		adds	r3, r3, #56
 960 000e 43CB     		ldmia	r3!, {r0, r1, r6}
 961 0010 43C2     		stmia	r2!, {r0, r1, r6}
 962              	.LVL179:
 963 0012 1B88     		ldrh	r3, [r3]
 964 0014 1380     		strh	r3, [r2]
 965 0016 0026     		movs	r6, #0
ARM GAS  C:\Users\PRAJWA~1\AppData\Local\Temp\ccedcYia.s 			page 23


 966 0018 A673     		strb	r6, [r4, #14]
 279:PSoC.h        **** 
 280:PSoC.h        ****     UART_UartPutString("9: BLE is OFF.\n0: BLE is configured in Slave Mode.\n1: BLE is configured i
 967              		.loc 1 280 0
 968 001a 0D48     		ldr	r0, .L65+4
 969 001c FFF7FEFF 		bl	UART_UartPutString
 970              	.LVL180:
 281:PSoC.h        ****     result = sendCmd(p, cmd, rec_data, 40, 100000, 0);
 971              		.loc 1 281 0
 972 0020 0296     		str	r6, [sp, #8]
 973 0022 0C4A     		ldr	r2, .L65+8
 974 0024 0023     		movs	r3, #0
 975 0026 0092     		str	r2, [sp]
 976 0028 0193     		str	r3, [sp, #4]
 977 002a 2823     		movs	r3, #40
 978 002c 08AA     		add	r2, sp, #32
 979 002e 2100     		movs	r1, r4
 980 0030 2800     		movs	r0, r5
 981 0032 FFF7FEFF 		bl	sendCmd
 982              	.LVL181:
 282:PSoC.h        ****     ptr = rec_data;
 983              		.loc 1 282 0
 984 0036 08A8     		add	r0, sp, #32
 985              	.LVL182:
 283:PSoC.h        ****     if (result>=0)
 284:PSoC.h        ****     {
 285:PSoC.h        ****         while(*ptr != ':')  ptr++;
 986              		.loc 1 285 0
 987 0038 00E0     		b	.L63
 988              	.L64:
 989              		.loc 1 285 0 is_stmt 0 discriminator 2
 990 003a 0130     		adds	r0, r0, #1
 991              	.LVL183:
 992              	.L63:
 993              		.loc 1 285 0 discriminator 1
 994 003c 0378     		ldrb	r3, [r0]
 995 003e 3A2B     		cmp	r3, #58
 996 0040 FBD1     		bne	.L64
 286:PSoC.h        ****         ptr++;
 997              		.loc 1 286 0 is_stmt 1
 998 0042 0130     		adds	r0, r0, #1
 999              	.LVL184:
 287:PSoC.h        ****         return (atoi(ptr));
 1000              		.loc 1 287 0
 1001 0044 FFF7FEFF 		bl	atoi
 1002              	.LVL185:
 288:PSoC.h        ****     }
 289:PSoC.h        ****     return -1;
 290:PSoC.h        **** }
 1003              		.loc 1 290 0
 1004 0048 12B0     		add	sp, sp, #72
 1005              		@ sp needed
 1006              	.LVL186:
 1007 004a 70BD     		pop	{r4, r5, r6, pc}
 1008              	.L66:
 1009              		.align	2
 1010              	.L65:
ARM GAS  C:\Users\PRAJWA~1\AppData\Local\Temp\ccedcYia.s 			page 24


 1011 004c 40000000 		.word	.LANCHOR0
 1012 0050 1C000000 		.word	.LC15
 1013 0054 A0860100 		.word	100000
 1014              		.cfi_endproc
 1015              	.LFE43:
 1016              		.size	ble_status, .-ble_status
 1017              		.section	.text.ble_OFF,"ax",%progbits
 1018              		.align	2
 1019              		.global	ble_OFF
 1020              		.code	16
 1021              		.thumb_func
 1022              		.type	ble_OFF, %function
 1023              	ble_OFF:
 1024              	.LFB44:
 291:PSoC.h        **** 
 292:PSoC.h        **** int ble_OFF(struct PSC_McM_6_00 *p)
 293:PSoC.h        **** {    
 1025              		.loc 1 293 0
 1026              		.cfi_startproc
 1027              		@ args = 0, pretend = 0, frame = 48
 1028              		@ frame_needed = 0, uses_anonymous_args = 0
 1029              	.LVL187:
 1030 0000 70B5     		push	{r4, r5, r6, lr}
 1031              		.cfi_def_cfa_offset 16
 1032              		.cfi_offset 4, -16
 1033              		.cfi_offset 5, -12
 1034              		.cfi_offset 6, -8
 1035              		.cfi_offset 14, -4
 1036 0002 90B0     		sub	sp, sp, #64
 1037              		.cfi_def_cfa_offset 80
 1038 0004 0500     		movs	r5, r0
 294:PSoC.h        ****     int status;
 295:PSoC.h        ****     status = ble_status(p);
 1039              		.loc 1 295 0
 1040 0006 FFF7FEFF 		bl	ble_status
 1041              	.LVL188:
 296:PSoC.h        ****     if(status == 9) return 9;
 1042              		.loc 1 296 0
 1043 000a 0928     		cmp	r0, #9
 1044 000c 2AD0     		beq	.L71
 297:PSoC.h        ****     
 298:PSoC.h        ****     char rec_data[25],*ptr;
 299:PSoC.h        ****     int result;
 300:PSoC.h        ****     char cmd[18] = "AT+BLEMODE=9\r\n";
 1045              		.loc 1 300 0
 1046 000e 04AC     		add	r4, sp, #16
 1047 0010 2200     		movs	r2, r4
 1048 0012 164B     		ldr	r3, .L73
 1049 0014 4833     		adds	r3, r3, #72
 1050 0016 43CB     		ldmia	r3!, {r0, r1, r6}
 1051 0018 43C2     		stmia	r2!, {r0, r1, r6}
 1052              	.LVL189:
 1053 001a 1988     		ldrh	r1, [r3]
 1054 001c 1180     		strh	r1, [r2]
 1055 001e 9B78     		ldrb	r3, [r3, #2]
 1056 0020 9370     		strb	r3, [r2, #2]
 1057 0022 0322     		movs	r2, #3
ARM GAS  C:\Users\PRAJWA~1\AppData\Local\Temp\ccedcYia.s 			page 25


 1058 0024 0021     		movs	r1, #0
 1059 0026 1F20     		movs	r0, #31
 1060 0028 6844     		add	r0, r0, sp
 1061 002a FFF7FEFF 		bl	memset
 1062              	.LVL190:
 301:PSoC.h        ****     
 302:PSoC.h        ****     result = sendCmd(p, cmd, rec_data, 25, 100000, 0);
 1063              		.loc 1 302 0
 1064 002e 0023     		movs	r3, #0
 1065 0030 0293     		str	r3, [sp, #8]
 1066 0032 0F4A     		ldr	r2, .L73+4
 1067 0034 0023     		movs	r3, #0
 1068 0036 0092     		str	r2, [sp]
 1069 0038 0193     		str	r3, [sp, #4]
 1070 003a 1923     		movs	r3, #25
 1071 003c 09AA     		add	r2, sp, #36
 1072 003e 2100     		movs	r1, r4
 1073 0040 2800     		movs	r0, r5
 1074 0042 FFF7FEFF 		bl	sendCmd
 1075              	.LVL191:
 303:PSoC.h        ****     ptr = rec_data;
 304:PSoC.h        ****     if (result>=0)
 1076              		.loc 1 304 0
 1077 0046 0028     		cmp	r0, #0
 1078 0048 04DA     		bge	.L72
 305:PSoC.h        ****     {
 306:PSoC.h        ****         while(*ptr != '=')  ptr++;
 307:PSoC.h        ****         ptr++;
 308:PSoC.h        ****         return (atoi(ptr));
 309:PSoC.h        ****     }
 310:PSoC.h        ****     return -1;
 1079              		.loc 1 310 0
 1080 004a 0120     		movs	r0, #1
 1081              	.LVL192:
 1082 004c 4042     		rsbs	r0, r0, #0
 1083 004e 0AE0     		b	.L68
 1084              	.LVL193:
 1085              	.L70:
 306:PSoC.h        ****         ptr++;
 1086              		.loc 1 306 0 discriminator 2
 1087 0050 0130     		adds	r0, r0, #1
 1088              	.LVL194:
 1089 0052 00E0     		b	.L69
 1090              	.LVL195:
 1091              	.L72:
 1092 0054 09A8     		add	r0, sp, #36
 1093              	.LVL196:
 1094              	.L69:
 306:PSoC.h        ****         ptr++;
 1095              		.loc 1 306 0 is_stmt 0 discriminator 1
 1096 0056 0378     		ldrb	r3, [r0]
 1097 0058 3D2B     		cmp	r3, #61
 1098 005a F9D1     		bne	.L70
 307:PSoC.h        ****         return (atoi(ptr));
 1099              		.loc 1 307 0 is_stmt 1
 1100 005c 0130     		adds	r0, r0, #1
 1101              	.LVL197:
ARM GAS  C:\Users\PRAJWA~1\AppData\Local\Temp\ccedcYia.s 			page 26


 308:PSoC.h        ****     }
 1102              		.loc 1 308 0
 1103 005e FFF7FEFF 		bl	atoi
 1104              	.LVL198:
 1105 0062 00E0     		b	.L68
 1106              	.LVL199:
 1107              	.L71:
 296:PSoC.h        ****     
 1108              		.loc 1 296 0
 1109 0064 0920     		movs	r0, #9
 1110              	.LVL200:
 1111              	.L68:
 311:PSoC.h        **** }
 1112              		.loc 1 311 0
 1113 0066 10B0     		add	sp, sp, #64
 1114              		@ sp needed
 1115              	.LVL201:
 1116 0068 70BD     		pop	{r4, r5, r6, pc}
 1117              	.L74:
 1118 006a C046     		.align	2
 1119              	.L73:
 1120 006c 40000000 		.word	.LANCHOR0
 1121 0070 A0860100 		.word	100000
 1122              		.cfi_endproc
 1123              	.LFE44:
 1124              		.size	ble_OFF, .-ble_OFF
 1125              		.section	.text.bleON_host,"ax",%progbits
 1126              		.align	2
 1127              		.global	bleON_host
 1128              		.code	16
 1129              		.thumb_func
 1130              		.type	bleON_host, %function
 1131              	bleON_host:
 1132              	.LFB45:
 312:PSoC.h        **** 
 313:PSoC.h        **** int bleON_host(struct PSC_McM_6_00 *p)
 314:PSoC.h        **** {
 1133              		.loc 1 314 0
 1134              		.cfi_startproc
 1135              		@ args = 0, pretend = 0, frame = 48
 1136              		@ frame_needed = 0, uses_anonymous_args = 0
 1137              	.LVL202:
 1138 0000 70B5     		push	{r4, r5, r6, lr}
 1139              		.cfi_def_cfa_offset 16
 1140              		.cfi_offset 4, -16
 1141              		.cfi_offset 5, -12
 1142              		.cfi_offset 6, -8
 1143              		.cfi_offset 14, -4
 1144 0002 90B0     		sub	sp, sp, #64
 1145              		.cfi_def_cfa_offset 80
 1146 0004 0500     		movs	r5, r0
 315:PSoC.h        ****     int status;
 316:PSoC.h        ****     status = ble_status(p);
 1147              		.loc 1 316 0
 1148 0006 FFF7FEFF 		bl	ble_status
 1149              	.LVL203:
 317:PSoC.h        ****     if (status == 1) return 1;
ARM GAS  C:\Users\PRAJWA~1\AppData\Local\Temp\ccedcYia.s 			page 27


 1150              		.loc 1 317 0
 1151 000a 0128     		cmp	r0, #1
 1152 000c 2AD0     		beq	.L79
 318:PSoC.h        ****     
 319:PSoC.h        ****     char rec_data[25],*ptr;
 320:PSoC.h        ****     int result;
 321:PSoC.h        ****     char cmd[18] = "AT+BLEMODE=1\r\n";
 1153              		.loc 1 321 0
 1154 000e 04AC     		add	r4, sp, #16
 1155 0010 2200     		movs	r2, r4
 1156 0012 164B     		ldr	r3, .L81
 1157 0014 5C33     		adds	r3, r3, #92
 1158 0016 43CB     		ldmia	r3!, {r0, r1, r6}
 1159 0018 43C2     		stmia	r2!, {r0, r1, r6}
 1160              	.LVL204:
 1161 001a 1988     		ldrh	r1, [r3]
 1162 001c 1180     		strh	r1, [r2]
 1163 001e 9B78     		ldrb	r3, [r3, #2]
 1164 0020 9370     		strb	r3, [r2, #2]
 1165 0022 0322     		movs	r2, #3
 1166 0024 0021     		movs	r1, #0
 1167 0026 1F20     		movs	r0, #31
 1168 0028 6844     		add	r0, r0, sp
 1169 002a FFF7FEFF 		bl	memset
 1170              	.LVL205:
 322:PSoC.h        ****     
 323:PSoC.h        ****     result = sendCmd(p, cmd, rec_data, 100, 1000000, 0);
 1171              		.loc 1 323 0
 1172 002e 0023     		movs	r3, #0
 1173 0030 0293     		str	r3, [sp, #8]
 1174 0032 0F4A     		ldr	r2, .L81+4
 1175 0034 0023     		movs	r3, #0
 1176 0036 0092     		str	r2, [sp]
 1177 0038 0193     		str	r3, [sp, #4]
 1178 003a 6423     		movs	r3, #100
 1179 003c 09AA     		add	r2, sp, #36
 1180 003e 2100     		movs	r1, r4
 1181 0040 2800     		movs	r0, r5
 1182 0042 FFF7FEFF 		bl	sendCmd
 1183              	.LVL206:
 324:PSoC.h        ****     ptr = rec_data;
 325:PSoC.h        ****     if (result>=0)
 1184              		.loc 1 325 0
 1185 0046 0028     		cmp	r0, #0
 1186 0048 04DA     		bge	.L80
 326:PSoC.h        ****     {
 327:PSoC.h        ****         while(*ptr != '=')  ptr++;
 328:PSoC.h        ****         ptr++;
 329:PSoC.h        ****         return (atoi(ptr));
 330:PSoC.h        ****     }
 331:PSoC.h        ****     return -1;
 1187              		.loc 1 331 0
 1188 004a 0120     		movs	r0, #1
 1189              	.LVL207:
 1190 004c 4042     		rsbs	r0, r0, #0
 1191 004e 0AE0     		b	.L76
 1192              	.LVL208:
ARM GAS  C:\Users\PRAJWA~1\AppData\Local\Temp\ccedcYia.s 			page 28


 1193              	.L78:
 327:PSoC.h        ****         ptr++;
 1194              		.loc 1 327 0 discriminator 2
 1195 0050 0130     		adds	r0, r0, #1
 1196              	.LVL209:
 1197 0052 00E0     		b	.L77
 1198              	.LVL210:
 1199              	.L80:
 1200 0054 09A8     		add	r0, sp, #36
 1201              	.LVL211:
 1202              	.L77:
 327:PSoC.h        ****         ptr++;
 1203              		.loc 1 327 0 is_stmt 0 discriminator 1
 1204 0056 0378     		ldrb	r3, [r0]
 1205 0058 3D2B     		cmp	r3, #61
 1206 005a F9D1     		bne	.L78
 328:PSoC.h        ****         return (atoi(ptr));
 1207              		.loc 1 328 0 is_stmt 1
 1208 005c 0130     		adds	r0, r0, #1
 1209              	.LVL212:
 329:PSoC.h        ****     }
 1210              		.loc 1 329 0
 1211 005e FFF7FEFF 		bl	atoi
 1212              	.LVL213:
 1213 0062 00E0     		b	.L76
 1214              	.LVL214:
 1215              	.L79:
 317:PSoC.h        ****     
 1216              		.loc 1 317 0
 1217 0064 0120     		movs	r0, #1
 1218              	.LVL215:
 1219              	.L76:
 332:PSoC.h        **** }
 1220              		.loc 1 332 0
 1221 0066 10B0     		add	sp, sp, #64
 1222              		@ sp needed
 1223              	.LVL216:
 1224 0068 70BD     		pop	{r4, r5, r6, pc}
 1225              	.L82:
 1226 006a C046     		.align	2
 1227              	.L81:
 1228 006c 40000000 		.word	.LANCHOR0
 1229 0070 40420F00 		.word	1000000
 1230              		.cfi_endproc
 1231              	.LFE45:
 1232              		.size	bleON_host, .-bleON_host
 1233              		.section	.text.bleON_slave,"ax",%progbits
 1234              		.align	2
 1235              		.global	bleON_slave
 1236              		.code	16
 1237              		.thumb_func
 1238              		.type	bleON_slave, %function
 1239              	bleON_slave:
 1240              	.LFB46:
 333:PSoC.h        **** 
 334:PSoC.h        **** int bleON_slave(struct PSC_McM_6_00 *p)
 335:PSoC.h        **** {    
ARM GAS  C:\Users\PRAJWA~1\AppData\Local\Temp\ccedcYia.s 			page 29


 1241              		.loc 1 335 0
 1242              		.cfi_startproc
 1243              		@ args = 0, pretend = 0, frame = 48
 1244              		@ frame_needed = 0, uses_anonymous_args = 0
 1245              	.LVL217:
 1246 0000 70B5     		push	{r4, r5, r6, lr}
 1247              		.cfi_def_cfa_offset 16
 1248              		.cfi_offset 4, -16
 1249              		.cfi_offset 5, -12
 1250              		.cfi_offset 6, -8
 1251              		.cfi_offset 14, -4
 1252 0002 90B0     		sub	sp, sp, #64
 1253              		.cfi_def_cfa_offset 80
 1254 0004 0500     		movs	r5, r0
 336:PSoC.h        ****     int status;
 337:PSoC.h        ****     status = ble_status(p);
 1255              		.loc 1 337 0
 1256 0006 FFF7FEFF 		bl	ble_status
 1257              	.LVL218:
 338:PSoC.h        ****     if (status == 0) return 0;
 1258              		.loc 1 338 0
 1259 000a 0028     		cmp	r0, #0
 1260 000c 2AD0     		beq	.L87
 339:PSoC.h        ****     
 340:PSoC.h        ****     char rec_data[25],*ptr;
 341:PSoC.h        ****     int result;
 342:PSoC.h        ****     char cmd[18] = "AT+BLEMODE=0\r\n";
 1261              		.loc 1 342 0
 1262 000e 04AC     		add	r4, sp, #16
 1263 0010 2200     		movs	r2, r4
 1264 0012 164B     		ldr	r3, .L89
 1265 0014 7033     		adds	r3, r3, #112
 1266 0016 43CB     		ldmia	r3!, {r0, r1, r6}
 1267 0018 43C2     		stmia	r2!, {r0, r1, r6}
 1268              	.LVL219:
 1269 001a 1988     		ldrh	r1, [r3]
 1270 001c 1180     		strh	r1, [r2]
 1271 001e 9B78     		ldrb	r3, [r3, #2]
 1272 0020 9370     		strb	r3, [r2, #2]
 1273 0022 0322     		movs	r2, #3
 1274 0024 0021     		movs	r1, #0
 1275 0026 1F20     		movs	r0, #31
 1276 0028 6844     		add	r0, r0, sp
 1277 002a FFF7FEFF 		bl	memset
 1278              	.LVL220:
 343:PSoC.h        ****     
 344:PSoC.h        ****     result = sendCmd(p, cmd, rec_data, 25, 1000000, 0);
 1279              		.loc 1 344 0
 1280 002e 0023     		movs	r3, #0
 1281 0030 0293     		str	r3, [sp, #8]
 1282 0032 0F4A     		ldr	r2, .L89+4
 1283 0034 0023     		movs	r3, #0
 1284 0036 0092     		str	r2, [sp]
 1285 0038 0193     		str	r3, [sp, #4]
 1286 003a 1923     		movs	r3, #25
 1287 003c 09AA     		add	r2, sp, #36
 1288 003e 2100     		movs	r1, r4
ARM GAS  C:\Users\PRAJWA~1\AppData\Local\Temp\ccedcYia.s 			page 30


 1289 0040 2800     		movs	r0, r5
 1290 0042 FFF7FEFF 		bl	sendCmd
 1291              	.LVL221:
 345:PSoC.h        ****     ptr = rec_data;
 346:PSoC.h        ****     if (result>=0)
 1292              		.loc 1 346 0
 1293 0046 0028     		cmp	r0, #0
 1294 0048 04DA     		bge	.L88
 347:PSoC.h        ****     {
 348:PSoC.h        ****         while(*ptr != '=')  ptr++;
 349:PSoC.h        ****         ptr++;
 350:PSoC.h        ****         return(atoi(ptr));
 351:PSoC.h        ****     }
 352:PSoC.h        ****     return -1;
 1295              		.loc 1 352 0
 1296 004a 0120     		movs	r0, #1
 1297              	.LVL222:
 1298 004c 4042     		rsbs	r0, r0, #0
 1299 004e 0AE0     		b	.L84
 1300              	.LVL223:
 1301              	.L86:
 348:PSoC.h        ****         ptr++;
 1302              		.loc 1 348 0 discriminator 2
 1303 0050 0130     		adds	r0, r0, #1
 1304              	.LVL224:
 1305 0052 00E0     		b	.L85
 1306              	.LVL225:
 1307              	.L88:
 1308 0054 09A8     		add	r0, sp, #36
 1309              	.LVL226:
 1310              	.L85:
 348:PSoC.h        ****         ptr++;
 1311              		.loc 1 348 0 is_stmt 0 discriminator 1
 1312 0056 0378     		ldrb	r3, [r0]
 1313 0058 3D2B     		cmp	r3, #61
 1314 005a F9D1     		bne	.L86
 349:PSoC.h        ****         return(atoi(ptr));
 1315              		.loc 1 349 0 is_stmt 1
 1316 005c 0130     		adds	r0, r0, #1
 1317              	.LVL227:
 350:PSoC.h        ****     }
 1318              		.loc 1 350 0
 1319 005e FFF7FEFF 		bl	atoi
 1320              	.LVL228:
 1321 0062 00E0     		b	.L84
 1322              	.LVL229:
 1323              	.L87:
 338:PSoC.h        ****     
 1324              		.loc 1 338 0
 1325 0064 0020     		movs	r0, #0
 1326              	.LVL230:
 1327              	.L84:
 353:PSoC.h        **** }
 1328              		.loc 1 353 0
 1329 0066 10B0     		add	sp, sp, #64
 1330              		@ sp needed
 1331              	.LVL231:
ARM GAS  C:\Users\PRAJWA~1\AppData\Local\Temp\ccedcYia.s 			page 31


 1332 0068 70BD     		pop	{r4, r5, r6, pc}
 1333              	.L90:
 1334 006a C046     		.align	2
 1335              	.L89:
 1336 006c 40000000 		.word	.LANCHOR0
 1337 0070 40420F00 		.word	1000000
 1338              		.cfi_endproc
 1339              	.LFE46:
 1340              		.size	bleON_slave, .-bleON_slave
 1341              		.section	.text.ble_connect,"ax",%progbits
 1342              		.align	2
 1343              		.global	ble_connect
 1344              		.code	16
 1345              		.thumb_func
 1346              		.type	ble_connect, %function
 1347              	ble_connect:
 1348              	.LFB47:
 354:PSoC.h        **** 
 355:PSoC.h        **** int ble_connect(struct PSC_McM_6_00 *p, char *mac){
 1349              		.loc 1 355 0
 1350              		.cfi_startproc
 1351              		@ args = 0, pretend = 0, frame = 144
 1352              		@ frame_needed = 0, uses_anonymous_args = 0
 1353              	.LVL232:
 1354 0000 10B5     		push	{r4, lr}
 1355              		.cfi_def_cfa_offset 8
 1356              		.cfi_offset 4, -8
 1357              		.cfi_offset 14, -4
 1358 0002 A8B0     		sub	sp, sp, #160
 1359              		.cfi_def_cfa_offset 168
 1360 0004 0400     		movs	r4, r0
 1361 0006 0A00     		movs	r2, r1
 356:PSoC.h        ****     int result;
 357:PSoC.h        ****     char rec_data[100];
 358:PSoC.h        ****     char buffer[40];
 359:PSoC.h        ****     
 360:PSoC.h        ****     sprintf(buffer, "AT+BLECONNECT=%s\r\n", mac);
 1362              		.loc 1 360 0
 1363 0008 0B49     		ldr	r1, .L94
 1364              	.LVL233:
 1365 000a 05A8     		add	r0, sp, #20
 1366              	.LVL234:
 1367 000c FFF7FEFF 		bl	sprintf
 1368              	.LVL235:
 361:PSoC.h        ****     result = sendCmd(p, buffer, rec_data, 100, 1000000, 0);
 1369              		.loc 1 361 0
 1370 0010 0023     		movs	r3, #0
 1371 0012 0293     		str	r3, [sp, #8]
 1372 0014 094A     		ldr	r2, .L94+4
 1373 0016 0023     		movs	r3, #0
 1374 0018 0092     		str	r2, [sp]
 1375 001a 0193     		str	r3, [sp, #4]
 1376 001c 6423     		movs	r3, #100
 1377 001e 0FAA     		add	r2, sp, #60
 1378 0020 05A9     		add	r1, sp, #20
 1379 0022 2000     		movs	r0, r4
 1380 0024 FFF7FEFF 		bl	sendCmd
ARM GAS  C:\Users\PRAJWA~1\AppData\Local\Temp\ccedcYia.s 			page 32


 1381              	.LVL236:
 362:PSoC.h        ****     if(result >= 0) return 0;
 1382              		.loc 1 362 0
 1383 0028 0028     		cmp	r0, #0
 1384 002a 01DB     		blt	.L93
 1385 002c 0020     		movs	r0, #0
 1386              	.LVL237:
 1387 002e 01E0     		b	.L92
 1388              	.LVL238:
 1389              	.L93:
 363:PSoC.h        ****     return -1;
 1390              		.loc 1 363 0
 1391 0030 0120     		movs	r0, #1
 1392              	.LVL239:
 1393 0032 4042     		rsbs	r0, r0, #0
 1394              	.L92:
 364:PSoC.h        **** }
 1395              		.loc 1 364 0
 1396 0034 28B0     		add	sp, sp, #160
 1397              		@ sp needed
 1398              	.LVL240:
 1399 0036 10BD     		pop	{r4, pc}
 1400              	.L95:
 1401              		.align	2
 1402              	.L94:
 1403 0038 74000000 		.word	.LC23
 1404 003c 40420F00 		.word	1000000
 1405              		.cfi_endproc
 1406              	.LFE47:
 1407              		.size	ble_connect, .-ble_connect
 1408              		.section	.text.ble_disconnect,"ax",%progbits
 1409              		.align	2
 1410              		.global	ble_disconnect
 1411              		.code	16
 1412              		.thumb_func
 1413              		.type	ble_disconnect, %function
 1414              	ble_disconnect:
 1415              	.LFB48:
 365:PSoC.h        **** 
 366:PSoC.h        **** int ble_disconnect(struct PSC_McM_6_00 *p)
 367:PSoC.h        **** {
 1416              		.loc 1 367 0
 1417              		.cfi_startproc
 1418              		@ args = 0, pretend = 0, frame = 48
 1419              		@ frame_needed = 0, uses_anonymous_args = 0
 1420              	.LVL241:
 1421 0000 F0B5     		push	{r4, r5, r6, r7, lr}
 1422              		.cfi_def_cfa_offset 20
 1423              		.cfi_offset 4, -20
 1424              		.cfi_offset 5, -16
 1425              		.cfi_offset 6, -12
 1426              		.cfi_offset 7, -8
 1427              		.cfi_offset 14, -4
 1428 0002 4F46     		mov	r7, r9
 1429 0004 80B4     		push	{r7}
 1430              		.cfi_def_cfa_offset 24
 1431              		.cfi_offset 9, -24
ARM GAS  C:\Users\PRAJWA~1\AppData\Local\Temp\ccedcYia.s 			page 33


 1432 0006 90B0     		sub	sp, sp, #64
 1433              		.cfi_def_cfa_offset 88
 1434 0008 0590     		str	r0, [sp, #20]
 368:PSoC.h        ****     int result;
 369:PSoC.h        ****     char rec_data[10];
 370:PSoC.h        ****     char cmd1[5] = "+++";
 1435              		.loc 1 370 0
 1436 000a 0BAB     		add	r3, sp, #44
 1437 000c 9946     		mov	r9, r3
 1438 000e 1B4B     		ldr	r3, .L99
 1439 0010 0B93     		str	r3, [sp, #44]
 1440 0012 0024     		movs	r4, #0
 1441 0014 4B46     		mov	r3, r9
 1442 0016 1C71     		strb	r4, [r3, #4]
 371:PSoC.h        ****     char cmd2[18] = "AT+BLEDISCON\r\n";
 1443              		.loc 1 371 0
 1444 0018 06AD     		add	r5, sp, #24
 1445 001a 194B     		ldr	r3, .L99+4
 1446 001c 0433     		adds	r3, r3, #4
 1447 001e 2A00     		movs	r2, r5
 1448 0020 C2CB     		ldmia	r3!, {r1, r6, r7}
 1449 0022 C2C2     		stmia	r2!, {r1, r6, r7}
 1450 0024 1988     		ldrh	r1, [r3]
 1451 0026 1180     		strh	r1, [r2]
 1452 0028 9B78     		ldrb	r3, [r3, #2]
 1453 002a 9370     		strb	r3, [r2, #2]
 1454 002c 0322     		movs	r2, #3
 1455 002e 0021     		movs	r1, #0
 1456 0030 1F23     		movs	r3, #31
 1457 0032 02A8     		add	r0, sp, #8
 1458              	.LVL242:
 1459 0034 8446     		mov	ip, r0
 1460 0036 6344     		add	r3, r3, ip
 1461 0038 1800     		movs	r0, r3
 1462 003a FFF7FEFF 		bl	memset
 1463              	.LVL243:
 372:PSoC.h        ****     
 373:PSoC.h        ****     sendCmd(p, cmd1, rec_data, 10, 100000, 0);
 1464              		.loc 1 373 0
 1465 003e 0294     		str	r4, [sp, #8]
 1466 0040 104E     		ldr	r6, .L99+8
 1467 0042 0027     		movs	r7, #0
 1468 0044 0096     		str	r6, [sp]
 1469 0046 0197     		str	r7, [sp, #4]
 1470 0048 0A23     		movs	r3, #10
 1471 004a 0DAA     		add	r2, sp, #52
 1472 004c 4946     		mov	r1, r9
 1473 004e 0598     		ldr	r0, [sp, #20]
 1474 0050 FFF7FEFF 		bl	sendCmd
 1475              	.LVL244:
 374:PSoC.h        ****     result = sendCmd(p, cmd2, rec_data, 10, 100000, 0);
 1476              		.loc 1 374 0
 1477 0054 0294     		str	r4, [sp, #8]
 1478 0056 0096     		str	r6, [sp]
 1479 0058 0197     		str	r7, [sp, #4]
 1480 005a 0A23     		movs	r3, #10
 1481 005c 0DAA     		add	r2, sp, #52
ARM GAS  C:\Users\PRAJWA~1\AppData\Local\Temp\ccedcYia.s 			page 34


 1482 005e 2900     		movs	r1, r5
 1483 0060 0598     		ldr	r0, [sp, #20]
 1484 0062 FFF7FEFF 		bl	sendCmd
 1485              	.LVL245:
 375:PSoC.h        ****     
 376:PSoC.h        ****     if(result) return 0;
 1486              		.loc 1 376 0
 1487 0066 0028     		cmp	r0, #0
 1488 0068 01D0     		beq	.L98
 1489 006a 0020     		movs	r0, #0
 1490              	.LVL246:
 1491 006c 01E0     		b	.L97
 1492              	.LVL247:
 1493              	.L98:
 377:PSoC.h        ****     return -1;
 1494              		.loc 1 377 0
 1495 006e 0120     		movs	r0, #1
 1496              	.LVL248:
 1497 0070 4042     		rsbs	r0, r0, #0
 1498              	.L97:
 378:PSoC.h        **** }
 1499              		.loc 1 378 0
 1500 0072 10B0     		add	sp, sp, #64
 1501              		@ sp needed
 1502 0074 04BC     		pop	{r2}
 1503 0076 9146     		mov	r9, r2
 1504 0078 F0BD     		pop	{r4, r5, r6, r7, pc}
 1505              	.L100:
 1506 007a C046     		.align	2
 1507              	.L99:
 1508 007c 2B2B2B00 		.word	2829099
 1509 0080 C0000000 		.word	.LANCHOR1
 1510 0084 A0860100 		.word	100000
 1511              		.cfi_endproc
 1512              	.LFE48:
 1513              		.size	ble_disconnect, .-ble_disconnect
 1514              		.section	.text.ble_sendData,"ax",%progbits
 1515              		.align	2
 1516              		.global	ble_sendData
 1517              		.code	16
 1518              		.thumb_func
 1519              		.type	ble_sendData, %function
 1520              	ble_sendData:
 1521              	.LFB49:
 379:PSoC.h        **** 
 380:PSoC.h        **** int ble_sendData(struct PSC_McM_6_00 *p, char *send)
 381:PSoC.h        **** {
 1522              		.loc 1 381 0
 1523              		.cfi_startproc
 1524              		@ args = 0, pretend = 0, frame = 1000
 1525              		@ frame_needed = 0, uses_anonymous_args = 0
 1526              	.LVL249:
 1527 0000 80B5     		push	{r7, lr}
 1528              		.cfi_def_cfa_offset 8
 1529              		.cfi_offset 7, -8
 1530              		.cfi_offset 14, -4
 1531 0002 0C4F     		ldr	r7, .L102
ARM GAS  C:\Users\PRAJWA~1\AppData\Local\Temp\ccedcYia.s 			page 35


 1532 0004 BD44     		add	sp, sp, r7
 1533              		.cfi_def_cfa_offset 1008
 1534 0006 0A00     		movs	r2, r1
 382:PSoC.h        ****     char buffer[1000];
 383:PSoC.h        ****     
 384:PSoC.h        ****     sprintf(buffer, "%s%s", send, "\r\n");
 1535              		.loc 1 384 0
 1536 0008 0B4B     		ldr	r3, .L102+4
 1537 000a 0C49     		ldr	r1, .L102+8
 1538              	.LVL250:
 1539 000c 6846     		mov	r0, sp
 1540              	.LVL251:
 1541 000e FFF7FEFF 		bl	sprintf
 1542              	.LVL252:
 385:PSoC.h        ****     switchTo(BLE);
 1543              		.loc 1 385 0
 1544 0012 0120     		movs	r0, #1
 1545 0014 FFF7FEFF 		bl	switchTo
 1546              	.LVL253:
 386:PSoC.h        ****     UART_UartPutString(buffer);
 1547              		.loc 1 386 0
 1548 0018 6846     		mov	r0, sp
 1549 001a FFF7FEFF 		bl	UART_UartPutString
 1550              	.LVL254:
 387:PSoC.h        ****     delay(1);
 1551              		.loc 1 387 0
 1552 001e 0120     		movs	r0, #1
 1553 0020 FFF7FEFF 		bl	delay
 1554              	.LVL255:
 388:PSoC.h        ****     switchTo(USB);
 1555              		.loc 1 388 0
 1556 0024 0020     		movs	r0, #0
 1557 0026 FFF7FEFF 		bl	switchTo
 1558              	.LVL256:
 389:PSoC.h        ****     return 0;
 390:PSoC.h        **** }
 1559              		.loc 1 390 0
 1560 002a 0020     		movs	r0, #0
 1561 002c FA23     		movs	r3, #250
 1562 002e 9B00     		lsls	r3, r3, #2
 1563 0030 9D44     		add	sp, sp, r3
 1564              		@ sp needed
 1565 0032 80BD     		pop	{r7, pc}
 1566              	.L103:
 1567              		.align	2
 1568              	.L102:
 1569 0034 18FCFFFF 		.word	-1000
 1570 0038 88000000 		.word	.LC27
 1571 003c 8C000000 		.word	.LC29
 1572              		.cfi_endproc
 1573              	.LFE49:
 1574              		.size	ble_sendData, .-ble_sendData
 1575              		.section	.text.WiFi_mac,"ax",%progbits
 1576              		.align	2
 1577              		.global	WiFi_mac
 1578              		.code	16
 1579              		.thumb_func
ARM GAS  C:\Users\PRAJWA~1\AppData\Local\Temp\ccedcYia.s 			page 36


 1580              		.type	WiFi_mac, %function
 1581              	WiFi_mac:
 1582              	.LFB50:
 391:PSoC.h        **** 
 392:PSoC.h        **** //int ble_receiveData(struct PSC_McM_6_00 *p)
 393:PSoC.h        **** //{
 394:PSoC.h        **** //    char rec_data = 0;
 395:PSoC.h        **** //    switchTo(BLE);
 396:PSoC.h        **** //    if(UART_SpiUartGetRxBufferSize() != 0)
 397:PSoC.h        **** //        rec_data = UART_SpiUartReadRxData();
 398:PSoC.h        **** //    delay(1);
 399:PSoC.h        **** //    switchTo(USB);
 400:PSoC.h        **** //    return rec_data;
 401:PSoC.h        **** //}
 402:PSoC.h        **** 
 403:PSoC.h        **** 
 404:PSoC.h        **** 
 405:PSoC.h        **** 
 406:PSoC.h        **** 
 407:PSoC.h        **** int WiFi_mac(struct PSC_McM_6_00 *p, char *mac)
 408:PSoC.h        **** {
 1583              		.loc 1 408 0
 1584              		.cfi_startproc
 1585              		@ args = 0, pretend = 0, frame = 88
 1586              		@ frame_needed = 0, uses_anonymous_args = 0
 1587              	.LVL257:
 1588 0000 F0B5     		push	{r4, r5, r6, r7, lr}
 1589              		.cfi_def_cfa_offset 20
 1590              		.cfi_offset 4, -20
 1591              		.cfi_offset 5, -16
 1592              		.cfi_offset 6, -12
 1593              		.cfi_offset 7, -8
 1594              		.cfi_offset 14, -4
 1595 0002 9BB0     		sub	sp, sp, #108
 1596              		.cfi_def_cfa_offset 128
 1597 0004 0500     		movs	r5, r0
 1598 0006 0C00     		movs	r4, r1
 1599              	.LVL258:
 409:PSoC.h        ****     char rec_data[60],*ptr;
 410:PSoC.h        ****     int result, j=0;
 411:PSoC.h        ****     char cmd[25] = "AT+CIPSTAMAC_DEF?\r\n";
 1600              		.loc 1 411 0
 1601 0008 04AE     		add	r6, sp, #16
 1602 000a 3200     		movs	r2, r6
 1603 000c 184B     		ldr	r3, .L113
 1604 000e 1833     		adds	r3, r3, #24
 1605 0010 83CB     		ldmia	r3!, {r0, r1, r7}
 1606 0012 83C2     		stmia	r2!, {r0, r1, r7}
 1607              	.LVL259:
 1608 0014 03CB     		ldmia	r3!, {r0, r1}
 1609 0016 03C2     		stmia	r2!, {r0, r1}
 1610 0018 0522     		movs	r2, #5
 1611 001a 0021     		movs	r1, #0
 1612 001c 09A8     		add	r0, sp, #36
 1613 001e FFF7FEFF 		bl	memset
 1614              	.LVL260:
 412:PSoC.h        ****     
ARM GAS  C:\Users\PRAJWA~1\AppData\Local\Temp\ccedcYia.s 			page 37


 413:PSoC.h        ****     result = sendCmd(p, cmd, rec_data, 60, 100000, 0);
 1615              		.loc 1 413 0
 1616 0022 0023     		movs	r3, #0
 1617 0024 0293     		str	r3, [sp, #8]
 1618 0026 134A     		ldr	r2, .L113+4
 1619 0028 0023     		movs	r3, #0
 1620 002a 0092     		str	r2, [sp]
 1621 002c 0193     		str	r3, [sp, #4]
 1622 002e 3C23     		movs	r3, #60
 1623 0030 0BAA     		add	r2, sp, #44
 1624 0032 3100     		movs	r1, r6
 1625 0034 2800     		movs	r0, r5
 1626 0036 FFF7FEFF 		bl	sendCmd
 1627              	.LVL261:
 414:PSoC.h        ****     ptr = rec_data;
 415:PSoC.h        ****     if (result>=0)
 1628              		.loc 1 415 0
 1629 003a 0028     		cmp	r0, #0
 1630 003c 02DA     		bge	.L111
 1631 003e 0EE0     		b	.L106
 1632              	.LVL262:
 1633              	.L107:
 416:PSoC.h        ****     {
 417:PSoC.h        ****         while(*ptr != ':')  ptr++;
 1634              		.loc 1 417 0 discriminator 2
 1635 0040 0133     		adds	r3, r3, #1
 1636              	.LVL263:
 1637 0042 00E0     		b	.L105
 1638              	.LVL264:
 1639              	.L111:
 1640 0044 0BAB     		add	r3, sp, #44
 1641              	.LVL265:
 1642              	.L105:
 1643              		.loc 1 417 0 is_stmt 0 discriminator 1
 1644 0046 1A78     		ldrb	r2, [r3]
 1645 0048 3A2A     		cmp	r2, #58
 1646 004a F9D1     		bne	.L107
 418:PSoC.h        ****         ptr++;
 1647              		.loc 1 418 0 is_stmt 1
 1648 004c 0133     		adds	r3, r3, #1
 1649              	.LVL266:
 410:PSoC.h        ****     char cmd[25] = "AT+CIPSTAMAC_DEF?\r\n";
 1650              		.loc 1 410 0
 1651 004e 0021     		movs	r1, #0
 419:PSoC.h        **** 
 420:PSoC.h        ****         while(*ptr != '\r')
 1652              		.loc 1 420 0
 1653 0050 02E0     		b	.L108
 1654              	.LVL267:
 1655              	.L109:
 421:PSoC.h        ****         {
 422:PSoC.h        ****           mac[j] = *ptr;
 1656              		.loc 1 422 0
 1657 0052 6254     		strb	r2, [r4, r1]
 423:PSoC.h        ****           j++; ptr++;
 1658              		.loc 1 423 0
 1659 0054 0131     		adds	r1, r1, #1
ARM GAS  C:\Users\PRAJWA~1\AppData\Local\Temp\ccedcYia.s 			page 38


 1660              	.LVL268:
 1661 0056 0133     		adds	r3, r3, #1
 1662              	.LVL269:
 1663              	.L108:
 420:PSoC.h        ****         {
 1664              		.loc 1 420 0
 1665 0058 1A78     		ldrb	r2, [r3]
 1666 005a 0D2A     		cmp	r2, #13
 1667 005c F9D1     		bne	.L109
 1668              	.LVL270:
 1669              	.L106:
 424:PSoC.h        ****         }
 425:PSoC.h        ****     }
 426:PSoC.h        ****     if(result>=0)  return 0;
 1670              		.loc 1 426 0
 1671 005e 0028     		cmp	r0, #0
 1672 0060 01DB     		blt	.L112
 1673 0062 0020     		movs	r0, #0
 1674              	.LVL271:
 1675 0064 01E0     		b	.L110
 1676              	.LVL272:
 1677              	.L112:
 427:PSoC.h        ****     return -1;
 1678              		.loc 1 427 0
 1679 0066 0120     		movs	r0, #1
 1680              	.LVL273:
 1681 0068 4042     		rsbs	r0, r0, #0
 1682              	.L110:
 428:PSoC.h        **** }
 1683              		.loc 1 428 0
 1684 006a 1BB0     		add	sp, sp, #108
 1685              		@ sp needed
 1686              	.LVL274:
 1687              	.LVL275:
 1688 006c F0BD     		pop	{r4, r5, r6, r7, pc}
 1689              	.L114:
 1690 006e C046     		.align	2
 1691              	.L113:
 1692 0070 C0000000 		.word	.LANCHOR1
 1693 0074 A0860100 		.word	100000
 1694              		.cfi_endproc
 1695              	.LFE50:
 1696              		.size	WiFi_mac, .-WiFi_mac
 1697              		.section	.text.WiFi_status,"ax",%progbits
 1698              		.align	2
 1699              		.global	WiFi_status
 1700              		.code	16
 1701              		.thumb_func
 1702              		.type	WiFi_status, %function
 1703              	WiFi_status:
 1704              	.LFB51:
 429:PSoC.h        **** 
 430:PSoC.h        **** int WiFi_status(struct PSC_McM_6_00 *p)
 431:PSoC.h        **** {    
 1705              		.loc 1 431 0
 1706              		.cfi_startproc
 1707              		@ args = 0, pretend = 0, frame = 48
ARM GAS  C:\Users\PRAJWA~1\AppData\Local\Temp\ccedcYia.s 			page 39


 1708              		@ frame_needed = 0, uses_anonymous_args = 0
 1709              	.LVL276:
 1710 0000 70B5     		push	{r4, r5, r6, lr}
 1711              		.cfi_def_cfa_offset 16
 1712              		.cfi_offset 4, -16
 1713              		.cfi_offset 5, -12
 1714              		.cfi_offset 6, -8
 1715              		.cfi_offset 14, -4
 1716 0002 90B0     		sub	sp, sp, #64
 1717              		.cfi_def_cfa_offset 80
 1718 0004 0500     		movs	r5, r0
 432:PSoC.h        ****     uint8_t result;
 433:PSoC.h        ****     char rec_data[25],*ptr;
 434:PSoC.h        ****     char cmd[15] = "AT+WMODE?\r\n";
 1719              		.loc 1 434 0
 1720 0006 05AC     		add	r4, sp, #20
 1721 0008 2000     		movs	r0, r4
 1722              	.LVL277:
 1723 000a 114B     		ldr	r3, .L118
 1724 000c 3433     		adds	r3, r3, #52
 1725 000e 46CB     		ldmia	r3!, {r1, r2, r6}
 1726 0010 46C0     		stmia	r0!, {r1, r2, r6}
 1727 0012 0322     		movs	r2, #3
 1728 0014 0021     		movs	r1, #0
 1729 0016 FFF7FEFF 		bl	memset
 1730              	.LVL278:
 435:PSoC.h        **** 
 436:PSoC.h        ****     UART_UartPutString("0: WiFi is OFF.\n1: WiFi is configured as STA.\n2: WiFi is configured AP.\n
 1731              		.loc 1 436 0
 1732 001a 0E48     		ldr	r0, .L118+4
 1733 001c FFF7FEFF 		bl	UART_UartPutString
 1734              	.LVL279:
 437:PSoC.h        ****     
 438:PSoC.h        ****     result = sendCmd(p, cmd, rec_data, 25, 100000, 0);
 1735              		.loc 1 438 0
 1736 0020 0023     		movs	r3, #0
 1737 0022 0293     		str	r3, [sp, #8]
 1738 0024 0C4A     		ldr	r2, .L118+8
 1739 0026 0023     		movs	r3, #0
 1740 0028 0092     		str	r2, [sp]
 1741 002a 0193     		str	r3, [sp, #4]
 1742 002c 1923     		movs	r3, #25
 1743 002e 09AA     		add	r2, sp, #36
 1744 0030 2100     		movs	r1, r4
 1745 0032 2800     		movs	r0, r5
 1746 0034 FFF7FEFF 		bl	sendCmd
 1747              	.LVL280:
 439:PSoC.h        ****     ptr = rec_data;
 1748              		.loc 1 439 0
 1749 0038 09A8     		add	r0, sp, #36
 1750              	.LVL281:
 440:PSoC.h        ****     if (result>=0)
 441:PSoC.h        ****     {
 442:PSoC.h        ****         while(*ptr != ':')  ptr++;
 1751              		.loc 1 442 0
 1752 003a 00E0     		b	.L116
 1753              	.L117:
ARM GAS  C:\Users\PRAJWA~1\AppData\Local\Temp\ccedcYia.s 			page 40


 1754              		.loc 1 442 0 is_stmt 0 discriminator 2
 1755 003c 0130     		adds	r0, r0, #1
 1756              	.LVL282:
 1757              	.L116:
 1758              		.loc 1 442 0 discriminator 1
 1759 003e 0378     		ldrb	r3, [r0]
 1760 0040 3A2B     		cmp	r3, #58
 1761 0042 FBD1     		bne	.L117
 443:PSoC.h        ****         ptr++;
 1762              		.loc 1 443 0 is_stmt 1
 1763 0044 0130     		adds	r0, r0, #1
 1764              	.LVL283:
 444:PSoC.h        ****         return (atoi(ptr));
 1765              		.loc 1 444 0
 1766 0046 FFF7FEFF 		bl	atoi
 1767              	.LVL284:
 445:PSoC.h        ****     }
 446:PSoC.h        ****     return -1;
 447:PSoC.h        **** }
 1768              		.loc 1 447 0
 1769 004a 10B0     		add	sp, sp, #64
 1770              		@ sp needed
 1771              	.LVL285:
 1772 004c 70BD     		pop	{r4, r5, r6, pc}
 1773              	.L119:
 1774 004e C046     		.align	2
 1775              	.L118:
 1776 0050 C0000000 		.word	.LANCHOR1
 1777 0054 94000000 		.word	.LC35
 1778 0058 A0860100 		.word	100000
 1779              		.cfi_endproc
 1780              	.LFE51:
 1781              		.size	WiFi_status, .-WiFi_status
 1782              		.section	.text.WiFi_OFF,"ax",%progbits
 1783              		.align	2
 1784              		.global	WiFi_OFF
 1785              		.code	16
 1786              		.thumb_func
 1787              		.type	WiFi_OFF, %function
 1788              	WiFi_OFF:
 1789              	.LFB52:
 448:PSoC.h        **** 
 449:PSoC.h        **** int WiFi_OFF(struct PSC_McM_6_00 *p)
 450:PSoC.h        **** {    
 1790              		.loc 1 450 0
 1791              		.cfi_startproc
 1792              		@ args = 0, pretend = 0, frame = 72
 1793              		@ frame_needed = 0, uses_anonymous_args = 0
 1794              	.LVL286:
 1795 0000 F0B5     		push	{r4, r5, r6, r7, lr}
 1796              		.cfi_def_cfa_offset 20
 1797              		.cfi_offset 4, -20
 1798              		.cfi_offset 5, -16
 1799              		.cfi_offset 6, -12
 1800              		.cfi_offset 7, -8
 1801              		.cfi_offset 14, -4
 1802 0002 97B0     		sub	sp, sp, #92
ARM GAS  C:\Users\PRAJWA~1\AppData\Local\Temp\ccedcYia.s 			page 41


 1803              		.cfi_def_cfa_offset 112
 1804 0004 0590     		str	r0, [sp, #20]
 451:PSoC.h        ****     char rec_data[30],*ptr;
 452:PSoC.h        ****     int result;
 453:PSoC.h        ****     char cmdRst[10] = "AT+RST\r\n";
 1805              		.loc 1 453 0
 1806 0006 0BAE     		add	r6, sp, #44
 1807 0008 1F4B     		ldr	r3, .L123
 1808 000a 3100     		movs	r1, r6
 1809 000c 1A00     		movs	r2, r3
 1810 000e 4432     		adds	r2, r2, #68
 1811 0010 11CA     		ldmia	r2!, {r0, r4}
 1812 0012 11C1     		stmia	r1!, {r0, r4}
 1813              	.LVL287:
 1814 0014 1278     		ldrb	r2, [r2]
 1815 0016 0A70     		strb	r2, [r1]
 1816 0018 0027     		movs	r7, #0
 1817 001a 7772     		strb	r7, [r6, #9]
 454:PSoC.h        ****     char cmdWoff[18] = "AT+WMODE=0,0\r\n";
 1818              		.loc 1 454 0
 1819 001c 06AC     		add	r4, sp, #24
 1820 001e 2200     		movs	r2, r4
 1821 0020 5033     		adds	r3, r3, #80
 1822 0022 23CB     		ldmia	r3!, {r0, r1, r5}
 1823 0024 23C2     		stmia	r2!, {r0, r1, r5}
 1824 0026 1988     		ldrh	r1, [r3]
 1825 0028 1180     		strh	r1, [r2]
 1826 002a 9B78     		ldrb	r3, [r3, #2]
 1827 002c 9370     		strb	r3, [r2, #2]
 1828 002e 0322     		movs	r2, #3
 1829 0030 0021     		movs	r1, #0
 1830 0032 1F20     		movs	r0, #31
 1831 0034 02AB     		add	r3, sp, #8
 1832 0036 9C46     		mov	ip, r3
 1833 0038 6044     		add	r0, r0, ip
 1834 003a FFF7FEFF 		bl	memset
 1835              	.LVL288:
 455:PSoC.h        ****     
 456:PSoC.h        ****     result = sendCmd(p, cmdRst, rec_data, 30, 10000, 0);
 1836              		.loc 1 456 0
 1837 003e 0297     		str	r7, [sp, #8]
 1838 0040 124A     		ldr	r2, .L123+4
 1839 0042 0023     		movs	r3, #0
 1840 0044 0092     		str	r2, [sp]
 1841 0046 0193     		str	r3, [sp, #4]
 1842 0048 1E23     		movs	r3, #30
 1843 004a 0EAA     		add	r2, sp, #56
 1844 004c 3100     		movs	r1, r6
 1845 004e 0598     		ldr	r0, [sp, #20]
 1846 0050 FFF7FEFF 		bl	sendCmd
 1847              	.LVL289:
 457:PSoC.h        ****     delay(800);
 1848              		.loc 1 457 0
 1849 0054 C820     		movs	r0, #200
 1850 0056 8000     		lsls	r0, r0, #2
 1851 0058 FFF7FEFF 		bl	delay
 1852              	.LVL290:
ARM GAS  C:\Users\PRAJWA~1\AppData\Local\Temp\ccedcYia.s 			page 42


 458:PSoC.h        ****     UART_SpiUartClearRxBuffer();
 1853              		.loc 1 458 0
 1854 005c FFF7FEFF 		bl	UART_SpiUartClearRxBuffer
 1855              	.LVL291:
 459:PSoC.h        ****     result = sendCmd(p, cmdWoff, rec_data, 30, 100000, 0);
 1856              		.loc 1 459 0
 1857 0060 0297     		str	r7, [sp, #8]
 1858 0062 0B4A     		ldr	r2, .L123+8
 1859 0064 0023     		movs	r3, #0
 1860 0066 0092     		str	r2, [sp]
 1861 0068 0193     		str	r3, [sp, #4]
 1862 006a 1E23     		movs	r3, #30
 1863 006c 0EAA     		add	r2, sp, #56
 1864 006e 2100     		movs	r1, r4
 1865 0070 0598     		ldr	r0, [sp, #20]
 1866 0072 FFF7FEFF 		bl	sendCmd
 1867              	.LVL292:
 460:PSoC.h        ****     
 461:PSoC.h        ****     if(result >= 0)  return 0;
 1868              		.loc 1 461 0
 1869 0076 0028     		cmp	r0, #0
 1870 0078 01DB     		blt	.L122
 1871 007a 0020     		movs	r0, #0
 1872              	.LVL293:
 1873 007c 01E0     		b	.L121
 1874              	.LVL294:
 1875              	.L122:
 462:PSoC.h        ****     return -1;    
 1876              		.loc 1 462 0
 1877 007e 0120     		movs	r0, #1
 1878              	.LVL295:
 1879 0080 4042     		rsbs	r0, r0, #0
 1880              	.L121:
 463:PSoC.h        **** }
 1881              		.loc 1 463 0
 1882 0082 17B0     		add	sp, sp, #92
 1883              		@ sp needed
 1884 0084 F0BD     		pop	{r4, r5, r6, r7, pc}
 1885              	.L124:
 1886 0086 C046     		.align	2
 1887              	.L123:
 1888 0088 C0000000 		.word	.LANCHOR1
 1889 008c 10270000 		.word	10000
 1890 0090 A0860100 		.word	100000
 1891              		.cfi_endproc
 1892              	.LFE52:
 1893              		.size	WiFi_OFF, .-WiFi_OFF
 1894              		.section	.text.WiFiON_STA,"ax",%progbits
 1895              		.align	2
 1896              		.global	WiFiON_STA
 1897              		.code	16
 1898              		.thumb_func
 1899              		.type	WiFiON_STA, %function
 1900              	WiFiON_STA:
 1901              	.LFB53:
 464:PSoC.h        **** 
 465:PSoC.h        **** int WiFiON_STA(struct PSC_McM_6_00 *p)
ARM GAS  C:\Users\PRAJWA~1\AppData\Local\Temp\ccedcYia.s 			page 43


 466:PSoC.h        **** {    
 1902              		.loc 1 466 0
 1903              		.cfi_startproc
 1904              		@ args = 0, pretend = 0, frame = 48
 1905              		@ frame_needed = 0, uses_anonymous_args = 0
 1906              	.LVL296:
 1907 0000 70B5     		push	{r4, r5, r6, lr}
 1908              		.cfi_def_cfa_offset 16
 1909              		.cfi_offset 4, -16
 1910              		.cfi_offset 5, -12
 1911              		.cfi_offset 6, -8
 1912              		.cfi_offset 14, -4
 1913 0002 90B0     		sub	sp, sp, #64
 1914              		.cfi_def_cfa_offset 80
 1915 0004 0500     		movs	r5, r0
 467:PSoC.h        ****     char rec_data[25],*ptr;
 468:PSoC.h        ****     int result;
 469:PSoC.h        ****     char cmd[18] = "AT+WMODE=1,0\r\n";
 1916              		.loc 1 469 0
 1917 0006 04AC     		add	r4, sp, #16
 1918 0008 2200     		movs	r2, r4
 1919 000a 154B     		ldr	r3, .L130
 1920 000c 6433     		adds	r3, r3, #100
 1921 000e 43CB     		ldmia	r3!, {r0, r1, r6}
 1922 0010 43C2     		stmia	r2!, {r0, r1, r6}
 1923              	.LVL297:
 1924 0012 1988     		ldrh	r1, [r3]
 1925 0014 1180     		strh	r1, [r2]
 1926 0016 9B78     		ldrb	r3, [r3, #2]
 1927 0018 9370     		strb	r3, [r2, #2]
 1928 001a 0322     		movs	r2, #3
 1929 001c 0021     		movs	r1, #0
 1930 001e 1F20     		movs	r0, #31
 1931 0020 6844     		add	r0, r0, sp
 1932 0022 FFF7FEFF 		bl	memset
 1933              	.LVL298:
 470:PSoC.h        ****     
 471:PSoC.h        ****     result = sendCmd(p, cmd, rec_data, 25, 100000, 0);
 1934              		.loc 1 471 0
 1935 0026 0023     		movs	r3, #0
 1936 0028 0293     		str	r3, [sp, #8]
 1937 002a 0E4A     		ldr	r2, .L130+4
 1938 002c 0023     		movs	r3, #0
 1939 002e 0092     		str	r2, [sp]
 1940 0030 0193     		str	r3, [sp, #4]
 1941 0032 1923     		movs	r3, #25
 1942 0034 09AA     		add	r2, sp, #36
 1943 0036 2100     		movs	r1, r4
 1944 0038 2800     		movs	r0, r5
 1945 003a FFF7FEFF 		bl	sendCmd
 1946              	.LVL299:
 472:PSoC.h        ****     ptr = rec_data;
 473:PSoC.h        ****     if (result>=0)
 1947              		.loc 1 473 0
 1948 003e 0028     		cmp	r0, #0
 1949 0040 04DA     		bge	.L129
 474:PSoC.h        ****     {
ARM GAS  C:\Users\PRAJWA~1\AppData\Local\Temp\ccedcYia.s 			page 44


 475:PSoC.h        ****         while(*ptr != ',')  ptr++;
 476:PSoC.h        ****         ptr--;
 477:PSoC.h        ****         return (atoi(ptr));
 478:PSoC.h        ****     }
 479:PSoC.h        ****     return -1;   
 1950              		.loc 1 479 0
 1951 0042 0120     		movs	r0, #1
 1952              	.LVL300:
 1953 0044 4042     		rsbs	r0, r0, #0
 1954 0046 08E0     		b	.L127
 1955              	.LVL301:
 1956              	.L128:
 475:PSoC.h        ****         ptr--;
 1957              		.loc 1 475 0 discriminator 2
 1958 0048 0130     		adds	r0, r0, #1
 1959              	.LVL302:
 1960 004a 00E0     		b	.L126
 1961              	.LVL303:
 1962              	.L129:
 1963 004c 09A8     		add	r0, sp, #36
 1964              	.LVL304:
 1965              	.L126:
 475:PSoC.h        ****         ptr--;
 1966              		.loc 1 475 0 is_stmt 0 discriminator 1
 1967 004e 0378     		ldrb	r3, [r0]
 1968 0050 2C2B     		cmp	r3, #44
 1969 0052 F9D1     		bne	.L128
 476:PSoC.h        ****         return (atoi(ptr));
 1970              		.loc 1 476 0 is_stmt 1
 1971 0054 0138     		subs	r0, r0, #1
 1972              	.LVL305:
 477:PSoC.h        ****     }
 1973              		.loc 1 477 0
 1974 0056 FFF7FEFF 		bl	atoi
 1975              	.LVL306:
 1976              	.L127:
 480:PSoC.h        **** }
 1977              		.loc 1 480 0
 1978 005a 10B0     		add	sp, sp, #64
 1979              		@ sp needed
 1980              	.LVL307:
 1981 005c 70BD     		pop	{r4, r5, r6, pc}
 1982              	.L131:
 1983 005e C046     		.align	2
 1984              	.L130:
 1985 0060 C0000000 		.word	.LANCHOR1
 1986 0064 A0860100 		.word	100000
 1987              		.cfi_endproc
 1988              	.LFE53:
 1989              		.size	WiFiON_STA, .-WiFiON_STA
 1990              		.section	.text.WiFiON_AP,"ax",%progbits
 1991              		.align	2
 1992              		.global	WiFiON_AP
 1993              		.code	16
 1994              		.thumb_func
 1995              		.type	WiFiON_AP, %function
 1996              	WiFiON_AP:
ARM GAS  C:\Users\PRAJWA~1\AppData\Local\Temp\ccedcYia.s 			page 45


 1997              	.LFB54:
 481:PSoC.h        **** 
 482:PSoC.h        **** int WiFiON_AP(struct PSC_McM_6_00 *p)
 483:PSoC.h        **** {    
 1998              		.loc 1 483 0
 1999              		.cfi_startproc
 2000              		@ args = 0, pretend = 0, frame = 48
 2001              		@ frame_needed = 0, uses_anonymous_args = 0
 2002              	.LVL308:
 2003 0000 70B5     		push	{r4, r5, r6, lr}
 2004              		.cfi_def_cfa_offset 16
 2005              		.cfi_offset 4, -16
 2006              		.cfi_offset 5, -12
 2007              		.cfi_offset 6, -8
 2008              		.cfi_offset 14, -4
 2009 0002 90B0     		sub	sp, sp, #64
 2010              		.cfi_def_cfa_offset 80
 2011 0004 0500     		movs	r5, r0
 484:PSoC.h        ****     char rec_data[25],*ptr;
 485:PSoC.h        ****     int result;
 486:PSoC.h        ****     char cmd[18] = "AT+WMODE=2,0\r\n";
 2012              		.loc 1 486 0
 2013 0006 04AC     		add	r4, sp, #16
 2014 0008 2200     		movs	r2, r4
 2015 000a 154B     		ldr	r3, .L137
 2016 000c 7833     		adds	r3, r3, #120
 2017 000e 43CB     		ldmia	r3!, {r0, r1, r6}
 2018 0010 43C2     		stmia	r2!, {r0, r1, r6}
 2019              	.LVL309:
 2020 0012 1988     		ldrh	r1, [r3]
 2021 0014 1180     		strh	r1, [r2]
 2022 0016 9B78     		ldrb	r3, [r3, #2]
 2023 0018 9370     		strb	r3, [r2, #2]
 2024 001a 0322     		movs	r2, #3
 2025 001c 0021     		movs	r1, #0
 2026 001e 1F20     		movs	r0, #31
 2027 0020 6844     		add	r0, r0, sp
 2028 0022 FFF7FEFF 		bl	memset
 2029              	.LVL310:
 487:PSoC.h        ****     
 488:PSoC.h        ****     result = sendCmd(p, cmd, rec_data, 25, 100000, 0);
 2030              		.loc 1 488 0
 2031 0026 0023     		movs	r3, #0
 2032 0028 0293     		str	r3, [sp, #8]
 2033 002a 0E4A     		ldr	r2, .L137+4
 2034 002c 0023     		movs	r3, #0
 2035 002e 0092     		str	r2, [sp]
 2036 0030 0193     		str	r3, [sp, #4]
 2037 0032 1923     		movs	r3, #25
 2038 0034 09AA     		add	r2, sp, #36
 2039 0036 2100     		movs	r1, r4
 2040 0038 2800     		movs	r0, r5
 2041 003a FFF7FEFF 		bl	sendCmd
 2042              	.LVL311:
 489:PSoC.h        ****     ptr = rec_data;
 490:PSoC.h        ****     if (result>=0)
 2043              		.loc 1 490 0
ARM GAS  C:\Users\PRAJWA~1\AppData\Local\Temp\ccedcYia.s 			page 46


 2044 003e 0028     		cmp	r0, #0
 2045 0040 04DA     		bge	.L136
 491:PSoC.h        ****     {
 492:PSoC.h        ****         while(*ptr != ',')  ptr++;
 493:PSoC.h        ****         ptr--;
 494:PSoC.h        ****         return (atoi(ptr));
 495:PSoC.h        ****     }
 496:PSoC.h        ****     return -1;   
 2046              		.loc 1 496 0
 2047 0042 0120     		movs	r0, #1
 2048              	.LVL312:
 2049 0044 4042     		rsbs	r0, r0, #0
 2050 0046 08E0     		b	.L134
 2051              	.LVL313:
 2052              	.L135:
 492:PSoC.h        ****         ptr--;
 2053              		.loc 1 492 0 discriminator 2
 2054 0048 0130     		adds	r0, r0, #1
 2055              	.LVL314:
 2056 004a 00E0     		b	.L133
 2057              	.LVL315:
 2058              	.L136:
 2059 004c 09A8     		add	r0, sp, #36
 2060              	.LVL316:
 2061              	.L133:
 492:PSoC.h        ****         ptr--;
 2062              		.loc 1 492 0 is_stmt 0 discriminator 1
 2063 004e 0378     		ldrb	r3, [r0]
 2064 0050 2C2B     		cmp	r3, #44
 2065 0052 F9D1     		bne	.L135
 493:PSoC.h        ****         return (atoi(ptr));
 2066              		.loc 1 493 0 is_stmt 1
 2067 0054 0138     		subs	r0, r0, #1
 2068              	.LVL317:
 494:PSoC.h        ****     }
 2069              		.loc 1 494 0
 2070 0056 FFF7FEFF 		bl	atoi
 2071              	.LVL318:
 2072              	.L134:
 497:PSoC.h        **** }
 2073              		.loc 1 497 0
 2074 005a 10B0     		add	sp, sp, #64
 2075              		@ sp needed
 2076              	.LVL319:
 2077 005c 70BD     		pop	{r4, r5, r6, pc}
 2078              	.L138:
 2079 005e C046     		.align	2
 2080              	.L137:
 2081 0060 C0000000 		.word	.LANCHOR1
 2082 0064 A0860100 		.word	100000
 2083              		.cfi_endproc
 2084              	.LFE54:
 2085              		.size	WiFiON_AP, .-WiFiON_AP
 2086              		.section	.text.WiFiON_AP_STA,"ax",%progbits
 2087              		.align	2
 2088              		.global	WiFiON_AP_STA
 2089              		.code	16
ARM GAS  C:\Users\PRAJWA~1\AppData\Local\Temp\ccedcYia.s 			page 47


 2090              		.thumb_func
 2091              		.type	WiFiON_AP_STA, %function
 2092              	WiFiON_AP_STA:
 2093              	.LFB55:
 498:PSoC.h        **** 
 499:PSoC.h        **** int WiFiON_AP_STA(struct PSC_McM_6_00 *p)
 500:PSoC.h        **** {    
 2094              		.loc 1 500 0
 2095              		.cfi_startproc
 2096              		@ args = 0, pretend = 0, frame = 48
 2097              		@ frame_needed = 0, uses_anonymous_args = 0
 2098              	.LVL320:
 2099 0000 70B5     		push	{r4, r5, r6, lr}
 2100              		.cfi_def_cfa_offset 16
 2101              		.cfi_offset 4, -16
 2102              		.cfi_offset 5, -12
 2103              		.cfi_offset 6, -8
 2104              		.cfi_offset 14, -4
 2105 0002 90B0     		sub	sp, sp, #64
 2106              		.cfi_def_cfa_offset 80
 2107 0004 0500     		movs	r5, r0
 501:PSoC.h        ****     char rec_data[25],*ptr;
 502:PSoC.h        ****     int result;
 503:PSoC.h        ****     char cmd[18] = "AT+WMODE=3,0\r\n";
 2108              		.loc 1 503 0
 2109 0006 04AC     		add	r4, sp, #16
 2110 0008 2200     		movs	r2, r4
 2111 000a 154B     		ldr	r3, .L144
 2112 000c 0C33     		adds	r3, r3, #12
 2113 000e 43CB     		ldmia	r3!, {r0, r1, r6}
 2114 0010 43C2     		stmia	r2!, {r0, r1, r6}
 2115              	.LVL321:
 2116 0012 1988     		ldrh	r1, [r3]
 2117 0014 1180     		strh	r1, [r2]
 2118 0016 9B78     		ldrb	r3, [r3, #2]
 2119 0018 9370     		strb	r3, [r2, #2]
 2120 001a 0322     		movs	r2, #3
 2121 001c 0021     		movs	r1, #0
 2122 001e 1F20     		movs	r0, #31
 2123 0020 6844     		add	r0, r0, sp
 2124 0022 FFF7FEFF 		bl	memset
 2125              	.LVL322:
 504:PSoC.h        ****     
 505:PSoC.h        ****     result = sendCmd(p, cmd, rec_data, 25, 100000, 0);
 2126              		.loc 1 505 0
 2127 0026 0023     		movs	r3, #0
 2128 0028 0293     		str	r3, [sp, #8]
 2129 002a 0E4A     		ldr	r2, .L144+4
 2130 002c 0023     		movs	r3, #0
 2131 002e 0092     		str	r2, [sp]
 2132 0030 0193     		str	r3, [sp, #4]
 2133 0032 1923     		movs	r3, #25
 2134 0034 09AA     		add	r2, sp, #36
 2135 0036 2100     		movs	r1, r4
 2136 0038 2800     		movs	r0, r5
 2137 003a FFF7FEFF 		bl	sendCmd
 2138              	.LVL323:
ARM GAS  C:\Users\PRAJWA~1\AppData\Local\Temp\ccedcYia.s 			page 48


 506:PSoC.h        ****     ptr = rec_data;
 507:PSoC.h        ****     if (result>=0)
 2139              		.loc 1 507 0
 2140 003e 0028     		cmp	r0, #0
 2141 0040 04DA     		bge	.L143
 508:PSoC.h        ****     {
 509:PSoC.h        ****         while(*ptr != ',')  ptr++;
 510:PSoC.h        ****         ptr--;
 511:PSoC.h        ****         return (atoi(ptr));
 512:PSoC.h        ****     }
 513:PSoC.h        ****     return -1;   
 2142              		.loc 1 513 0
 2143 0042 0120     		movs	r0, #1
 2144              	.LVL324:
 2145 0044 4042     		rsbs	r0, r0, #0
 2146 0046 08E0     		b	.L141
 2147              	.LVL325:
 2148              	.L142:
 509:PSoC.h        ****         ptr--;
 2149              		.loc 1 509 0 discriminator 2
 2150 0048 0130     		adds	r0, r0, #1
 2151              	.LVL326:
 2152 004a 00E0     		b	.L140
 2153              	.LVL327:
 2154              	.L143:
 2155 004c 09A8     		add	r0, sp, #36
 2156              	.LVL328:
 2157              	.L140:
 509:PSoC.h        ****         ptr--;
 2158              		.loc 1 509 0 is_stmt 0 discriminator 1
 2159 004e 0378     		ldrb	r3, [r0]
 2160 0050 2C2B     		cmp	r3, #44
 2161 0052 F9D1     		bne	.L142
 510:PSoC.h        ****         return (atoi(ptr));
 2162              		.loc 1 510 0 is_stmt 1
 2163 0054 0138     		subs	r0, r0, #1
 2164              	.LVL329:
 511:PSoC.h        ****     }
 2165              		.loc 1 511 0
 2166 0056 FFF7FEFF 		bl	atoi
 2167              	.LVL330:
 2168              	.L141:
 514:PSoC.h        **** }
 2169              		.loc 1 514 0
 2170 005a 10B0     		add	sp, sp, #64
 2171              		@ sp needed
 2172              	.LVL331:
 2173 005c 70BD     		pop	{r4, r5, r6, pc}
 2174              	.L145:
 2175 005e C046     		.align	2
 2176              	.L144:
 2177 0060 40010000 		.word	.LANCHOR2
 2178 0064 A0860100 		.word	100000
 2179              		.cfi_endproc
 2180              	.LFE55:
 2181              		.size	WiFiON_AP_STA, .-WiFiON_AP_STA
 2182              		.section	.text.WiFi_scan,"ax",%progbits
ARM GAS  C:\Users\PRAJWA~1\AppData\Local\Temp\ccedcYia.s 			page 49


 2183              		.align	2
 2184              		.global	WiFi_scan
 2185              		.code	16
 2186              		.thumb_func
 2187              		.type	WiFi_scan, %function
 2188              	WiFi_scan:
 2189              	.LFB56:
 515:PSoC.h        **** 
 516:PSoC.h        **** int WiFi_scan(struct PSC_McM_6_00 *p, char *rec_data)
 517:PSoC.h        **** {
 2190              		.loc 1 517 0
 2191              		.cfi_startproc
 2192              		@ args = 0, pretend = 0, frame = 16
 2193              		@ frame_needed = 0, uses_anonymous_args = 0
 2194              	.LVL332:
 2195 0000 F0B5     		push	{r4, r5, r6, r7, lr}
 2196              		.cfi_def_cfa_offset 20
 2197              		.cfi_offset 4, -20
 2198              		.cfi_offset 5, -16
 2199              		.cfi_offset 6, -12
 2200              		.cfi_offset 7, -8
 2201              		.cfi_offset 14, -4
 2202 0002 4746     		mov	r7, r8
 2203 0004 80B4     		push	{r7}
 2204              		.cfi_def_cfa_offset 24
 2205              		.cfi_offset 8, -24
 2206 0006 88B0     		sub	sp, sp, #32
 2207              		.cfi_def_cfa_offset 56
 2208 0008 0400     		movs	r4, r0
 2209 000a 0F00     		movs	r7, r1
 2210              	.LVL333:
 518:PSoC.h        ****     int result, i=0;
 519:PSoC.h        ****     char *ptr;
 520:PSoC.h        ****     char cmd[12] = "AT+WSCAN\r\n";
 2211              		.loc 1 520 0
 2212 000c 05AD     		add	r5, sp, #20
 2213 000e 2A00     		movs	r2, r5
 2214 0010 1D4B     		ldr	r3, .L153
 2215 0012 2033     		adds	r3, r3, #32
 2216 0014 03CB     		ldmia	r3!, {r0, r1}
 2217 0016 03C2     		stmia	r2!, {r0, r1}
 2218              	.LVL334:
 2219 0018 1988     		ldrh	r1, [r3]
 2220 001a 1180     		strh	r1, [r2]
 2221 001c 9B78     		ldrb	r3, [r3, #2]
 2222 001e 9370     		strb	r3, [r2, #2]
 2223 0020 0026     		movs	r6, #0
 2224 0022 EE72     		strb	r6, [r5, #11]
 521:PSoC.h        **** 
 522:PSoC.h        ****     UART_UartPutString("Scanning...");
 2225              		.loc 1 522 0
 2226 0024 1948     		ldr	r0, .L153+4
 2227 0026 FFF7FEFF 		bl	UART_UartPutString
 2228              	.LVL335:
 523:PSoC.h        ****     result = sendCmd(p, cmd, rec_data, 1000, 80000000, 0);
 2229              		.loc 1 523 0
 2230 002a 0296     		str	r6, [sp, #8]
ARM GAS  C:\Users\PRAJWA~1\AppData\Local\Temp\ccedcYia.s 			page 50


 2231 002c 184A     		ldr	r2, .L153+8
 2232 002e 0023     		movs	r3, #0
 2233 0030 0092     		str	r2, [sp]
 2234 0032 0193     		str	r3, [sp, #4]
 2235 0034 FA23     		movs	r3, #250
 2236 0036 9B00     		lsls	r3, r3, #2
 2237 0038 3A00     		movs	r2, r7
 2238 003a 2900     		movs	r1, r5
 2239 003c 2000     		movs	r0, r4
 2240 003e FFF7FEFF 		bl	sendCmd
 2241              	.LVL336:
 2242 0042 8046     		mov	r8, r0
 2243              	.LVL337:
 524:PSoC.h        ****     ptr = rec_data;
 2244              		.loc 1 524 0
 2245 0044 3C00     		movs	r4, r7
 2246              	.LVL338:
 525:PSoC.h        **** 
 526:PSoC.h        ****     while(*ptr != '+')  ptr++;
 2247              		.loc 1 526 0
 2248 0046 00E0     		b	.L147
 2249              	.LVL339:
 2250              	.L148:
 2251              		.loc 1 526 0 is_stmt 0 discriminator 2
 2252 0048 0134     		adds	r4, r4, #1
 2253              	.LVL340:
 2254              	.L147:
 2255              		.loc 1 526 0 discriminator 1
 2256 004a 2378     		ldrb	r3, [r4]
 2257 004c 2B2B     		cmp	r3, #43
 2258 004e FBD1     		bne	.L148
 2259 0050 0026     		movs	r6, #0
 2260 0052 03E0     		b	.L149
 2261              	.LVL341:
 2262              	.L150:
 527:PSoC.h        ****     while(strncmp(ptr, "\r\nOK\r\n", 6) != 0)
 528:PSoC.h        ****     {
 529:PSoC.h        ****       rec_data[i] = *ptr;
 2263              		.loc 1 529 0 is_stmt 1
 2264 0054 2378     		ldrb	r3, [r4]
 2265 0056 BB55     		strb	r3, [r7, r6]
 530:PSoC.h        ****       i++; ptr++;
 2266              		.loc 1 530 0
 2267 0058 0136     		adds	r6, r6, #1
 2268              	.LVL342:
 2269 005a 0134     		adds	r4, r4, #1
 2270              	.LVL343:
 2271              	.L149:
 527:PSoC.h        ****     while(strncmp(ptr, "\r\nOK\r\n", 6) != 0)
 2272              		.loc 1 527 0
 2273 005c 0622     		movs	r2, #6
 2274 005e 0D49     		ldr	r1, .L153+12
 2275 0060 2000     		movs	r0, r4
 2276 0062 FFF7FEFF 		bl	strncmp
 2277              	.LVL344:
 2278 0066 051E     		subs	r5, r0, #0
 2279 0068 F4D1     		bne	.L150
ARM GAS  C:\Users\PRAJWA~1\AppData\Local\Temp\ccedcYia.s 			page 51


 531:PSoC.h        ****     }
 532:PSoC.h        ****     rec_data[i] = 0;
 2280              		.loc 1 532 0
 2281 006a BE19     		adds	r6, r7, r6
 2282              	.LVL345:
 2283 006c 0023     		movs	r3, #0
 2284 006e 3370     		strb	r3, [r6]
 533:PSoC.h        ****     UART_UartPutString("Scanning Complete.");
 2285              		.loc 1 533 0
 2286 0070 0948     		ldr	r0, .L153+16
 2287 0072 FFF7FEFF 		bl	UART_UartPutString
 2288              	.LVL346:
 534:PSoC.h        ****     
 535:PSoC.h        ****     if(result >= 0)  return 0;
 2289              		.loc 1 535 0
 2290 0076 4346     		mov	r3, r8
 2291 0078 002B     		cmp	r3, #0
 2292 007a 00DA     		bge	.L151
 2293              	.LVL347:
 536:PSoC.h        ****     return -1;
 2294              		.loc 1 536 0
 2295 007c 013D     		subs	r5, r5, #1
 2296              	.L151:
 537:PSoC.h        **** }
 2297              		.loc 1 537 0
 2298 007e 2800     		movs	r0, r5
 2299 0080 08B0     		add	sp, sp, #32
 2300              		@ sp needed
 2301              	.LVL348:
 2302              	.LVL349:
 2303 0082 04BC     		pop	{r2}
 2304 0084 9046     		mov	r8, r2
 2305 0086 F0BD     		pop	{r4, r5, r6, r7, pc}
 2306              	.L154:
 2307              		.align	2
 2308              	.L153:
 2309 0088 40010000 		.word	.LANCHOR2
 2310 008c FC000000 		.word	.LC48
 2311 0090 00B4C404 		.word	80000000
 2312 0094 00000000 		.word	.LC1
 2313 0098 08010000 		.word	.LC51
 2314              		.cfi_endproc
 2315              	.LFE56:
 2316              		.size	WiFi_scan, .-WiFi_scan
 2317              		.section	.text.WiFi_connect,"ax",%progbits
 2318              		.align	2
 2319              		.global	WiFi_connect
 2320              		.code	16
 2321              		.thumb_func
 2322              		.type	WiFi_connect, %function
 2323              	WiFi_connect:
 2324              	.LFB57:
 538:PSoC.h        **** 
 539:PSoC.h        **** int WiFi_connect(struct PSC_McM_6_00 *p, char* ssid, char* password)
 540:PSoC.h        **** {
 2325              		.loc 1 540 0
 2326              		.cfi_startproc
ARM GAS  C:\Users\PRAJWA~1\AppData\Local\Temp\ccedcYia.s 			page 52


 2327              		@ args = 0, pretend = 0, frame = 304
 2328              		@ frame_needed = 0, uses_anonymous_args = 0
 2329              	.LVL350:
 2330 0000 70B5     		push	{r4, r5, r6, lr}
 2331              		.cfi_def_cfa_offset 16
 2332              		.cfi_offset 4, -16
 2333              		.cfi_offset 5, -12
 2334              		.cfi_offset 6, -8
 2335              		.cfi_offset 14, -4
 2336 0002 D0B0     		sub	sp, sp, #320
 2337              		.cfi_def_cfa_offset 336
 2338 0004 0500     		movs	r5, r0
 2339 0006 0C00     		movs	r4, r1
 2340 0008 1600     		movs	r6, r2
 541:PSoC.h        ****     char buffer[100],rec_data[200];
 542:PSoC.h        ****     int result;
 543:PSoC.h        **** 
 544:PSoC.h        ****     UART_UartPutString("Trying to connect with ");
 2341              		.loc 1 544 0
 2342 000a 1448     		ldr	r0, .L158
 2343              	.LVL351:
 2344 000c FFF7FEFF 		bl	UART_UartPutString
 2345              	.LVL352:
 545:PSoC.h        ****     UART_UartPutString(ssid);UART_UartPutString("...\n");
 2346              		.loc 1 545 0
 2347 0010 2000     		movs	r0, r4
 2348 0012 FFF7FEFF 		bl	UART_UartPutString
 2349              	.LVL353:
 2350 0016 1248     		ldr	r0, .L158+4
 2351 0018 FFF7FEFF 		bl	UART_UartPutString
 2352              	.LVL354:
 546:PSoC.h        ****     sprintf(buffer, "AT+WJAP=%s,%s\r\n", ssid,  password);
 2353              		.loc 1 546 0
 2354 001c 3300     		movs	r3, r6
 2355 001e 2200     		movs	r2, r4
 2356 0020 1049     		ldr	r1, .L158+8
 2357 0022 37A8     		add	r0, sp, #220
 2358 0024 FFF7FEFF 		bl	sprintf
 2359              	.LVL355:
 547:PSoC.h        ****     result = sendCmd(p, buffer, rec_data, 200, 100000000, 0);
 2360              		.loc 1 547 0
 2361 0028 0023     		movs	r3, #0
 2362 002a 0293     		str	r3, [sp, #8]
 2363 002c 0E4A     		ldr	r2, .L158+12
 2364 002e 0023     		movs	r3, #0
 2365 0030 0092     		str	r2, [sp]
 2366 0032 0193     		str	r3, [sp, #4]
 2367 0034 C823     		movs	r3, #200
 2368 0036 05AA     		add	r2, sp, #20
 2369 0038 37A9     		add	r1, sp, #220
 2370 003a 2800     		movs	r0, r5
 2371 003c FFF7FEFF 		bl	sendCmd
 2372              	.LVL356:
 548:PSoC.h        ****     if(result >= 0)  {UART_UartPutString("Connected\n"); return 0;}
 2373              		.loc 1 548 0
 2374 0040 0028     		cmp	r0, #0
 2375 0042 04DB     		blt	.L156
ARM GAS  C:\Users\PRAJWA~1\AppData\Local\Temp\ccedcYia.s 			page 53


 2376              		.loc 1 548 0 is_stmt 0 discriminator 1
 2377 0044 0948     		ldr	r0, .L158+16
 2378              	.LVL357:
 2379 0046 FFF7FEFF 		bl	UART_UartPutString
 2380              	.LVL358:
 2381 004a 0020     		movs	r0, #0
 2382 004c 04E0     		b	.L157
 2383              	.LVL359:
 2384              	.L156:
 549:PSoC.h        ****     UART_UartPutString("Connection failed\n"); return -1;
 2385              		.loc 1 549 0 is_stmt 1
 2386 004e 0848     		ldr	r0, .L158+20
 2387              	.LVL360:
 2388 0050 FFF7FEFF 		bl	UART_UartPutString
 2389              	.LVL361:
 2390 0054 0120     		movs	r0, #1
 2391 0056 4042     		rsbs	r0, r0, #0
 2392              	.L157:
 550:PSoC.h        **** }
 2393              		.loc 1 550 0
 2394 0058 50B0     		add	sp, sp, #320
 2395              		@ sp needed
 2396              	.LVL362:
 2397              	.LVL363:
 2398              	.LVL364:
 2399 005a 70BD     		pop	{r4, r5, r6, pc}
 2400              	.L159:
 2401              		.align	2
 2402              	.L158:
 2403 005c 1C010000 		.word	.LC53
 2404 0060 34010000 		.word	.LC55
 2405 0064 3C010000 		.word	.LC57
 2406 0068 00E1F505 		.word	100000000
 2407 006c 4C010000 		.word	.LC59
 2408 0070 58010000 		.word	.LC61
 2409              		.cfi_endproc
 2410              	.LFE57:
 2411              		.size	WiFi_connect, .-WiFi_connect
 2412              		.section	.text.WiFi_disconnect,"ax",%progbits
 2413              		.align	2
 2414              		.global	WiFi_disconnect
 2415              		.code	16
 2416              		.thumb_func
 2417              		.type	WiFi_disconnect, %function
 2418              	WiFi_disconnect:
 2419              	.LFB58:
 551:PSoC.h        **** 
 552:PSoC.h        **** int WiFi_disconnect(struct PSC_McM_6_00 *p)
 553:PSoC.h        **** {
 2420              		.loc 1 553 0
 2421              		.cfi_startproc
 2422              		@ args = 0, pretend = 0, frame = 216
 2423              		@ frame_needed = 0, uses_anonymous_args = 0
 2424              	.LVL365:
 2425 0000 30B5     		push	{r4, r5, lr}
 2426              		.cfi_def_cfa_offset 12
 2427              		.cfi_offset 4, -12
ARM GAS  C:\Users\PRAJWA~1\AppData\Local\Temp\ccedcYia.s 			page 54


 2428              		.cfi_offset 5, -8
 2429              		.cfi_offset 14, -4
 2430 0002 BBB0     		sub	sp, sp, #236
 2431              		.cfi_def_cfa_offset 248
 554:PSoC.h        ****     int result;
 555:PSoC.h        ****     char rec_data[200];
 556:PSoC.h        ****     char cmd[10] = "AT+RST\r\n";
 2432              		.loc 1 556 0
 2433 0004 05A9     		add	r1, sp, #20
 2434 0006 0A00     		movs	r2, r1
 2435 0008 0C4B     		ldr	r3, .L163
 2436 000a 4433     		adds	r3, r3, #68
 2437 000c 30CB     		ldmia	r3!, {r4, r5}
 2438 000e 30C2     		stmia	r2!, {r4, r5}
 2439 0010 1B78     		ldrb	r3, [r3]
 2440 0012 1370     		strb	r3, [r2]
 2441 0014 0023     		movs	r3, #0
 2442 0016 4B72     		strb	r3, [r1, #9]
 557:PSoC.h        ****     
 558:PSoC.h        ****     result = sendCmd(p, cmd, rec_data, 200, 1000000, 0);
 2443              		.loc 1 558 0
 2444 0018 0293     		str	r3, [sp, #8]
 2445 001a 094A     		ldr	r2, .L163+4
 2446 001c 0023     		movs	r3, #0
 2447 001e 0092     		str	r2, [sp]
 2448 0020 0193     		str	r3, [sp, #4]
 2449 0022 C823     		movs	r3, #200
 2450 0024 08AA     		add	r2, sp, #32
 2451 0026 FFF7FEFF 		bl	sendCmd
 2452              	.LVL366:
 559:PSoC.h        ****     if(result >= 0)  return 0;
 2453              		.loc 1 559 0
 2454 002a 0028     		cmp	r0, #0
 2455 002c 01DB     		blt	.L162
 2456 002e 0020     		movs	r0, #0
 2457              	.LVL367:
 2458 0030 01E0     		b	.L161
 2459              	.LVL368:
 2460              	.L162:
 560:PSoC.h        ****     return -1;
 2461              		.loc 1 560 0
 2462 0032 0120     		movs	r0, #1
 2463              	.LVL369:
 2464 0034 4042     		rsbs	r0, r0, #0
 2465              	.L161:
 561:PSoC.h        **** }
 2466              		.loc 1 561 0
 2467 0036 3BB0     		add	sp, sp, #236
 2468              		@ sp needed
 2469 0038 30BD     		pop	{r4, r5, pc}
 2470              	.L164:
 2471 003a C046     		.align	2
 2472              	.L163:
 2473 003c C0000000 		.word	.LANCHOR1
 2474 0040 40420F00 		.word	1000000
 2475              		.cfi_endproc
 2476              	.LFE58:
ARM GAS  C:\Users\PRAJWA~1\AppData\Local\Temp\ccedcYia.s 			page 55


 2477              		.size	WiFi_disconnect, .-WiFi_disconnect
 2478              		.section	.text.WiFi_whoRu,"ax",%progbits
 2479              		.align	2
 2480              		.global	WiFi_whoRu
 2481              		.code	16
 2482              		.thumb_func
 2483              		.type	WiFi_whoRu, %function
 2484              	WiFi_whoRu:
 2485              	.LFB59:
 562:PSoC.h        **** 
 563:PSoC.h        **** int WiFi_whoRu(struct PSC_McM_6_00 *p, char *ssid)
 564:PSoC.h        **** {
 2486              		.loc 1 564 0
 2487              		.cfi_startproc
 2488              		@ args = 0, pretend = 0, frame = 216
 2489              		@ frame_needed = 0, uses_anonymous_args = 0
 2490              	.LVL370:
 2491 0000 70B5     		push	{r4, r5, r6, lr}
 2492              		.cfi_def_cfa_offset 16
 2493              		.cfi_offset 4, -16
 2494              		.cfi_offset 5, -12
 2495              		.cfi_offset 6, -8
 2496              		.cfi_offset 14, -4
 2497 0002 BAB0     		sub	sp, sp, #232
 2498              		.cfi_def_cfa_offset 248
 2499 0004 0500     		movs	r5, r0
 2500 0006 0C00     		movs	r4, r1
 2501              	.LVL371:
 565:PSoC.h        ****     int result, i=0;
 566:PSoC.h        ****     char rec_data[200], *ptr;
 567:PSoC.h        ****     char cmd[13] = "AT+WJAP?\r\n";
 2502              		.loc 1 567 0
 2503 0008 04AE     		add	r6, sp, #16
 2504 000a 3200     		movs	r2, r6
 2505 000c 1B4B     		ldr	r3, .L174
 2506 000e 2C33     		adds	r3, r3, #44
 2507 0010 03CB     		ldmia	r3!, {r0, r1}
 2508 0012 03C2     		stmia	r2!, {r0, r1}
 2509              	.LVL372:
 2510 0014 1988     		ldrh	r1, [r3]
 2511 0016 1180     		strh	r1, [r2]
 2512 0018 9B78     		ldrb	r3, [r3, #2]
 2513 001a 9370     		strb	r3, [r2, #2]
 2514 001c 0222     		movs	r2, #2
 2515 001e 0021     		movs	r1, #0
 2516 0020 1B20     		movs	r0, #27
 2517 0022 6844     		add	r0, r0, sp
 2518 0024 FFF7FEFF 		bl	memset
 2519              	.LVL373:
 568:PSoC.h        ****     
 569:PSoC.h        ****     result = sendCmd(p, cmd, rec_data, 200, 1000000, 0);
 2520              		.loc 1 569 0
 2521 0028 0023     		movs	r3, #0
 2522 002a 0293     		str	r3, [sp, #8]
 2523 002c 144A     		ldr	r2, .L174+4
 2524 002e 0023     		movs	r3, #0
 2525 0030 0092     		str	r2, [sp]
ARM GAS  C:\Users\PRAJWA~1\AppData\Local\Temp\ccedcYia.s 			page 56


 2526 0032 0193     		str	r3, [sp, #4]
 2527 0034 C823     		movs	r3, #200
 2528 0036 08AA     		add	r2, sp, #32
 2529 0038 3100     		movs	r1, r6
 2530 003a 2800     		movs	r0, r5
 2531 003c FFF7FEFF 		bl	sendCmd
 2532              	.LVL374:
 570:PSoC.h        ****     ptr = rec_data;
 571:PSoC.h        **** 
 572:PSoC.h        ****     if(result >= 0)
 2533              		.loc 1 572 0
 2534 0040 0028     		cmp	r0, #0
 2535 0042 02DA     		bge	.L172
 2536 0044 11E0     		b	.L167
 2537              	.LVL375:
 2538              	.L168:
 573:PSoC.h        ****     {
 574:PSoC.h        ****       while(*ptr != ',')  ptr++;
 2539              		.loc 1 574 0 discriminator 2
 2540 0046 0133     		adds	r3, r3, #1
 2541              	.LVL376:
 2542 0048 00E0     		b	.L166
 2543              	.LVL377:
 2544              	.L172:
 2545 004a 08AB     		add	r3, sp, #32
 2546              	.LVL378:
 2547              	.L166:
 2548              		.loc 1 574 0 is_stmt 0 discriminator 1
 2549 004c 1A78     		ldrb	r2, [r3]
 2550 004e 2C2A     		cmp	r2, #44
 2551 0050 F9D1     		bne	.L168
 575:PSoC.h        ****       ptr++;
 2552              		.loc 1 575 0 is_stmt 1
 2553 0052 0133     		adds	r3, r3, #1
 2554              	.LVL379:
 565:PSoC.h        ****     char rec_data[200], *ptr;
 2555              		.loc 1 565 0
 2556 0054 0021     		movs	r1, #0
 576:PSoC.h        ****       
 577:PSoC.h        ****       while(*ptr != ',')
 2557              		.loc 1 577 0
 2558 0056 02E0     		b	.L169
 2559              	.LVL380:
 2560              	.L170:
 578:PSoC.h        ****       {
 579:PSoC.h        ****         ssid[i] = *ptr;
 2561              		.loc 1 579 0
 2562 0058 6254     		strb	r2, [r4, r1]
 580:PSoC.h        ****         i++; ptr++;
 2563              		.loc 1 580 0
 2564 005a 0131     		adds	r1, r1, #1
 2565              	.LVL381:
 2566 005c 0133     		adds	r3, r3, #1
 2567              	.LVL382:
 2568              	.L169:
 577:PSoC.h        ****       {
 2569              		.loc 1 577 0
ARM GAS  C:\Users\PRAJWA~1\AppData\Local\Temp\ccedcYia.s 			page 57


 2570 005e 1A78     		ldrb	r2, [r3]
 2571 0060 2C2A     		cmp	r2, #44
 2572 0062 F9D1     		bne	.L170
 581:PSoC.h        ****       }
 582:PSoC.h        ****       ssid[i] = 0;
 2573              		.loc 1 582 0
 2574 0064 6118     		adds	r1, r4, r1
 2575              	.LVL383:
 2576 0066 0023     		movs	r3, #0
 2577              	.LVL384:
 2578 0068 0B70     		strb	r3, [r1]
 2579              	.L167:
 583:PSoC.h        ****     }
 584:PSoC.h        ****     
 585:PSoC.h        ****     if(result >= 0)  return 0;
 2580              		.loc 1 585 0
 2581 006a 0028     		cmp	r0, #0
 2582 006c 01DB     		blt	.L173
 2583 006e 0020     		movs	r0, #0
 2584              	.LVL385:
 2585 0070 01E0     		b	.L171
 2586              	.LVL386:
 2587              	.L173:
 586:PSoC.h        ****     return -1;
 2588              		.loc 1 586 0
 2589 0072 0120     		movs	r0, #1
 2590              	.LVL387:
 2591 0074 4042     		rsbs	r0, r0, #0
 2592              	.L171:
 587:PSoC.h        **** }
 2593              		.loc 1 587 0
 2594 0076 3AB0     		add	sp, sp, #232
 2595              		@ sp needed
 2596              	.LVL388:
 2597              	.LVL389:
 2598 0078 70BD     		pop	{r4, r5, r6, pc}
 2599              	.L175:
 2600 007a C046     		.align	2
 2601              	.L174:
 2602 007c 40010000 		.word	.LANCHOR2
 2603 0080 40420F00 		.word	1000000
 2604              		.cfi_endproc
 2605              	.LFE59:
 2606              		.size	WiFi_whoRu, .-WiFi_whoRu
 2607              		.section	.text.WiFi_sendData,"ax",%progbits
 2608              		.align	2
 2609              		.global	WiFi_sendData
 2610              		.code	16
 2611              		.thumb_func
 2612              		.type	WiFi_sendData, %function
 2613              	WiFi_sendData:
 2614              	.LFB60:
 588:PSoC.h        **** 
 589:PSoC.h        **** int WiFi_sendData(struct PSC_McM_6_00 *p, char *trans_type, char *opt, char *host, char *path, int 
 590:PSoC.h        **** {    
 2615              		.loc 1 590 0
 2616              		.cfi_startproc
ARM GAS  C:\Users\PRAJWA~1\AppData\Local\Temp\ccedcYia.s 			page 58


 2617              		@ args = 8, pretend = 0, frame = 408
 2618              		@ frame_needed = 0, uses_anonymous_args = 0
 2619              	.LVL390:
 2620 0000 F0B5     		push	{r4, r5, r6, r7, lr}
 2621              		.cfi_def_cfa_offset 20
 2622              		.cfi_offset 4, -20
 2623              		.cfi_offset 5, -16
 2624              		.cfi_offset 6, -12
 2625              		.cfi_offset 7, -8
 2626              		.cfi_offset 14, -4
 2627 0002 EBB0     		sub	sp, sp, #428
 2628              		.cfi_def_cfa_offset 448
 2629 0004 0590     		str	r0, [sp, #20]
 2630 0006 0D00     		movs	r5, r1
 2631 0008 1400     		movs	r4, r2
 2632 000a 1F00     		movs	r7, r3
 2633              	.LVL391:
 591:PSoC.h        ****     int type, optype, port, result;
 592:PSoC.h        ****     char buffer[200], rec_data[200];
 593:PSoC.h        ****     
 594:PSoC.h        ****     if((strcmp(trans_type,"HTTP")==0)  ||  (strcmp(trans_type,"http")==0)) {type = 1; port = 80 ;}
 595:PSoC.h        ****     if((strcmp(trans_type,"HTTPS")==0) || (strcmp(trans_type,"https")==0)) {type = 2; port = 443;}
 2634              		.loc 1 595 0
 2635 000c 2249     		ldr	r1, .L185
 2636              	.LVL392:
 2637 000e 2800     		movs	r0, r5
 2638              	.LVL393:
 2639 0010 FFF7FEFF 		bl	strcmp
 2640              	.LVL394:
 2641 0014 0028     		cmp	r0, #0
 2642 0016 08D0     		beq	.L180
 2643              		.loc 1 595 0 is_stmt 0 discriminator 2
 2644 0018 2049     		ldr	r1, .L185+4
 2645 001a 2800     		movs	r0, r5
 2646 001c FFF7FEFF 		bl	strcmp
 2647              	.LVL395:
 2648 0020 0028     		cmp	r0, #0
 2649 0022 06D0     		beq	.L181
 2650              		.loc 1 595 0
 2651 0024 5026     		movs	r6, #80
 2652 0026 0125     		movs	r5, #1
 2653              	.LVL396:
 2654 0028 06E0     		b	.L177
 2655              	.LVL397:
 2656              	.L180:
 2657 002a BC26     		movs	r6, #188
 2658 002c FF36     		adds	r6, r6, #255
 2659 002e 0225     		movs	r5, #2
 2660              	.LVL398:
 2661 0030 02E0     		b	.L177
 2662              	.LVL399:
 2663              	.L181:
 2664 0032 BC26     		movs	r6, #188
 2665 0034 FF36     		adds	r6, r6, #255
 2666 0036 0225     		movs	r5, #2
 2667              	.LVL400:
 2668              	.L177:
ARM GAS  C:\Users\PRAJWA~1\AppData\Local\Temp\ccedcYia.s 			page 59


 596:PSoC.h        ****     if((strcmp(opt,"GET")==0)  ||  (strcmp(opt,"get")==0)) optype = 2;
 597:PSoC.h        ****     if((strcmp(opt,"POST")==0) || (strcmp(opt,"post")==0)) optype = 3;
 2669              		.loc 1 597 0 is_stmt 1
 2670 0038 1949     		ldr	r1, .L185+8
 2671 003a 2000     		movs	r0, r4
 2672 003c FFF7FEFF 		bl	strcmp
 2673              	.LVL401:
 2674 0040 0028     		cmp	r0, #0
 2675 0042 07D0     		beq	.L182
 2676              		.loc 1 597 0 is_stmt 0 discriminator 2
 2677 0044 1749     		ldr	r1, .L185+12
 2678 0046 2000     		movs	r0, r4
 2679 0048 FFF7FEFF 		bl	strcmp
 2680              	.LVL402:
 2681 004c 0028     		cmp	r0, #0
 2682 004e 03D0     		beq	.L183
 2683              		.loc 1 597 0
 2684 0050 0223     		movs	r3, #2
 2685 0052 02E0     		b	.L178
 2686              	.L182:
 2687 0054 0323     		movs	r3, #3
 2688 0056 00E0     		b	.L178
 2689              	.L183:
 2690 0058 0323     		movs	r3, #3
 2691              	.L178:
 2692              	.LVL403:
 598:PSoC.h        ****     
 599:PSoC.h        ****     sprintf(buffer, "AT+HTTTPCLIENTLINE=%d,%d,application/json,%s,%d,%s,%d\r\n", type, optype, host
 2693              		.loc 1 599 0 is_stmt 1
 2694 005a 719A     		ldr	r2, [sp, #452]
 2695 005c 0392     		str	r2, [sp, #12]
 2696 005e 709A     		ldr	r2, [sp, #448]
 2697 0060 0292     		str	r2, [sp, #8]
 2698 0062 0196     		str	r6, [sp, #4]
 2699 0064 0097     		str	r7, [sp]
 2700 0066 2A00     		movs	r2, r5
 2701 0068 0F49     		ldr	r1, .L185+16
 2702 006a 38A8     		add	r0, sp, #224
 2703 006c FFF7FEFF 		bl	sprintf
 2704              	.LVL404:
 600:PSoC.h        ****     result = sendCmd(p, buffer, rec_data, 200, 100000000, 0);
 2705              		.loc 1 600 0
 2706 0070 0023     		movs	r3, #0
 2707 0072 0293     		str	r3, [sp, #8]
 2708 0074 0D4A     		ldr	r2, .L185+20
 2709 0076 0023     		movs	r3, #0
 2710 0078 0092     		str	r2, [sp]
 2711 007a 0193     		str	r3, [sp, #4]
 2712 007c C823     		movs	r3, #200
 2713 007e 06AA     		add	r2, sp, #24
 2714 0080 38A9     		add	r1, sp, #224
 2715 0082 0598     		ldr	r0, [sp, #20]
 2716 0084 FFF7FEFF 		bl	sendCmd
 2717              	.LVL405:
 601:PSoC.h        ****     
 602:PSoC.h        ****     if(result>=0)  return 0;
 2718              		.loc 1 602 0
ARM GAS  C:\Users\PRAJWA~1\AppData\Local\Temp\ccedcYia.s 			page 60


 2719 0088 0028     		cmp	r0, #0
 2720 008a 01DB     		blt	.L184
 2721 008c 0020     		movs	r0, #0
 2722              	.LVL406:
 2723 008e 01E0     		b	.L179
 2724              	.LVL407:
 2725              	.L184:
 603:PSoC.h        ****     return -1;
 2726              		.loc 1 603 0
 2727 0090 0120     		movs	r0, #1
 2728              	.LVL408:
 2729 0092 4042     		rsbs	r0, r0, #0
 2730              	.L179:
 604:PSoC.h        **** }
 2731              		.loc 1 604 0
 2732 0094 6BB0     		add	sp, sp, #428
 2733              		@ sp needed
 2734              	.LVL409:
 2735              	.LVL410:
 2736              	.LVL411:
 2737              	.LVL412:
 2738 0096 F0BD     		pop	{r4, r5, r6, r7, pc}
 2739              	.L186:
 2740              		.align	2
 2741              	.L185:
 2742 0098 6C010000 		.word	.LC66
 2743 009c 74010000 		.word	.LC68
 2744 00a0 7C010000 		.word	.LC70
 2745 00a4 84010000 		.word	.LC72
 2746 00a8 8C010000 		.word	.LC74
 2747 00ac 00E1F505 		.word	100000000
 2748              		.cfi_endproc
 2749              	.LFE60:
 2750              		.size	WiFi_sendData, .-WiFi_sendData
 2751              		.section	.text.WiFi_receiveData,"ax",%progbits
 2752              		.align	2
 2753              		.global	WiFi_receiveData
 2754              		.code	16
 2755              		.thumb_func
 2756              		.type	WiFi_receiveData, %function
 2757              	WiFi_receiveData:
 2758              	.LFB61:
 605:PSoC.h        **** 
 606:PSoC.h        **** int WiFi_receiveData(struct PSC_McM_6_00 *p, char *trans_type, char *opt, char *host, char *path, c
 607:PSoC.h        **** {    
 2759              		.loc 1 607 0
 2760              		.cfi_startproc
 2761              		@ args = 8, pretend = 0, frame = 712
 2762              		@ frame_needed = 0, uses_anonymous_args = 0
 2763              	.LVL413:
 2764 0000 F0B5     		push	{r4, r5, r6, r7, lr}
 2765              		.cfi_def_cfa_offset 20
 2766              		.cfi_offset 4, -20
 2767              		.cfi_offset 5, -16
 2768              		.cfi_offset 6, -12
 2769              		.cfi_offset 7, -8
 2770              		.cfi_offset 14, -4
ARM GAS  C:\Users\PRAJWA~1\AppData\Local\Temp\ccedcYia.s 			page 61


 2771 0002 3E4C     		ldr	r4, .L203
 2772 0004 A544     		add	sp, sp, r4
 2773              		.cfi_def_cfa_offset 752
 2774 0006 0590     		str	r0, [sp, #20]
 2775 0008 0E00     		movs	r6, r1
 2776 000a 0492     		str	r2, [sp, #16]
 2777 000c 1F00     		movs	r7, r3
 2778 000e BD9C     		ldr	r4, [sp, #756]
 2779              	.LVL414:
 608:PSoC.h        ****     int type, optype, port, result, i=0, j=0;
 609:PSoC.h        ****     char buffer[200], rec_data[500];
 610:PSoC.h        ****     
 611:PSoC.h        ****     if((strcmp(trans_type,"HTTP")==0)  ||  (strcmp(trans_type,"http")==0)) {type = 1; port = 80 ;}
 612:PSoC.h        ****     if((strcmp(trans_type,"HTTPS")==0) || (strcmp(trans_type,"https")==0)) {type = 2; port = 443;}
 2780              		.loc 1 612 0
 2781 0010 3B49     		ldr	r1, .L203+4
 2782              	.LVL415:
 2783 0012 3000     		movs	r0, r6
 2784              	.LVL416:
 2785 0014 FFF7FEFF 		bl	strcmp
 2786              	.LVL417:
 2787 0018 0028     		cmp	r0, #0
 2788 001a 08D0     		beq	.L198
 2789              		.loc 1 612 0 is_stmt 0 discriminator 2
 2790 001c 3949     		ldr	r1, .L203+8
 2791 001e 3000     		movs	r0, r6
 2792 0020 FFF7FEFF 		bl	strcmp
 2793              	.LVL418:
 2794 0024 0028     		cmp	r0, #0
 2795 0026 06D0     		beq	.L199
 2796              		.loc 1 612 0
 2797 0028 5025     		movs	r5, #80
 2798 002a 0126     		movs	r6, #1
 2799              	.LVL419:
 2800 002c 06E0     		b	.L188
 2801              	.LVL420:
 2802              	.L198:
 2803 002e BC25     		movs	r5, #188
 2804 0030 FF35     		adds	r5, r5, #255
 2805 0032 0226     		movs	r6, #2
 2806              	.LVL421:
 2807 0034 02E0     		b	.L188
 2808              	.LVL422:
 2809              	.L199:
 2810 0036 BC25     		movs	r5, #188
 2811 0038 FF35     		adds	r5, r5, #255
 2812 003a 0226     		movs	r6, #2
 2813              	.LVL423:
 2814              	.L188:
 613:PSoC.h        ****     if((strcmp(opt,"GET")==0)  ||  (strcmp(opt,"get")==0)) optype = 2;
 614:PSoC.h        ****     if((strcmp(opt,"POST")==0) || (strcmp(opt,"post")==0)) optype = 3;
 2815              		.loc 1 614 0 is_stmt 1
 2816 003c 3249     		ldr	r1, .L203+12
 2817 003e 0498     		ldr	r0, [sp, #16]
 2818 0040 FFF7FEFF 		bl	strcmp
 2819              	.LVL424:
 2820 0044 0028     		cmp	r0, #0
ARM GAS  C:\Users\PRAJWA~1\AppData\Local\Temp\ccedcYia.s 			page 62


 2821 0046 07D0     		beq	.L200
 2822              		.loc 1 614 0 is_stmt 0 discriminator 2
 2823 0048 3049     		ldr	r1, .L203+16
 2824 004a 0498     		ldr	r0, [sp, #16]
 2825 004c FFF7FEFF 		bl	strcmp
 2826              	.LVL425:
 2827 0050 0028     		cmp	r0, #0
 2828 0052 03D0     		beq	.L201
 2829              		.loc 1 614 0
 2830 0054 0223     		movs	r3, #2
 2831 0056 02E0     		b	.L189
 2832              	.L200:
 2833 0058 0323     		movs	r3, #3
 2834 005a 00E0     		b	.L189
 2835              	.L201:
 2836 005c 0323     		movs	r3, #3
 2837              	.L189:
 2838              	.LVL426:
 615:PSoC.h        ****     
 616:PSoC.h        ****     sprintf(buffer, "AT+HTTTPCLIENTLINE=%d,%d,application/json,%s,%d,%s\r\n", type, optype, host, p
 2839              		.loc 1 616 0 is_stmt 1
 2840 005e BC9A     		ldr	r2, [sp, #752]
 2841 0060 0292     		str	r2, [sp, #8]
 2842 0062 0195     		str	r5, [sp, #4]
 2843 0064 0097     		str	r7, [sp]
 2844 0066 3200     		movs	r2, r6
 2845 0068 2949     		ldr	r1, .L203+20
 2846 006a 84A8     		add	r0, sp, #528
 2847 006c FFF7FEFF 		bl	sprintf
 2848              	.LVL427:
 617:PSoC.h        ****     result = sendCmd(p, buffer, rec_data, 500, 10000000, 0);
 2849              		.loc 1 617 0
 2850 0070 0023     		movs	r3, #0
 2851 0072 0293     		str	r3, [sp, #8]
 2852 0074 274A     		ldr	r2, .L203+24
 2853 0076 0023     		movs	r3, #0
 2854 0078 0092     		str	r2, [sp]
 2855 007a 0193     		str	r3, [sp, #4]
 2856 007c FA23     		movs	r3, #250
 2857 007e 5B00     		lsls	r3, r3, #1
 2858 0080 07AA     		add	r2, sp, #28
 2859 0082 84A9     		add	r1, sp, #528
 2860 0084 0598     		ldr	r0, [sp, #20]
 2861 0086 FFF7FEFF 		bl	sendCmd
 2862              	.LVL428:
 608:PSoC.h        ****     char buffer[200], rec_data[500];
 2863              		.loc 1 608 0
 2864 008a 0023     		movs	r3, #0
 618:PSoC.h        **** 
 619:PSoC.h        ****     while(rec_data[i] != '{')  i++;
 2865              		.loc 1 619 0
 2866 008c 00E0     		b	.L190
 2867              	.LVL429:
 2868              	.L191:
 2869              		.loc 1 619 0 is_stmt 0 discriminator 2
 2870 008e 0133     		adds	r3, r3, #1
 2871              	.LVL430:
ARM GAS  C:\Users\PRAJWA~1\AppData\Local\Temp\ccedcYia.s 			page 63


 2872              	.L190:
 2873              		.loc 1 619 0 discriminator 1
 2874 0090 07AA     		add	r2, sp, #28
 2875 0092 D25C     		ldrb	r2, [r2, r3]
 2876 0094 7B2A     		cmp	r2, #123
 2877 0096 FAD1     		bne	.L191
 2878 0098 0022     		movs	r2, #0
 2879 009a 09E0     		b	.L192
 2880              	.LVL431:
 2881              	.L194:
 620:PSoC.h        ****     while(rec_data[i] != '\n')
 621:PSoC.h        ****     {
 622:PSoC.h        ****       readData[j] = rec_data[i];
 2882              		.loc 1 622 0 is_stmt 1
 2883 009c A154     		strb	r1, [r4, r2]
 623:PSoC.h        ****       if(rec_data[i] == ',')
 2884              		.loc 1 623 0
 2885 009e 07A9     		add	r1, sp, #28
 2886 00a0 C95C     		ldrb	r1, [r1, r3]
 2887 00a2 2C29     		cmp	r1, #44
 2888 00a4 02D1     		bne	.L193
 624:PSoC.h        ****       {
 625:PSoC.h        ****         j++;
 2889              		.loc 1 625 0
 2890 00a6 0132     		adds	r2, r2, #1
 2891              	.LVL432:
 626:PSoC.h        ****         readData[j] = '\n';
 2892              		.loc 1 626 0
 2893 00a8 2239     		subs	r1, r1, #34
 2894 00aa A154     		strb	r1, [r4, r2]
 2895              	.L193:
 627:PSoC.h        ****       }
 628:PSoC.h        ****       i++; j++;
 2896              		.loc 1 628 0
 2897 00ac 0133     		adds	r3, r3, #1
 2898              	.LVL433:
 2899 00ae 0132     		adds	r2, r2, #1
 2900              	.LVL434:
 2901              	.L192:
 620:PSoC.h        ****     {
 2902              		.loc 1 620 0
 2903 00b0 07A9     		add	r1, sp, #28
 2904 00b2 C95C     		ldrb	r1, [r1, r3]
 2905 00b4 0A29     		cmp	r1, #10
 2906 00b6 F1D1     		bne	.L194
 2907 00b8 00E0     		b	.L195
 2908              	.LVL435:
 2909              	.L196:
 629:PSoC.h        ****     }
 630:PSoC.h        ****     while(readData[j] != '}')  j--;
 2910              		.loc 1 630 0 discriminator 2
 2911 00ba 013A     		subs	r2, r2, #1
 2912              	.LVL436:
 2913              	.L195:
 2914              		.loc 1 630 0 is_stmt 0 discriminator 1
 2915 00bc 1100     		movs	r1, r2
 2916 00be A518     		adds	r5, r4, r2
ARM GAS  C:\Users\PRAJWA~1\AppData\Local\Temp\ccedcYia.s 			page 64


 2917 00c0 2B78     		ldrb	r3, [r5]
 2918 00c2 7D2B     		cmp	r3, #125
 2919 00c4 F9D1     		bne	.L196
 2920              	.LVL437:
 631:PSoC.h        ****     readData[j+1] = 0;
 2921              		.loc 1 631 0 is_stmt 1
 2922 00c6 0131     		adds	r1, r1, #1
 2923              	.LVL438:
 2924 00c8 6418     		adds	r4, r4, r1
 2925 00ca 0023     		movs	r3, #0
 2926 00cc 2370     		strb	r3, [r4]
 632:PSoC.h        **** 
 633:PSoC.h        ****     UART_UartPutString("Getting data. Please wait...");
 2927              		.loc 1 633 0
 2928 00ce 1248     		ldr	r0, .L203+28
 2929 00d0 FFF7FEFF 		bl	UART_UartPutString
 2930              	.LVL439:
 634:PSoC.h        ****     delay(40000);
 2931              		.loc 1 634 0
 2932 00d4 1148     		ldr	r0, .L203+32
 2933 00d6 FFF7FEFF 		bl	delay
 2934              	.LVL440:
 635:PSoC.h        ****     UART_UartPutString("Just a bit longer...\n");
 2935              		.loc 1 635 0
 2936 00da 1148     		ldr	r0, .L203+36
 2937 00dc FFF7FEFF 		bl	UART_UartPutString
 2938              	.LVL441:
 636:PSoC.h        ****     delay(10000);
 2939              		.loc 1 636 0
 2940 00e0 1048     		ldr	r0, .L203+40
 2941 00e2 FFF7FEFF 		bl	delay
 2942              	.LVL442:
 637:PSoC.h        ****     
 638:PSoC.h        ****     if(readData[j] == '}')  return 0;
 2943              		.loc 1 638 0
 2944 00e6 2B78     		ldrb	r3, [r5]
 2945 00e8 7D2B     		cmp	r3, #125
 2946 00ea 01D1     		bne	.L202
 2947 00ec 0020     		movs	r0, #0
 2948 00ee 01E0     		b	.L197
 2949              	.L202:
 639:PSoC.h        ****     return -1;
 2950              		.loc 1 639 0
 2951 00f0 0120     		movs	r0, #1
 2952 00f2 4042     		rsbs	r0, r0, #0
 2953              	.L197:
 640:PSoC.h        **** }
 2954              		.loc 1 640 0
 2955 00f4 B723     		movs	r3, #183
 2956 00f6 9B00     		lsls	r3, r3, #2
 2957 00f8 9D44     		add	sp, sp, r3
 2958              		@ sp needed
 2959              	.LVL443:
 2960              	.LVL444:
 2961 00fa F0BD     		pop	{r4, r5, r6, r7, pc}
 2962              	.L204:
 2963              		.align	2
ARM GAS  C:\Users\PRAJWA~1\AppData\Local\Temp\ccedcYia.s 			page 65


 2964              	.L203:
 2965 00fc 24FDFFFF 		.word	-732
 2966 0100 6C010000 		.word	.LC66
 2967 0104 74010000 		.word	.LC68
 2968 0108 7C010000 		.word	.LC70
 2969 010c 84010000 		.word	.LC72
 2970 0110 C4010000 		.word	.LC80
 2971 0114 80969800 		.word	10000000
 2972 0118 FC010000 		.word	.LC82
 2973 011c 409C0000 		.word	40000
 2974 0120 1C020000 		.word	.LC84
 2975 0124 10270000 		.word	10000
 2976              		.cfi_endproc
 2977              	.LFE61:
 2978              		.size	WiFi_receiveData, .-WiFi_receiveData
 2979              		.section	.text._write,"ax",%progbits
 2980              		.align	2
 2981              		.global	_write
 2982              		.code	16
 2983              		.thumb_func
 2984              		.type	_write, %function
 2985              	_write:
 2986              	.LFB62:
 2987              		.file 2 "main.c"
   1:main.c        **** /* ========================================
   2:main.c        ****  *
   3:main.c        ****  * Copyright YOUR COMPANY, THE YEAR
   4:main.c        ****  * All Rights Reserved
   5:main.c        ****  * UNPUBLISHED, LICENSED SOFTWARE.
   6:main.c        ****  *
   7:main.c        ****  * CONFIDENTIAL AND PROPRIETARY INFORMATION
   8:main.c        ****  * WHICH IS THE PROPERTY OF your company.
   9:main.c        ****  *
  10:main.c        ****  * ========================================
  11:main.c        **** */
  12:main.c        **** #include "project.h"
  13:main.c        **** #include "stdio.h"
  14:main.c        **** #include "PSoC.h"
  15:main.c        **** 
  16:main.c        ****  /********************************
  17:main.c        ****  ***START printf() ACCOMODATION***
  18:main.c        ****  *********************************/
  19:main.c        ****  int _write(int file, char *ptr, int len)
  20:main.c        ****  {
 2988              		.loc 2 20 0
 2989              		.cfi_startproc
 2990              		@ args = 0, pretend = 0, frame = 0
 2991              		@ frame_needed = 0, uses_anonymous_args = 0
 2992              	.LVL445:
 2993 0000 70B5     		push	{r4, r5, r6, lr}
 2994              		.cfi_def_cfa_offset 16
 2995              		.cfi_offset 4, -16
 2996              		.cfi_offset 5, -12
 2997              		.cfi_offset 6, -8
 2998              		.cfi_offset 14, -4
 2999 0002 1600     		movs	r6, r2
 3000              	.LVL446:
ARM GAS  C:\Users\PRAJWA~1\AppData\Local\Temp\ccedcYia.s 			page 66


  21:main.c        ****      (void) file ;
  22:main.c        ****      int i ;
  23:main.c        ****      for (i = 0 ; i < len ; i++) {
 3001              		.loc 2 23 0
 3002 0004 0024     		movs	r4, #0
 3003 0006 05E0     		b	.L206
 3004              	.LVL447:
 3005              	.L207:
  24:main.c        ****          UART_UartPutChar(*ptr++) ;
 3006              		.loc 2 24 0 discriminator 3
 3007 0008 4D1C     		adds	r5, r1, #1
 3008              	.LVL448:
 3009 000a 0878     		ldrb	r0, [r1]
 3010 000c FFF7FEFF 		bl	UART_SpiUartWriteTxData
 3011              	.LVL449:
  23:main.c        ****          UART_UartPutChar(*ptr++) ;
 3012              		.loc 2 23 0 discriminator 3
 3013 0010 0134     		adds	r4, r4, #1
 3014              	.LVL450:
 3015              		.loc 2 24 0 discriminator 3
 3016 0012 2900     		movs	r1, r5
 3017              	.LVL451:
 3018              	.L206:
  23:main.c        ****          UART_UartPutChar(*ptr++) ;
 3019              		.loc 2 23 0 discriminator 1
 3020 0014 B442     		cmp	r4, r6
 3021 0016 F7DB     		blt	.L207
  25:main.c        ****      }
  26:main.c        ****      return len ;
  27:main.c        ****  }
 3022              		.loc 2 27 0
 3023 0018 3000     		movs	r0, r6
 3024              		@ sp needed
 3025              	.LVL452:
 3026              	.LVL453:
 3027 001a 70BD     		pop	{r4, r5, r6, pc}
 3028              		.cfi_endproc
 3029              	.LFE62:
 3030              		.size	_write, .-_write
 3031              		.section	.text.main,"ax",%progbits
 3032              		.align	2
 3033              		.global	main
 3034              		.code	16
 3035              		.thumb_func
 3036              		.type	main, %function
 3037              	main:
 3038              	.LFB63:
  28:main.c        **** /********************************
  29:main.c        ****  ****END printf() ACCOMODATION****
  30:main.c        ****  *********************************/
  31:main.c        **** 
  32:main.c        **** int main(void){
 3039              		.loc 2 32 0
 3040              		.cfi_startproc
 3041              		@ args = 0, pretend = 0, frame = 256
 3042              		@ frame_needed = 0, uses_anonymous_args = 0
 3043 0000 70B5     		push	{r4, r5, r6, lr}
ARM GAS  C:\Users\PRAJWA~1\AppData\Local\Temp\ccedcYia.s 			page 67


 3044              		.cfi_def_cfa_offset 16
 3045              		.cfi_offset 4, -16
 3046              		.cfi_offset 5, -12
 3047              		.cfi_offset 6, -8
 3048              		.cfi_offset 14, -4
 3049 0002 C0B0     		sub	sp, sp, #256
 3050              		.cfi_def_cfa_offset 272
  33:main.c        ****    
  34:main.c        ****     CyGlobalIntEnable;
 3051              		.loc 2 34 0
 3052              		.syntax divided
 3053              	@ 34 "main.c" 1
 3054 0004 62B6     		CPSIE   i
 3055              	@ 0 "" 2
 3056              	.LVL454:
  35:main.c        ****     
  36:main.c        ****     struct PSC_McM_6_00 proc1;
  37:main.c        ****     uint32 pos, k=0;
  38:main.c        ****     uint8 i=0, state=1;
  39:main.c        ****     char rec_data[300];
  40:main.c        ****     unsigned long prev = Counter_micros_ReadCounter();
 3057              		.loc 2 40 0
 3058              		.thumb
 3059              		.syntax unified
 3060 0006 FFF7FEFF 		bl	Counter_micros_ReadCounter
 3061              	.LVL455:
 3062 000a 0600     		movs	r6, r0
 3063              	.LVL456:
  41:main.c        ****     
  42:main.c        ****     Counter_micros_Start();
 3064              		.loc 2 42 0
 3065 000c FFF7FEFF 		bl	Counter_micros_Start
 3066              	.LVL457:
  43:main.c        ****     
  44:main.c        ****     UART_Start();
 3067              		.loc 2 44 0
 3068 0010 FFF7FEFF 		bl	UART_Start
 3069              	.LVL458:
  45:main.c        ****     CTRL_Write(0);
 3070              		.loc 2 45 0
 3071 0014 0020     		movs	r0, #0
 3072 0016 FFF7FEFF 		bl	CTRL_Write
 3073              	.LVL459:
  46:main.c        ****     
  47:main.c        ****     EZI2C_Start();
 3074              		.loc 2 47 0
 3075 001a FFF7FEFF 		bl	EZI2C_Start
 3076              	.LVL460:
  48:main.c        ****     
  49:main.c        ****     EZI2C_EzI2CSetBuffer1(sizeof(Mux_CapSense_dsRam), 
 3077              		.loc 2 49 0
 3078 001e 744A     		ldr	r2, .L223
 3079 0020 8C21     		movs	r1, #140
 3080 0022 8C20     		movs	r0, #140
 3081 0024 FFF7FEFF 		bl	EZI2C_EzI2CSetBuffer1
 3082              	.LVL461:
  50:main.c        ****                           sizeof(Mux_CapSense_dsRam),
ARM GAS  C:\Users\PRAJWA~1\AppData\Local\Temp\ccedcYia.s 			page 68


  51:main.c        ****                          (uint8 *)&Mux_CapSense_dsRam);
  52:main.c        ****     
  53:main.c        ****     Mux_CapSense_Start();
 3083              		.loc 2 53 0
 3084 0028 FFF7FEFF 		bl	Mux_CapSense_Start
 3085              	.LVL462:
  54:main.c        ****     
  55:main.c        ****     delay(1000);
 3086              		.loc 2 55 0
 3087 002c FA20     		movs	r0, #250
 3088 002e 8000     		lsls	r0, r0, #2
 3089 0030 FFF7FEFF 		bl	delay
 3090              	.LVL463:
  56:main.c        ****     
  57:main.c        ****     ble_disconnect(&proc1);
 3091              		.loc 2 57 0
 3092 0034 01A8     		add	r0, sp, #4
 3093 0036 FFF7FEFF 		bl	ble_disconnect
 3094              	.LVL464:
  58:main.c        ****     delay(20);
 3095              		.loc 2 58 0
 3096 003a 1420     		movs	r0, #20
 3097 003c FFF7FEFF 		bl	delay
 3098              	.LVL465:
  59:main.c        ****     ble_OFF(&proc1);
 3099              		.loc 2 59 0
 3100 0040 01A8     		add	r0, sp, #4
 3101 0042 FFF7FEFF 		bl	ble_OFF
 3102              	.LVL466:
  60:main.c        ****     delay(20);
 3103              		.loc 2 60 0
 3104 0046 1420     		movs	r0, #20
 3105 0048 FFF7FEFF 		bl	delay
 3106              	.LVL467:
  61:main.c        ****     bleON_host(&proc1);
 3107              		.loc 2 61 0
 3108 004c 01A8     		add	r0, sp, #4
 3109 004e FFF7FEFF 		bl	bleON_host
 3110              	.LVL468:
  62:main.c        ****     delay(20);
 3111              		.loc 2 62 0
 3112 0052 1420     		movs	r0, #20
 3113 0054 FFF7FEFF 		bl	delay
 3114              	.LVL469:
  63:main.c        ****     ble_connect(&proc1, "7cb94c3876b8");    //MAC
 3115              		.loc 2 63 0
 3116 0058 6649     		ldr	r1, .L223+4
 3117 005a 01A8     		add	r0, sp, #4
 3118 005c FFF7FEFF 		bl	ble_connect
 3119              	.LVL470:
  38:main.c        ****     char rec_data[300];
 3120              		.loc 2 38 0
 3121 0060 0125     		movs	r5, #1
 3122              	.LVL471:
 3123              	.L209:
  64:main.c        ****     
  65:main.c        ****     for(;;)
ARM GAS  C:\Users\PRAJWA~1\AppData\Local\Temp\ccedcYia.s 			page 69


  66:main.c        ****     {   
  67:main.c        ****         k=0;
  68:main.c        ****         
  69:main.c        ****         if(Mux_CapSense_NOT_BUSY == Mux_CapSense_IsBusy())
 3124              		.loc 2 69 0
 3125 0062 FFF7FEFF 		bl	Mux_CapSense_IsBusy
 3126              	.LVL472:
 3127 0066 0028     		cmp	r0, #0
 3128 0068 05D1     		bne	.L210
  70:main.c        ****         {
  71:main.c        ****             Mux_CapSense_ProcessAllWidgets();
 3129              		.loc 2 71 0
 3130 006a FFF7FEFF 		bl	Mux_CapSense_ProcessAllWidgets
 3131              	.LVL473:
  72:main.c        ****             
  73:main.c        ****             Mux_CapSense_RunTuner();      
 3132              		.loc 2 73 0
 3133 006e FFF7FEFF 		bl	Mux_CapSense_RunTuner
 3134              	.LVL474:
  74:main.c        ****             
  75:main.c        ****             Mux_CapSense_ScanAllWidgets();
 3135              		.loc 2 75 0
 3136 0072 FFF7FEFF 		bl	Mux_CapSense_ScanAllWidgets
 3137              	.LVL475:
 3138              	.L210:
  76:main.c        ****         }
  77:main.c        ****         
  78:main.c        ****         if(Mux_CapSense_IsSensorActive(0, 4))
 3139              		.loc 2 78 0
 3140 0076 0421     		movs	r1, #4
 3141 0078 0020     		movs	r0, #0
 3142 007a FFF7FEFF 		bl	Mux_CapSense_IsSensorActive
 3143              	.LVL476:
 3144 007e 0028     		cmp	r0, #0
 3145 0080 0BD0     		beq	.L221
  79:main.c        ****         {
  80:main.c        ****             if(Mux_CapSense_IsSensorActive(0, 0))
 3146              		.loc 2 80 0
 3147 0082 0021     		movs	r1, #0
 3148 0084 0020     		movs	r0, #0
 3149 0086 FFF7FEFF 		bl	Mux_CapSense_IsSensorActive
 3150              	.LVL477:
 3151 008a 0028     		cmp	r0, #0
 3152 008c 07D0     		beq	.L222
 3153              	.LVL478:
  81:main.c        ****             {
  82:main.c        ****                 k++;
  83:main.c        ****                 if(k==1) ble_sendData(&proc1, "R\r\n");
 3154              		.loc 2 83 0 discriminator 1
 3155 008e 5A49     		ldr	r1, .L223+8
 3156 0090 01A8     		add	r0, sp, #4
 3157 0092 FFF7FEFF 		bl	ble_sendData
 3158              	.LVL479:
  82:main.c        ****                 if(k==1) ble_sendData(&proc1, "R\r\n");
 3159              		.loc 2 82 0 discriminator 1
 3160 0096 0124     		movs	r4, #1
 3161 0098 02E0     		b	.L211
ARM GAS  C:\Users\PRAJWA~1\AppData\Local\Temp\ccedcYia.s 			page 70


 3162              	.LVL480:
 3163              	.L221:
  67:main.c        ****         
 3164              		.loc 2 67 0
 3165 009a 0024     		movs	r4, #0
 3166 009c 00E0     		b	.L211
 3167              	.L222:
 3168 009e 0024     		movs	r4, #0
 3169              	.LVL481:
 3170              	.L211:
  84:main.c        ****             }
  85:main.c        ****         }
  86:main.c        ****         
  87:main.c        ****         if(Mux_CapSense_IsSensorActive(0, 4))
 3171              		.loc 2 87 0
 3172 00a0 0421     		movs	r1, #4
 3173 00a2 0020     		movs	r0, #0
 3174 00a4 FFF7FEFF 		bl	Mux_CapSense_IsSensorActive
 3175              	.LVL482:
 3176 00a8 0028     		cmp	r0, #0
 3177 00aa 0CD0     		beq	.L212
  88:main.c        ****         {
  89:main.c        ****             if(Mux_CapSense_IsSensorActive(0, 1))
 3178              		.loc 2 89 0
 3179 00ac 0121     		movs	r1, #1
 3180 00ae 0020     		movs	r0, #0
 3181 00b0 FFF7FEFF 		bl	Mux_CapSense_IsSensorActive
 3182              	.LVL483:
 3183 00b4 0028     		cmp	r0, #0
 3184 00b6 06D0     		beq	.L212
  90:main.c        ****             {
  91:main.c        ****                 k++;
 3185              		.loc 2 91 0
 3186 00b8 0134     		adds	r4, r4, #1
 3187              	.LVL484:
  92:main.c        ****                 if(k==1) ble_sendData(&proc1, "G\r\n");
 3188              		.loc 2 92 0
 3189 00ba 012C     		cmp	r4, #1
 3190 00bc 03D1     		bne	.L212
 3191              		.loc 2 92 0 is_stmt 0 discriminator 1
 3192 00be 4F49     		ldr	r1, .L223+12
 3193 00c0 01A8     		add	r0, sp, #4
 3194 00c2 FFF7FEFF 		bl	ble_sendData
 3195              	.LVL485:
 3196              	.L212:
  93:main.c        ****             }
  94:main.c        ****         }
  95:main.c        ****         
  96:main.c        ****         if(Mux_CapSense_IsSensorActive(0, 4))
 3197              		.loc 2 96 0 is_stmt 1
 3198 00c6 0421     		movs	r1, #4
 3199 00c8 0020     		movs	r0, #0
 3200 00ca FFF7FEFF 		bl	Mux_CapSense_IsSensorActive
 3201              	.LVL486:
 3202 00ce 0028     		cmp	r0, #0
 3203 00d0 0CD0     		beq	.L213
  97:main.c        ****         {
ARM GAS  C:\Users\PRAJWA~1\AppData\Local\Temp\ccedcYia.s 			page 71


  98:main.c        ****             if(Mux_CapSense_IsSensorActive(0, 2))
 3204              		.loc 2 98 0
 3205 00d2 0221     		movs	r1, #2
 3206 00d4 0020     		movs	r0, #0
 3207 00d6 FFF7FEFF 		bl	Mux_CapSense_IsSensorActive
 3208              	.LVL487:
 3209 00da 0028     		cmp	r0, #0
 3210 00dc 06D0     		beq	.L213
  99:main.c        ****             {
 100:main.c        ****                 k++;
 3211              		.loc 2 100 0
 3212 00de 0134     		adds	r4, r4, #1
 3213              	.LVL488:
 101:main.c        ****                 if(k==1) ble_sendData(&proc1, "B\r\n");
 3214              		.loc 2 101 0
 3215 00e0 012C     		cmp	r4, #1
 3216 00e2 03D1     		bne	.L213
 3217              		.loc 2 101 0 is_stmt 0 discriminator 1
 3218 00e4 4649     		ldr	r1, .L223+16
 3219 00e6 01A8     		add	r0, sp, #4
 3220 00e8 FFF7FEFF 		bl	ble_sendData
 3221              	.LVL489:
 3222              	.L213:
 102:main.c        ****             }
 103:main.c        ****         }
 104:main.c        ****         
 105:main.c        ****         if(Mux_CapSense_IsSensorActive(0, 4))
 3223              		.loc 2 105 0 is_stmt 1
 3224 00ec 0421     		movs	r1, #4
 3225 00ee 0020     		movs	r0, #0
 3226 00f0 FFF7FEFF 		bl	Mux_CapSense_IsSensorActive
 3227              	.LVL490:
 3228 00f4 0028     		cmp	r0, #0
 3229 00f6 0CD0     		beq	.L214
 106:main.c        ****         {
 107:main.c        ****             if(Mux_CapSense_IsSensorActive(0, 3))
 3230              		.loc 2 107 0
 3231 00f8 0321     		movs	r1, #3
 3232 00fa 0020     		movs	r0, #0
 3233 00fc FFF7FEFF 		bl	Mux_CapSense_IsSensorActive
 3234              	.LVL491:
 3235 0100 0028     		cmp	r0, #0
 3236 0102 06D0     		beq	.L214
 108:main.c        ****             {
 109:main.c        ****                 k++;
 3237              		.loc 2 109 0
 3238 0104 0134     		adds	r4, r4, #1
 3239              	.LVL492:
 110:main.c        ****                 if(k==1) ble_sendData(&proc1, "W\r\n");
 3240              		.loc 2 110 0
 3241 0106 012C     		cmp	r4, #1
 3242 0108 03D1     		bne	.L214
 3243              		.loc 2 110 0 is_stmt 0 discriminator 1
 3244 010a 3E49     		ldr	r1, .L223+20
 3245 010c 01A8     		add	r0, sp, #4
 3246 010e FFF7FEFF 		bl	ble_sendData
 3247              	.LVL493:
ARM GAS  C:\Users\PRAJWA~1\AppData\Local\Temp\ccedcYia.s 			page 72


 3248              	.L214:
 111:main.c        ****             }
 112:main.c        ****         }
 113:main.c        ****         
 114:main.c        ****         if(Mux_CapSense_IsSensorActive(0, 5))
 3249              		.loc 2 114 0 is_stmt 1
 3250 0112 0521     		movs	r1, #5
 3251 0114 0020     		movs	r0, #0
 3252 0116 FFF7FEFF 		bl	Mux_CapSense_IsSensorActive
 3253              	.LVL494:
 3254 011a 0028     		cmp	r0, #0
 3255 011c 0CD0     		beq	.L215
 115:main.c        ****         {
 116:main.c        ****             if(Mux_CapSense_IsSensorActive(0, 0))
 3256              		.loc 2 116 0
 3257 011e 0021     		movs	r1, #0
 3258 0120 0020     		movs	r0, #0
 3259 0122 FFF7FEFF 		bl	Mux_CapSense_IsSensorActive
 3260              	.LVL495:
 3261 0126 0028     		cmp	r0, #0
 3262 0128 06D0     		beq	.L215
 117:main.c        ****             {
 118:main.c        ****                 k++;
 3263              		.loc 2 118 0
 3264 012a 0134     		adds	r4, r4, #1
 3265              	.LVL496:
 119:main.c        ****                 if(k==1) ble_sendData(&proc1, "C\r\n");
 3266              		.loc 2 119 0
 3267 012c 012C     		cmp	r4, #1
 3268 012e 03D1     		bne	.L215
 3269              		.loc 2 119 0 is_stmt 0 discriminator 1
 3270 0130 3549     		ldr	r1, .L223+24
 3271 0132 01A8     		add	r0, sp, #4
 3272 0134 FFF7FEFF 		bl	ble_sendData
 3273              	.LVL497:
 3274              	.L215:
 120:main.c        ****             }
 121:main.c        ****         }
 122:main.c        ****         
 123:main.c        ****         if(Mux_CapSense_IsSensorActive(0, 5))
 3275              		.loc 2 123 0 is_stmt 1
 3276 0138 0521     		movs	r1, #5
 3277 013a 0020     		movs	r0, #0
 3278 013c FFF7FEFF 		bl	Mux_CapSense_IsSensorActive
 3279              	.LVL498:
 3280 0140 0028     		cmp	r0, #0
 3281 0142 0CD0     		beq	.L216
 124:main.c        ****         {
 125:main.c        ****             if(Mux_CapSense_IsSensorActive(0, 1))
 3282              		.loc 2 125 0
 3283 0144 0121     		movs	r1, #1
 3284 0146 0020     		movs	r0, #0
 3285 0148 FFF7FEFF 		bl	Mux_CapSense_IsSensorActive
 3286              	.LVL499:
 3287 014c 0028     		cmp	r0, #0
 3288 014e 06D0     		beq	.L216
 126:main.c        ****             {
ARM GAS  C:\Users\PRAJWA~1\AppData\Local\Temp\ccedcYia.s 			page 73


 127:main.c        ****                 k++;
 3289              		.loc 2 127 0
 3290 0150 0134     		adds	r4, r4, #1
 3291              	.LVL500:
 128:main.c        ****                 if(k==1) ble_sendData(&proc1, "M\r\n");
 3292              		.loc 2 128 0
 3293 0152 012C     		cmp	r4, #1
 3294 0154 03D1     		bne	.L216
 3295              		.loc 2 128 0 is_stmt 0 discriminator 1
 3296 0156 2D49     		ldr	r1, .L223+28
 3297 0158 01A8     		add	r0, sp, #4
 3298 015a FFF7FEFF 		bl	ble_sendData
 3299              	.LVL501:
 3300              	.L216:
 129:main.c        ****             }
 130:main.c        ****         }
 131:main.c        ****         
 132:main.c        ****         if(Mux_CapSense_IsSensorActive(0, 5))
 3301              		.loc 2 132 0 is_stmt 1
 3302 015e 0521     		movs	r1, #5
 3303 0160 0020     		movs	r0, #0
 3304 0162 FFF7FEFF 		bl	Mux_CapSense_IsSensorActive
 3305              	.LVL502:
 3306 0166 0028     		cmp	r0, #0
 3307 0168 0CD0     		beq	.L217
 133:main.c        ****         {
 134:main.c        ****             if(Mux_CapSense_IsSensorActive(0, 2))
 3308              		.loc 2 134 0
 3309 016a 0221     		movs	r1, #2
 3310 016c 0020     		movs	r0, #0
 3311 016e FFF7FEFF 		bl	Mux_CapSense_IsSensorActive
 3312              	.LVL503:
 3313 0172 0028     		cmp	r0, #0
 3314 0174 06D0     		beq	.L217
 135:main.c        ****             {
 136:main.c        ****                 k++;
 3315              		.loc 2 136 0
 3316 0176 0134     		adds	r4, r4, #1
 3317              	.LVL504:
 137:main.c        ****                 if(k==1) ble_sendData(&proc1, "Y\r\n");
 3318              		.loc 2 137 0
 3319 0178 012C     		cmp	r4, #1
 3320 017a 03D1     		bne	.L217
 3321              		.loc 2 137 0 is_stmt 0 discriminator 1
 3322 017c 2449     		ldr	r1, .L223+32
 3323 017e 01A8     		add	r0, sp, #4
 3324 0180 FFF7FEFF 		bl	ble_sendData
 3325              	.LVL505:
 3326              	.L217:
 138:main.c        ****             }
 139:main.c        ****         }
 140:main.c        ****         
 141:main.c        ****         
 142:main.c        ****         
 143:main.c        ****         if(Counter_micros_ReadCounter() - prev > 200000)
 3327              		.loc 2 143 0 is_stmt 1
 3328 0184 FFF7FEFF 		bl	Counter_micros_ReadCounter
ARM GAS  C:\Users\PRAJWA~1\AppData\Local\Temp\ccedcYia.s 			page 74


 3329              	.LVL506:
 3330 0188 801B     		subs	r0, r0, r6
 3331 018a 224B     		ldr	r3, .L223+36
 3332 018c 9842     		cmp	r0, r3
 3333 018e 07D9     		bls	.L218
 144:main.c        ****         {
 145:main.c        ****             Pin_Green_Write(state);
 3334              		.loc 2 145 0
 3335 0190 2800     		movs	r0, r5
 3336 0192 FFF7FEFF 		bl	Pin_Green_Write
 3337              	.LVL507:
 146:main.c        ****             state = ~state;
 3338              		.loc 2 146 0
 3339 0196 ED43     		mvns	r5, r5
 3340              	.LVL508:
 3341 0198 EDB2     		uxtb	r5, r5
 3342              	.LVL509:
 147:main.c        ****             prev = Counter_micros_ReadCounter();
 3343              		.loc 2 147 0
 3344 019a FFF7FEFF 		bl	Counter_micros_ReadCounter
 3345              	.LVL510:
 3346 019e 0600     		movs	r6, r0
 3347              	.LVL511:
 3348              	.L218:
 148:main.c        ****         }
 149:main.c        ****         
 150:main.c        ****         
 151:main.c        ****         
 152:main.c        ****         if(Mux_CapSense_IsSensorActive(0, 7))
 3349              		.loc 2 152 0
 3350 01a0 0721     		movs	r1, #7
 3351 01a2 0020     		movs	r0, #0
 3352 01a4 FFF7FEFF 		bl	Mux_CapSense_IsSensorActive
 3353              	.LVL512:
 3354 01a8 0028     		cmp	r0, #0
 3355 01aa 0BD0     		beq	.L219
 153:main.c        ****         {
 154:main.c        ****             if(Mux_CapSense_IsSensorActive(0, 1))
 3356              		.loc 2 154 0
 3357 01ac 0121     		movs	r1, #1
 3358 01ae 0020     		movs	r0, #0
 3359 01b0 FFF7FEFF 		bl	Mux_CapSense_IsSensorActive
 3360              	.LVL513:
 3361 01b4 0028     		cmp	r0, #0
 3362 01b6 05D0     		beq	.L219
 155:main.c        ****             {
 156:main.c        ****                 k++;
 3363              		.loc 2 156 0
 3364 01b8 0134     		adds	r4, r4, #1
 3365              	.LVL514:
 157:main.c        ****                 if(k==1) ble_disconnect(&proc1);
 3366              		.loc 2 157 0
 3367 01ba 012C     		cmp	r4, #1
 3368 01bc 02D1     		bne	.L219
 3369              		.loc 2 157 0 is_stmt 0 discriminator 1
 3370 01be 01A8     		add	r0, sp, #4
 3371 01c0 FFF7FEFF 		bl	ble_disconnect
ARM GAS  C:\Users\PRAJWA~1\AppData\Local\Temp\ccedcYia.s 			page 75


 3372              	.LVL515:
 3373              	.L219:
 158:main.c        ****             }
 159:main.c        ****         }
 160:main.c        ****         
 161:main.c        ****         if(Mux_CapSense_IsSensorActive(0, 7))
 3374              		.loc 2 161 0 is_stmt 1
 3375 01c4 0721     		movs	r1, #7
 3376 01c6 0020     		movs	r0, #0
 3377 01c8 FFF7FEFF 		bl	Mux_CapSense_IsSensorActive
 3378              	.LVL516:
 3379 01cc 0028     		cmp	r0, #0
 3380 01ce 00D1     		bne	.LCB3447
 3381 01d0 47E7     		b	.L209	@long jump
 3382              	.LCB3447:
 162:main.c        ****         {
 163:main.c        ****             if(Mux_CapSense_IsSensorActive(0, 2))
 3383              		.loc 2 163 0
 3384 01d2 0221     		movs	r1, #2
 3385 01d4 0020     		movs	r0, #0
 3386 01d6 FFF7FEFF 		bl	Mux_CapSense_IsSensorActive
 3387              	.LVL517:
 3388 01da 0028     		cmp	r0, #0
 3389 01dc 00D1     		bne	.LCB3454
 3390 01de 40E7     		b	.L209	@long jump
 3391              	.LCB3454:
 3392              	.LVL518:
 164:main.c        ****             {
 165:main.c        ****                 k++;
 166:main.c        ****                 if(k==1) ble_connect(&proc1, "7cb94c3876b8");
 3393              		.loc 2 166 0
 3394 01e0 002C     		cmp	r4, #0
 3395 01e2 00D0     		beq	.LCB3457
 3396 01e4 3DE7     		b	.L209	@long jump
 3397              	.LCB3457:
 3398              		.loc 2 166 0 is_stmt 0 discriminator 1
 3399 01e6 0349     		ldr	r1, .L223+4
 3400 01e8 01A8     		add	r0, sp, #4
 3401 01ea FFF7FEFF 		bl	ble_connect
 3402              	.LVL519:
 3403 01ee 38E7     		b	.L209
 3404              	.L224:
 3405              		.align	2
 3406              	.L223:
 3407 01f0 00000000 		.word	Mux_CapSense_dsRam
 3408 01f4 34020000 		.word	.LC87
 3409 01f8 44020000 		.word	.LC89
 3410 01fc 48020000 		.word	.LC91
 3411 0200 4C020000 		.word	.LC93
 3412 0204 50020000 		.word	.LC95
 3413 0208 54020000 		.word	.LC97
 3414 020c 58020000 		.word	.LC99
 3415 0210 5C020000 		.word	.LC101
 3416 0214 400D0300 		.word	200000
 3417              		.cfi_endproc
 3418              	.LFE63:
 3419              		.size	main, .-main
ARM GAS  C:\Users\PRAJWA~1\AppData\Local\Temp\ccedcYia.s 			page 76


 3420              		.section	.rodata
 3421              		.align	2
 3422              		.set	.LANCHOR0,. + 0
 3423              		.set	.LANCHOR1,. + 128
 3424              		.set	.LANCHOR2,. + 256
 3425              	.LC5:
 3426 0040 41542B42 		.ascii	"AT+BLEMAC?\015\012\000"
 3426      4C454D41 
 3426      433F0D0A 
 3426      00
 3427 004d 00000000 		.space	7
 3427      000000
 3428              	.LC7:
 3429 0054 41542B42 		.ascii	"AT+BLERFPWR?\015\012\000"
 3429      4C455246 
 3429      5057523F 
 3429      0D0A00
 3430 0063 000000   		.space	3
 3431 0066 0000     		.space	2
 3432              	.LC9:
 3433 0068 41542B42 		.ascii	"AT+BLERFPWR=\000"
 3433      4C455246 
 3433      5057523D 
 3433      00
 3434 0075 0000     		.space	2
 3435 0077 00       		.space	1
 3436              	.LC13:
 3437 0078 41542B42 		.ascii	"AT+BLEMODE?\015\012\000"
 3437      4C454D4F 
 3437      44453F0D 
 3437      0A00
 3438 0086 00       		.space	1
 3439 0087 00       		.space	1
 3440              	.LC17:
 3441 0088 41542B42 		.ascii	"AT+BLEMODE=9\015\012\000"
 3441      4C454D4F 
 3441      44453D39 
 3441      0D0A00
 3442 0097 000000   		.space	3
 3443 009a 0000     		.space	2
 3444              	.LC19:
 3445 009c 41542B42 		.ascii	"AT+BLEMODE=1\015\012\000"
 3445      4C454D4F 
 3445      44453D31 
 3445      0D0A00
 3446 00ab 000000   		.space	3
 3447 00ae 0000     		.space	2
 3448              	.LC21:
 3449 00b0 41542B42 		.ascii	"AT+BLEMODE=0\015\012\000"
 3449      4C454D4F 
 3449      44453D30 
 3449      0D0A00
 3450 00bf 000000   		.space	3
 3451 00c2 0000     		.space	2
 3452              	.LC25:
 3453 00c4 41542B42 		.ascii	"AT+BLEDISCON\015\012\000"
 3453      4C454449 
ARM GAS  C:\Users\PRAJWA~1\AppData\Local\Temp\ccedcYia.s 			page 77


 3453      53434F4E 
 3453      0D0A00
 3454 00d3 000000   		.space	3
 3455 00d6 0000     		.space	2
 3456              	.LC31:
 3457 00d8 41542B43 		.ascii	"AT+CIPSTAMAC_DEF?\015\012\000"
 3457      49505354 
 3457      414D4143 
 3457      5F444546 
 3457      3F0D0A00 
 3458 00ec 00000000 		.space	5
 3458      00
 3459 00f1 000000   		.space	3
 3460              	.LC33:
 3461 00f4 41542B57 		.ascii	"AT+WMODE?\015\012\000"
 3461      4D4F4445 
 3461      3F0D0A00 
 3462 0100 000000   		.space	3
 3463 0103 00       		.space	1
 3464              	.LC37:
 3465 0104 41542B52 		.ascii	"AT+RST\015\012\000"
 3465      53540D0A 
 3465      00
 3466 010d 00       		.space	1
 3467 010e 0000     		.space	2
 3468              	.LC39:
 3469 0110 41542B57 		.ascii	"AT+WMODE=0,0\015\012\000"
 3469      4D4F4445 
 3469      3D302C30 
 3469      0D0A00
 3470 011f 000000   		.space	3
 3471 0122 0000     		.space	2
 3472              	.LC40:
 3473 0124 41542B57 		.ascii	"AT+WMODE=1,0\015\012\000"
 3473      4D4F4445 
 3473      3D312C30 
 3473      0D0A00
 3474 0133 000000   		.space	3
 3475 0136 0000     		.space	2
 3476              	.LC42:
 3477 0138 41542B57 		.ascii	"AT+WMODE=2,0\015\012\000"
 3477      4D4F4445 
 3477      3D322C30 
 3477      0D0A00
 3478 0147 000000   		.space	3
 3479 014a 0000     		.space	2
 3480              	.LC44:
 3481 014c 41542B57 		.ascii	"AT+WMODE=3,0\015\012\000"
 3481      4D4F4445 
 3481      3D332C30 
 3481      0D0A00
 3482 015b 000000   		.space	3
 3483 015e 0000     		.space	2
 3484              	.LC46:
 3485 0160 41542B57 		.ascii	"AT+WSCAN\015\012\000"
 3485      5343414E 
 3485      0D0A00
ARM GAS  C:\Users\PRAJWA~1\AppData\Local\Temp\ccedcYia.s 			page 78


 3486 016b 00       		.space	1
 3487              	.LC64:
 3488 016c 41542B57 		.ascii	"AT+WJAP?\015\012\000"
 3488      4A41503F 
 3488      0D0A00
 3489 0177 0000     		.space	2
 3490              		.section	.rodata.str1.4,"aMS",%progbits,1
 3491              		.align	2
 3492              	.LC1:
 3493 0000 0D0A4F4B 		.ascii	"\015\012OK\015\012\000"
 3493      0D0A00
 3494 0007 00       		.space	1
 3495              	.LC3:
 3496 0008 0D0A4552 		.ascii	"\015\012ERROR\015\012\000"
 3496      524F520D 
 3496      0A00
 3497 0012 0000     		.space	2
 3498              	.LC11:
 3499 0014 25732564 		.ascii	"%s%d\015\012\000"
 3499      0D0A00
 3500 001b 00       		.space	1
 3501              	.LC15:
 3502 001c 393A2042 		.ascii	"9: BLE is OFF.\0120: BLE is configured in Slave Mod"
 3502      4C452069 
 3502      73204F46 
 3502      462E0A30 
 3502      3A20424C 
 3503 004c 652E0A31 		.ascii	"e.\0121: BLE is configured in Host Mode.\012\012\000"
 3503      3A20424C 
 3503      45206973 
 3503      20636F6E 
 3503      66696775 
 3504              	.LC23:
 3505 0074 41542B42 		.ascii	"AT+BLECONNECT=%s\015\012\000"
 3505      4C45434F 
 3505      4E4E4543 
 3505      543D2573 
 3505      0D0A00
 3506 0087 00       		.space	1
 3507              	.LC27:
 3508 0088 0D0A00   		.ascii	"\015\012\000"
 3509 008b 00       		.space	1
 3510              	.LC29:
 3511 008c 25732573 		.ascii	"%s%s\000"
 3511      00
 3512 0091 000000   		.space	3
 3513              	.LC35:
 3514 0094 303A2057 		.ascii	"0: WiFi is OFF.\0121: WiFi is configured as STA.\012"
 3514      69466920 
 3514      6973204F 
 3514      46462E0A 
 3514      313A2057 
 3515 00c2 323A2057 		.ascii	"2: WiFi is configured AP.\0123: WiFi is configured "
 3515      69466920 
 3515      69732063 
 3515      6F6E6669 
 3515      67757265 
ARM GAS  C:\Users\PRAJWA~1\AppData\Local\Temp\ccedcYia.s 			page 79


 3516 00f2 41502B53 		.ascii	"AP+STA.\012\012\000"
 3516      54412E0A 
 3516      0A00
 3517              	.LC48:
 3518 00fc 5363616E 		.ascii	"Scanning...\000"
 3518      6E696E67 
 3518      2E2E2E00 
 3519              	.LC51:
 3520 0108 5363616E 		.ascii	"Scanning Complete.\000"
 3520      6E696E67 
 3520      20436F6D 
 3520      706C6574 
 3520      652E00
 3521 011b 00       		.space	1
 3522              	.LC53:
 3523 011c 54727969 		.ascii	"Trying to connect with \000"
 3523      6E672074 
 3523      6F20636F 
 3523      6E6E6563 
 3523      74207769 
 3524              	.LC55:
 3525 0134 2E2E2E0A 		.ascii	"...\012\000"
 3525      00
 3526 0139 000000   		.space	3
 3527              	.LC57:
 3528 013c 41542B57 		.ascii	"AT+WJAP=%s,%s\015\012\000"
 3528      4A41503D 
 3528      25732C25 
 3528      730D0A00 
 3529              	.LC59:
 3530 014c 436F6E6E 		.ascii	"Connected\012\000"
 3530      65637465 
 3530      640A00
 3531 0157 00       		.space	1
 3532              	.LC61:
 3533 0158 436F6E6E 		.ascii	"Connection failed\012\000"
 3533      65637469 
 3533      6F6E2066 
 3533      61696C65 
 3533      640A00
 3534 016b 00       		.space	1
 3535              	.LC66:
 3536 016c 48545450 		.ascii	"HTTPS\000"
 3536      5300
 3537 0172 0000     		.space	2
 3538              	.LC68:
 3539 0174 68747470 		.ascii	"https\000"
 3539      7300
 3540 017a 0000     		.space	2
 3541              	.LC70:
 3542 017c 504F5354 		.ascii	"POST\000"
 3542      00
 3543 0181 000000   		.space	3
 3544              	.LC72:
 3545 0184 706F7374 		.ascii	"post\000"
 3545      00
 3546 0189 000000   		.space	3
ARM GAS  C:\Users\PRAJWA~1\AppData\Local\Temp\ccedcYia.s 			page 80


 3547              	.LC74:
 3548 018c 41542B48 		.ascii	"AT+HTTTPCLIENTLINE=%d,%d,application/json,%s,%d,%s,"
 3548      54545450 
 3548      434C4945 
 3548      4E544C49 
 3548      4E453D25 
 3549 01bf 25640D0A 		.ascii	"%d\015\012\000"
 3549      00
 3550              	.LC80:
 3551 01c4 41542B48 		.ascii	"AT+HTTTPCLIENTLINE=%d,%d,application/json,%s,%d,%s\015"
 3551      54545450 
 3551      434C4945 
 3551      4E544C49 
 3551      4E453D25 
 3552 01f7 0A00     		.ascii	"\012\000"
 3553 01f9 000000   		.space	3
 3554              	.LC82:
 3555 01fc 47657474 		.ascii	"Getting data. Please wait...\000"
 3555      696E6720 
 3555      64617461 
 3555      2E20506C 
 3555      65617365 
 3556 0219 000000   		.space	3
 3557              	.LC84:
 3558 021c 4A757374 		.ascii	"Just a bit longer...\012\000"
 3558      20612062 
 3558      6974206C 
 3558      6F6E6765 
 3558      722E2E2E 
 3559 0232 0000     		.space	2
 3560              	.LC87:
 3561 0234 37636239 		.ascii	"7cb94c3876b8\000"
 3561      34633338 
 3561      37366238 
 3561      00
 3562 0241 000000   		.space	3
 3563              	.LC89:
 3564 0244 520D0A00 		.ascii	"R\015\012\000"
 3565              	.LC91:
 3566 0248 470D0A00 		.ascii	"G\015\012\000"
 3567              	.LC93:
 3568 024c 420D0A00 		.ascii	"B\015\012\000"
 3569              	.LC95:
 3570 0250 570D0A00 		.ascii	"W\015\012\000"
 3571              	.LC97:
 3572 0254 430D0A00 		.ascii	"C\015\012\000"
 3573              	.LC99:
 3574 0258 4D0D0A00 		.ascii	"M\015\012\000"
 3575              	.LC101:
 3576 025c 590D0A00 		.ascii	"Y\015\012\000"
 3577              		.text
 3578              	.Letext0:
 3579              		.file 3 "c:\\program files (x86)\\cypress\\psoc creator\\4.4\\psoc creator\\import\\gnu\\arm\\5.4.
 3580              		.file 4 "c:\\program files (x86)\\cypress\\psoc creator\\4.4\\psoc creator\\import\\gnu\\arm\\5.4.
 3581              		.file 5 "Generated_Source\\PSoC4/cytypes.h"
 3582              		.file 6 "Generated_Source\\PSoC4/Mux_CapSense_Configuration.h"
 3583              		.file 7 "Generated_Source\\PSoC4/Mux_CapSense_Structure.h"
ARM GAS  C:\Users\PRAJWA~1\AppData\Local\Temp\ccedcYia.s 			page 81


 3584              		.file 8 "c:\\program files (x86)\\cypress\\psoc creator\\4.4\\psoc creator\\import\\gnu\\arm\\5.4.
 3585              		.file 9 "Generated_Source\\PSoC4/S3.h"
 3586              		.file 10 "Generated_Source\\PSoC4/S2.h"
 3587              		.file 11 "Generated_Source\\PSoC4/S1.h"
 3588              		.file 12 "Generated_Source\\PSoC4/S0.h"
 3589              		.file 13 "Generated_Source\\PSoC4/CyLib.h"
 3590              		.file 14 "Generated_Source\\PSoC4/UART_SPI_UART.h"
 3591              		.file 15 "Generated_Source\\PSoC4/CTRL.h"
 3592              		.file 16 "Generated_Source\\PSoC4/UART.h"
 3593              		.file 17 "c:\\program files (x86)\\cypress\\psoc creator\\4.4\\psoc creator\\import\\gnu\\arm\\5.4
 3594              		.file 18 "c:\\program files (x86)\\cypress\\psoc creator\\4.4\\psoc creator\\import\\gnu\\arm\\5.4
 3595              		.file 19 "c:\\program files (x86)\\cypress\\psoc creator\\4.4\\psoc creator\\import\\gnu\\arm\\5.4
 3596              		.file 20 "Generated_Source\\PSoC4/Counter_micros.h"
 3597              		.file 21 "Generated_Source\\PSoC4/EZI2C.h"
 3598              		.file 22 "Generated_Source\\PSoC4/EZI2C_EZI2C.h"
 3599              		.file 23 "Generated_Source\\PSoC4/Mux_CapSense_Control.h"
 3600              		.file 24 "Generated_Source\\PSoC4/Mux_CapSense_Sensing.h"
 3601              		.file 25 "Generated_Source\\PSoC4/Mux_CapSense_Tuner.h"
 3602              		.file 26 "Generated_Source\\PSoC4/Pin_Green.h"
 3603              		.section	.debug_info,"",%progbits
 3604              	.Ldebug_info0:
 3605 0000 E4270000 		.4byte	0x27e4
 3606 0004 0400     		.2byte	0x4
 3607 0006 00000000 		.4byte	.Ldebug_abbrev0
 3608 000a 04       		.byte	0x4
 3609 000b 01       		.uleb128 0x1
 3610 000c 7E020000 		.4byte	.LASF170
 3611 0010 0C       		.byte	0xc
 3612 0011 6C000000 		.4byte	.LASF171
 3613 0015 D6050000 		.4byte	.LASF172
 3614 0019 00000000 		.4byte	.Ldebug_ranges0+0
 3615 001d 00000000 		.4byte	0
 3616 0021 00000000 		.4byte	.Ldebug_line0
 3617 0025 02       		.uleb128 0x2
 3618 0026 08       		.byte	0x8
 3619 0027 07       		.byte	0x7
 3620 0028 01020000 		.4byte	.LASF0
 3621 002c 03       		.uleb128 0x3
 3622 002d D8040000 		.4byte	.LASF2
 3623 0031 03       		.byte	0x3
 3624 0032 1B       		.byte	0x1b
 3625 0033 37000000 		.4byte	0x37
 3626 0037 02       		.uleb128 0x2
 3627 0038 01       		.byte	0x1
 3628 0039 06       		.byte	0x6
 3629 003a 40080000 		.4byte	.LASF1
 3630 003e 03       		.uleb128 0x3
 3631 003f 7F060000 		.4byte	.LASF3
 3632 0043 03       		.byte	0x3
 3633 0044 1D       		.byte	0x1d
 3634 0045 49000000 		.4byte	0x49
 3635 0049 02       		.uleb128 0x2
 3636 004a 01       		.byte	0x1
 3637 004b 08       		.byte	0x8
 3638 004c 82070000 		.4byte	.LASF4
 3639 0050 02       		.uleb128 0x2
 3640 0051 02       		.byte	0x2
ARM GAS  C:\Users\PRAJWA~1\AppData\Local\Temp\ccedcYia.s 			page 82


 3641 0052 05       		.byte	0x5
 3642 0053 83050000 		.4byte	.LASF5
 3643 0057 02       		.uleb128 0x2
 3644 0058 02       		.byte	0x2
 3645 0059 07       		.byte	0x7
 3646 005a 62080000 		.4byte	.LASF6
 3647 005e 02       		.uleb128 0x2
 3648 005f 04       		.byte	0x4
 3649 0060 05       		.byte	0x5
 3650 0061 8D050000 		.4byte	.LASF7
 3651 0065 03       		.uleb128 0x3
 3652 0066 96070000 		.4byte	.LASF8
 3653 006a 03       		.byte	0x3
 3654 006b 41       		.byte	0x41
 3655 006c 70000000 		.4byte	0x70
 3656 0070 02       		.uleb128 0x2
 3657 0071 04       		.byte	0x4
 3658 0072 07       		.byte	0x7
 3659 0073 FB060000 		.4byte	.LASF9
 3660 0077 02       		.uleb128 0x2
 3661 0078 08       		.byte	0x8
 3662 0079 05       		.byte	0x5
 3663 007a FE030000 		.4byte	.LASF10
 3664 007e 04       		.uleb128 0x4
 3665 007f 04       		.byte	0x4
 3666 0080 05       		.byte	0x5
 3667 0081 696E7400 		.ascii	"int\000"
 3668 0085 02       		.uleb128 0x2
 3669 0086 04       		.byte	0x4
 3670 0087 07       		.byte	0x7
 3671 0088 D3000000 		.4byte	.LASF11
 3672 008c 03       		.uleb128 0x3
 3673 008d A2010000 		.4byte	.LASF12
 3674 0091 04       		.byte	0x4
 3675 0092 14       		.byte	0x14
 3676 0093 2C000000 		.4byte	0x2c
 3677 0097 03       		.uleb128 0x3
 3678 0098 D8030000 		.4byte	.LASF13
 3679 009c 04       		.byte	0x4
 3680 009d 18       		.byte	0x18
 3681 009e 3E000000 		.4byte	0x3e
 3682 00a2 03       		.uleb128 0x3
 3683 00a3 99010000 		.4byte	.LASF14
 3684 00a7 04       		.byte	0x4
 3685 00a8 30       		.byte	0x30
 3686 00a9 65000000 		.4byte	0x65
 3687 00ad 05       		.uleb128 0x5
 3688 00ae B1080000 		.4byte	.LASF15
 3689 00b2 05       		.byte	0x5
 3690 00b3 FC01     		.2byte	0x1fc
 3691 00b5 49000000 		.4byte	0x49
 3692 00b9 05       		.uleb128 0x5
 3693 00ba BC030000 		.4byte	.LASF16
 3694 00be 05       		.byte	0x5
 3695 00bf FD01     		.2byte	0x1fd
 3696 00c1 57000000 		.4byte	0x57
 3697 00c5 05       		.uleb128 0x5
ARM GAS  C:\Users\PRAJWA~1\AppData\Local\Temp\ccedcYia.s 			page 83


 3698 00c6 9B040000 		.4byte	.LASF17
 3699 00ca 05       		.byte	0x5
 3700 00cb FE01     		.2byte	0x1fe
 3701 00cd 70000000 		.4byte	0x70
 3702 00d1 02       		.uleb128 0x2
 3703 00d2 04       		.byte	0x4
 3704 00d3 04       		.byte	0x4
 3705 00d4 B7010000 		.4byte	.LASF18
 3706 00d8 02       		.uleb128 0x2
 3707 00d9 08       		.byte	0x8
 3708 00da 04       		.byte	0x4
 3709 00db B7080000 		.4byte	.LASF19
 3710 00df 02       		.uleb128 0x2
 3711 00e0 01       		.byte	0x1
 3712 00e1 08       		.byte	0x8
 3713 00e2 75030000 		.4byte	.LASF20
 3714 00e6 06       		.uleb128 0x6
 3715 00e7 C5000000 		.4byte	0xc5
 3716 00eb 05       		.uleb128 0x5
 3717 00ec 17040000 		.4byte	.LASF21
 3718 00f0 06       		.byte	0x6
 3719 00f1 2F01     		.2byte	0x12f
 3720 00f3 B9000000 		.4byte	0xb9
 3721 00f7 05       		.uleb128 0x5
 3722 00f8 00000000 		.4byte	.LASF22
 3723 00fc 06       		.byte	0x6
 3724 00fd 3301     		.2byte	0x133
 3725 00ff AD000000 		.4byte	0xad
 3726 0103 02       		.uleb128 0x2
 3727 0104 08       		.byte	0x8
 3728 0105 04       		.byte	0x4
 3729 0106 F1040000 		.4byte	.LASF23
 3730 010a 02       		.uleb128 0x2
 3731 010b 04       		.byte	0x4
 3732 010c 07       		.byte	0x7
 3733 010d F2060000 		.4byte	.LASF24
 3734 0111 07       		.uleb128 0x7
 3735 0112 04       		.byte	0x4
 3736 0113 DF000000 		.4byte	0xdf
 3737 0117 08       		.uleb128 0x8
 3738 0118 DF000000 		.4byte	0xdf
 3739 011c 27010000 		.4byte	0x127
 3740 0120 09       		.uleb128 0x9
 3741 0121 0A010000 		.4byte	0x10a
 3742 0125 18       		.byte	0x18
 3743 0126 00       		.byte	0
 3744 0127 08       		.uleb128 0x8
 3745 0128 AD000000 		.4byte	0xad
 3746 012c 37010000 		.4byte	0x137
 3747 0130 09       		.uleb128 0x9
 3748 0131 0A010000 		.4byte	0x10a
 3749 0135 00       		.byte	0
 3750 0136 00       		.byte	0
 3751 0137 0A       		.uleb128 0xa
 3752 0138 16       		.byte	0x16
 3753 0139 07       		.byte	0x7
 3754 013a 0601     		.2byte	0x106
ARM GAS  C:\Users\PRAJWA~1\AppData\Local\Temp\ccedcYia.s 			page 84


 3755 013c 1E020000 		.4byte	0x21e
 3756 0140 0B       		.uleb128 0xb
 3757 0141 CD030000 		.4byte	.LASF25
 3758 0145 07       		.byte	0x7
 3759 0146 0B01     		.2byte	0x10b
 3760 0148 B9000000 		.4byte	0xb9
 3761 014c 00       		.byte	0
 3762 014d 0B       		.uleb128 0xb
 3763 014e 3B070000 		.4byte	.LASF26
 3764 0152 07       		.byte	0x7
 3765 0153 1001     		.2byte	0x110
 3766 0155 EB000000 		.4byte	0xeb
 3767 0159 02       		.byte	0x2
 3768 015a 0B       		.uleb128 0xb
 3769 015b 68030000 		.4byte	.LASF27
 3770 015f 07       		.byte	0x7
 3771 0160 1501     		.2byte	0x115
 3772 0162 AD000000 		.4byte	0xad
 3773 0166 04       		.byte	0x4
 3774 0167 0B       		.uleb128 0xb
 3775 0168 72040000 		.4byte	.LASF28
 3776 016c 07       		.byte	0x7
 3777 016d 1A01     		.2byte	0x11a
 3778 016f AD000000 		.4byte	0xad
 3779 0173 05       		.byte	0x5
 3780 0174 0B       		.uleb128 0xb
 3781 0175 1D030000 		.4byte	.LASF29
 3782 0179 07       		.byte	0x7
 3783 017a 2001     		.2byte	0x120
 3784 017c AD000000 		.4byte	0xad
 3785 0180 06       		.byte	0x6
 3786 0181 0B       		.uleb128 0xb
 3787 0182 0C040000 		.4byte	.LASF30
 3788 0186 07       		.byte	0x7
 3789 0187 2601     		.2byte	0x126
 3790 0189 AD000000 		.4byte	0xad
 3791 018d 07       		.byte	0x7
 3792 018e 0B       		.uleb128 0xb
 3793 018f 3B030000 		.4byte	.LASF31
 3794 0193 07       		.byte	0x7
 3795 0194 2D01     		.2byte	0x12d
 3796 0196 F7000000 		.4byte	0xf7
 3797 019a 08       		.byte	0x8
 3798 019b 0B       		.uleb128 0xb
 3799 019c 13070000 		.4byte	.LASF32
 3800 01a0 07       		.byte	0x7
 3801 01a1 3401     		.2byte	0x134
 3802 01a3 27010000 		.4byte	0x127
 3803 01a7 09       		.byte	0x9
 3804 01a8 0B       		.uleb128 0xb
 3805 01a9 89060000 		.4byte	.LASF33
 3806 01ad 07       		.byte	0x7
 3807 01ae 3B01     		.2byte	0x13b
 3808 01b0 27010000 		.4byte	0x127
 3809 01b4 0A       		.byte	0xa
 3810 01b5 0B       		.uleb128 0xb
 3811 01b6 A9010000 		.4byte	.LASF34
ARM GAS  C:\Users\PRAJWA~1\AppData\Local\Temp\ccedcYia.s 			page 85


 3812 01ba 07       		.byte	0x7
 3813 01bb 4001     		.2byte	0x140
 3814 01bd AD000000 		.4byte	0xad
 3815 01c1 0B       		.byte	0xb
 3816 01c2 0B       		.uleb128 0xb
 3817 01c3 18080000 		.4byte	.LASF35
 3818 01c7 07       		.byte	0x7
 3819 01c8 4801     		.2byte	0x148
 3820 01ca B9000000 		.4byte	0xb9
 3821 01ce 0C       		.byte	0xc
 3822 01cf 0B       		.uleb128 0xb
 3823 01d0 C3030000 		.4byte	.LASF36
 3824 01d4 07       		.byte	0x7
 3825 01d5 4F01     		.2byte	0x14f
 3826 01d7 B9000000 		.4byte	0xb9
 3827 01db 0E       		.byte	0xe
 3828 01dc 0B       		.uleb128 0xb
 3829 01dd 6D050000 		.4byte	.LASF37
 3830 01e1 07       		.byte	0x7
 3831 01e2 5401     		.2byte	0x154
 3832 01e4 AD000000 		.4byte	0xad
 3833 01e8 10       		.byte	0x10
 3834 01e9 0B       		.uleb128 0xb
 3835 01ea 7A030000 		.4byte	.LASF38
 3836 01ee 07       		.byte	0x7
 3837 01ef 5901     		.2byte	0x159
 3838 01f1 AD000000 		.4byte	0xad
 3839 01f5 11       		.byte	0x11
 3840 01f6 0B       		.uleb128 0xb
 3841 01f7 A5080000 		.4byte	.LASF39
 3842 01fb 07       		.byte	0x7
 3843 01fc 5E01     		.2byte	0x15e
 3844 01fe AD000000 		.4byte	0xad
 3845 0202 12       		.byte	0x12
 3846 0203 0B       		.uleb128 0xb
 3847 0204 92010000 		.4byte	.LASF40
 3848 0208 07       		.byte	0x7
 3849 0209 6301     		.2byte	0x163
 3850 020b AD000000 		.4byte	0xad
 3851 020f 13       		.byte	0x13
 3852 0210 0B       		.uleb128 0xb
 3853 0211 7A050000 		.4byte	.LASF41
 3854 0215 07       		.byte	0x7
 3855 0216 6801     		.2byte	0x168
 3856 0218 AD000000 		.4byte	0xad
 3857 021c 14       		.byte	0x14
 3858 021d 00       		.byte	0
 3859 021e 05       		.uleb128 0x5
 3860 021f 41010000 		.4byte	.LASF42
 3861 0223 07       		.byte	0x7
 3862 0224 6901     		.2byte	0x169
 3863 0226 37010000 		.4byte	0x137
 3864 022a 0A       		.uleb128 0xa
 3865 022b 16       		.byte	0x16
 3866 022c 07       		.byte	0x7
 3867 022d 6F01     		.2byte	0x16f
 3868 022f 41020000 		.4byte	0x241
ARM GAS  C:\Users\PRAJWA~1\AppData\Local\Temp\ccedcYia.s 			page 86


 3869 0233 0B       		.uleb128 0xb
 3870 0234 8C040000 		.4byte	.LASF43
 3871 0238 07       		.byte	0x7
 3872 0239 7401     		.2byte	0x174
 3873 023b 1E020000 		.4byte	0x21e
 3874 023f 00       		.byte	0
 3875 0240 00       		.byte	0
 3876 0241 05       		.uleb128 0x5
 3877 0242 41000000 		.4byte	.LASF44
 3878 0246 07       		.byte	0x7
 3879 0247 7501     		.2byte	0x175
 3880 0249 2A020000 		.4byte	0x22a
 3881 024d 0A       		.uleb128 0xa
 3882 024e 0A       		.byte	0xa
 3883 024f 07       		.byte	0x7
 3884 0250 7B01     		.2byte	0x17b
 3885 0252 A5020000 		.4byte	0x2a5
 3886 0256 0C       		.uleb128 0xc
 3887 0257 72617700 		.ascii	"raw\000"
 3888 025b 07       		.byte	0x7
 3889 025c 8001     		.2byte	0x180
 3890 025e A5020000 		.4byte	0x2a5
 3891 0262 00       		.byte	0
 3892 0263 0B       		.uleb128 0xb
 3893 0264 5D080000 		.4byte	.LASF45
 3894 0268 07       		.byte	0x7
 3895 0269 8501     		.2byte	0x185
 3896 026b A5020000 		.4byte	0x2a5
 3897 026f 02       		.byte	0x2
 3898 0270 0B       		.uleb128 0xb
 3899 0271 4C070000 		.4byte	.LASF46
 3900 0275 07       		.byte	0x7
 3901 0276 8B01     		.2byte	0x18b
 3902 0278 27010000 		.4byte	0x127
 3903 027c 04       		.byte	0x4
 3904 027d 0B       		.uleb128 0xb
 3905 027e A7050000 		.4byte	.LASF47
 3906 0282 07       		.byte	0x7
 3907 0283 9001     		.2byte	0x190
 3908 0285 EB000000 		.4byte	0xeb
 3909 0289 06       		.byte	0x6
 3910 028a 0B       		.uleb128 0xb
 3911 028b BE080000 		.4byte	.LASF48
 3912 028f 07       		.byte	0x7
 3913 0290 9501     		.2byte	0x195
 3914 0292 B5020000 		.4byte	0x2b5
 3915 0296 08       		.byte	0x8
 3916 0297 0B       		.uleb128 0xb
 3917 0298 F5030000 		.4byte	.LASF49
 3918 029c 07       		.byte	0x7
 3919 029d 9A01     		.2byte	0x19a
 3920 029f 27010000 		.4byte	0x127
 3921 02a3 09       		.byte	0x9
 3922 02a4 00       		.byte	0
 3923 02a5 08       		.uleb128 0x8
 3924 02a6 B9000000 		.4byte	0xb9
 3925 02aa B5020000 		.4byte	0x2b5
ARM GAS  C:\Users\PRAJWA~1\AppData\Local\Temp\ccedcYia.s 			page 87


 3926 02ae 09       		.uleb128 0x9
 3927 02af 0A010000 		.4byte	0x10a
 3928 02b3 00       		.byte	0
 3929 02b4 00       		.byte	0
 3930 02b5 08       		.uleb128 0x8
 3931 02b6 F7000000 		.4byte	0xf7
 3932 02ba C5020000 		.4byte	0x2c5
 3933 02be 09       		.uleb128 0x9
 3934 02bf 0A010000 		.4byte	0x10a
 3935 02c3 00       		.byte	0
 3936 02c4 00       		.byte	0
 3937 02c5 05       		.uleb128 0x5
 3938 02c6 DB080000 		.4byte	.LASF50
 3939 02ca 07       		.byte	0x7
 3940 02cb 9B01     		.2byte	0x19b
 3941 02cd 4D020000 		.4byte	0x24d
 3942 02d1 0A       		.uleb128 0xa
 3943 02d2 50       		.byte	0x50
 3944 02d3 07       		.byte	0x7
 3945 02d4 A101     		.2byte	0x1a1
 3946 02d6 E8020000 		.4byte	0x2e8
 3947 02da 0B       		.uleb128 0xb
 3948 02db 8C040000 		.4byte	.LASF43
 3949 02df 07       		.byte	0x7
 3950 02e0 A601     		.2byte	0x1a6
 3951 02e2 E8020000 		.4byte	0x2e8
 3952 02e6 00       		.byte	0
 3953 02e7 00       		.byte	0
 3954 02e8 08       		.uleb128 0x8
 3955 02e9 C5020000 		.4byte	0x2c5
 3956 02ed F8020000 		.4byte	0x2f8
 3957 02f1 09       		.uleb128 0x9
 3958 02f2 0A010000 		.4byte	0x10a
 3959 02f6 07       		.byte	0x7
 3960 02f7 00       		.byte	0
 3961 02f8 05       		.uleb128 0x5
 3962 02f9 1F080000 		.4byte	.LASF51
 3963 02fd 07       		.byte	0x7
 3964 02fe A701     		.2byte	0x1a7
 3965 0300 D1020000 		.4byte	0x2d1
 3966 0304 0A       		.uleb128 0xa
 3967 0305 8C       		.byte	0x8c
 3968 0306 07       		.byte	0x7
 3969 0307 AD01     		.2byte	0x1ad
 3970 0309 05040000 		.4byte	0x405
 3971 030d 0B       		.uleb128 0xb
 3972 030e 31050000 		.4byte	.LASF52
 3973 0312 07       		.byte	0x7
 3974 0313 B401     		.2byte	0x1b4
 3975 0315 B9000000 		.4byte	0xb9
 3976 0319 00       		.byte	0
 3977 031a 0B       		.uleb128 0xb
 3978 031b D2080000 		.4byte	.LASF53
 3979 031f 07       		.byte	0x7
 3980 0320 B901     		.2byte	0x1b9
 3981 0322 B9000000 		.4byte	0xb9
 3982 0326 02       		.byte	0x2
ARM GAS  C:\Users\PRAJWA~1\AppData\Local\Temp\ccedcYia.s 			page 88


 3983 0327 0B       		.uleb128 0xb
 3984 0328 FD000000 		.4byte	.LASF54
 3985 032c 07       		.byte	0x7
 3986 032d BE01     		.2byte	0x1be
 3987 032f B9000000 		.4byte	0xb9
 3988 0333 04       		.byte	0x4
 3989 0334 0B       		.uleb128 0xb
 3990 0335 AC050000 		.4byte	.LASF55
 3991 0339 07       		.byte	0x7
 3992 033a C401     		.2byte	0x1c4
 3993 033c B9000000 		.4byte	0xb9
 3994 0340 06       		.byte	0x6
 3995 0341 0B       		.uleb128 0xb
 3996 0342 F1000000 		.4byte	.LASF56
 3997 0346 07       		.byte	0x7
 3998 0347 C901     		.2byte	0x1c9
 3999 0349 B9000000 		.4byte	0xb9
 4000 034d 08       		.byte	0x8
 4001 034e 0B       		.uleb128 0xb
 4002 034f E0030000 		.4byte	.LASF57
 4003 0353 07       		.byte	0x7
 4004 0354 CE01     		.2byte	0x1ce
 4005 0356 E6000000 		.4byte	0xe6
 4006 035a 0C       		.byte	0xc
 4007 035b 0B       		.uleb128 0xb
 4008 035c 9C050000 		.4byte	.LASF58
 4009 0360 07       		.byte	0x7
 4010 0361 D401     		.2byte	0x1d4
 4011 0363 05040000 		.4byte	0x405
 4012 0367 10       		.byte	0x10
 4013 0368 0B       		.uleb128 0xb
 4014 0369 BC060000 		.4byte	.LASF59
 4015 036d 07       		.byte	0x7
 4016 036e DB01     		.2byte	0x1db
 4017 0370 05040000 		.4byte	0x405
 4018 0374 14       		.byte	0x14
 4019 0375 0B       		.uleb128 0xb
 4020 0376 63050000 		.4byte	.LASF60
 4021 037a 07       		.byte	0x7
 4022 037b EB01     		.2byte	0x1eb
 4023 037d 27010000 		.4byte	0x127
 4024 0381 18       		.byte	0x18
 4025 0382 0B       		.uleb128 0xb
 4026 0383 7B040000 		.4byte	.LASF61
 4027 0387 07       		.byte	0x7
 4028 0388 F101     		.2byte	0x1f1
 4029 038a B9000000 		.4byte	0xb9
 4030 038e 1A       		.byte	0x1a
 4031 038f 0B       		.uleb128 0xb
 4032 0390 0C030000 		.4byte	.LASF62
 4033 0394 07       		.byte	0x7
 4034 0395 F601     		.2byte	0x1f6
 4035 0397 AD000000 		.4byte	0xad
 4036 039b 1C       		.byte	0x1c
 4037 039c 0B       		.uleb128 0xb
 4038 039d 48040000 		.4byte	.LASF63
 4039 03a1 07       		.byte	0x7
ARM GAS  C:\Users\PRAJWA~1\AppData\Local\Temp\ccedcYia.s 			page 89


 4040 03a2 FB01     		.2byte	0x1fb
 4041 03a4 41020000 		.4byte	0x241
 4042 03a8 1E       		.byte	0x1e
 4043 03a9 0B       		.uleb128 0xb
 4044 03aa E5010000 		.4byte	.LASF64
 4045 03ae 07       		.byte	0x7
 4046 03af 0002     		.2byte	0x200
 4047 03b1 F8020000 		.4byte	0x2f8
 4048 03b5 34       		.byte	0x34
 4049 03b6 0B       		.uleb128 0xb
 4050 03b7 9B000000 		.4byte	.LASF65
 4051 03bb 07       		.byte	0x7
 4052 03bc 0502     		.2byte	0x205
 4053 03be AD000000 		.4byte	0xad
 4054 03c2 84       		.byte	0x84
 4055 03c3 0B       		.uleb128 0xb
 4056 03c4 32020000 		.4byte	.LASF66
 4057 03c8 07       		.byte	0x7
 4058 03c9 0A02     		.2byte	0x20a
 4059 03cb AD000000 		.4byte	0xad
 4060 03cf 85       		.byte	0x85
 4061 03d0 0B       		.uleb128 0xb
 4062 03d1 05050000 		.4byte	.LASF67
 4063 03d5 07       		.byte	0x7
 4064 03d6 0F02     		.2byte	0x20f
 4065 03d8 B9000000 		.4byte	0xb9
 4066 03dc 86       		.byte	0x86
 4067 03dd 0B       		.uleb128 0xb
 4068 03de 5B040000 		.4byte	.LASF68
 4069 03e2 07       		.byte	0x7
 4070 03e3 1402     		.2byte	0x214
 4071 03e5 A5020000 		.4byte	0x2a5
 4072 03e9 88       		.byte	0x88
 4073 03ea 0B       		.uleb128 0xb
 4074 03eb 05010000 		.4byte	.LASF69
 4075 03ef 07       		.byte	0x7
 4076 03f0 1902     		.2byte	0x219
 4077 03f2 AD000000 		.4byte	0xad
 4078 03f6 8A       		.byte	0x8a
 4079 03f7 0B       		.uleb128 0xb
 4080 03f8 CF070000 		.4byte	.LASF70
 4081 03fc 07       		.byte	0x7
 4082 03fd 1E02     		.2byte	0x21e
 4083 03ff AD000000 		.4byte	0xad
 4084 0403 8B       		.byte	0x8b
 4085 0404 00       		.byte	0
 4086 0405 08       		.uleb128 0x8
 4087 0406 C5000000 		.4byte	0xc5
 4088 040a 15040000 		.4byte	0x415
 4089 040e 09       		.uleb128 0x9
 4090 040f 0A010000 		.4byte	0x10a
 4091 0413 00       		.byte	0
 4092 0414 00       		.byte	0
 4093 0415 05       		.uleb128 0x5
 4094 0416 B7070000 		.4byte	.LASF71
 4095 041a 07       		.byte	0x7
 4096 041b 1F02     		.2byte	0x21f
ARM GAS  C:\Users\PRAJWA~1\AppData\Local\Temp\ccedcYia.s 			page 90


 4097 041d 04030000 		.4byte	0x304
 4098 0421 03       		.uleb128 0x3
 4099 0422 AC080000 		.4byte	.LASF72
 4100 0426 08       		.byte	0x8
 4101 0427 6C       		.byte	0x6c
 4102 0428 85000000 		.4byte	0x85
 4103 042c 0D       		.uleb128 0xd
 4104 042d 37010000 		.4byte	.LASF81
 4105 0431 03       		.byte	0x3
 4106 0432 01       		.byte	0x1
 4107 0433 79       		.byte	0x79
 4108 0434 5D040000 		.4byte	0x45d
 4109 0438 0E       		.uleb128 0xe
 4110 0439 93080000 		.4byte	.LASF73
 4111 043d 01       		.byte	0x1
 4112 043e 7A       		.byte	0x7a
 4113 043f AD000000 		.4byte	0xad
 4114 0443 00       		.byte	0
 4115 0444 0E       		.uleb128 0xe
 4116 0445 43050000 		.4byte	.LASF74
 4117 0449 01       		.byte	0x1
 4118 044a 7B       		.byte	0x7b
 4119 044b AD000000 		.4byte	0xad
 4120 044f 01       		.byte	0x1
 4121 0450 0E       		.uleb128 0xe
 4122 0451 86040000 		.4byte	.LASF75
 4123 0455 01       		.byte	0x1
 4124 0456 7C       		.byte	0x7c
 4125 0457 AD000000 		.4byte	0xad
 4126 045b 02       		.byte	0x2
 4127 045c 00       		.byte	0
 4128 045d 0F       		.uleb128 0xf
 4129 045e 0C       		.byte	0xc
 4130 045f 01       		.byte	0x1
 4131 0460 7F       		.byte	0x7f
 4132 0461 8A040000 		.4byte	0x48a
 4133 0465 0E       		.uleb128 0xe
 4134 0466 CC080000 		.4byte	.LASF76
 4135 046a 01       		.byte	0x1
 4136 046b 80       		.byte	0x80
 4137 046c AD000000 		.4byte	0xad
 4138 0470 00       		.byte	0
 4139 0471 0E       		.uleb128 0xe
 4140 0472 46030000 		.4byte	.LASF77
 4141 0476 01       		.byte	0x1
 4142 0477 81       		.byte	0x81
 4143 0478 21040000 		.4byte	0x421
 4144 047c 04       		.byte	0x4
 4145 047d 10       		.uleb128 0x10
 4146 047e 72657300 		.ascii	"res\000"
 4147 0482 01       		.byte	0x1
 4148 0483 82       		.byte	0x82
 4149 0484 21040000 		.4byte	0x421
 4150 0488 08       		.byte	0x8
 4151 0489 00       		.byte	0
 4152 048a 0F       		.uleb128 0xf
 4153 048b 04       		.byte	0x4
ARM GAS  C:\Users\PRAJWA~1\AppData\Local\Temp\ccedcYia.s 			page 91


 4154 048c 01       		.byte	0x1
 4155 048d 84       		.byte	0x84
 4156 048e 9F040000 		.4byte	0x49f
 4157 0492 0E       		.uleb128 0xe
 4158 0493 88010000 		.4byte	.LASF78
 4159 0497 01       		.byte	0x1
 4160 0498 85       		.byte	0x85
 4161 0499 A2000000 		.4byte	0xa2
 4162 049d 00       		.byte	0
 4163 049e 00       		.byte	0
 4164 049f 0F       		.uleb128 0xf
 4165 04a0 DC       		.byte	0xdc
 4166 04a1 01       		.byte	0x1
 4167 04a2 87       		.byte	0x87
 4168 04a3 CC040000 		.4byte	0x4cc
 4169 04a7 0E       		.uleb128 0xe
 4170 04a8 70030000 		.4byte	.LASF79
 4171 04ac 01       		.byte	0x1
 4172 04ad 88       		.byte	0x88
 4173 04ae CC040000 		.4byte	0x4cc
 4174 04b2 00       		.byte	0
 4175 04b3 0E       		.uleb128 0xe
 4176 04b4 26000000 		.4byte	.LASF80
 4177 04b8 01       		.byte	0x1
 4178 04b9 89       		.byte	0x89
 4179 04ba CC040000 		.4byte	0x4cc
 4180 04be 64       		.byte	0x64
 4181 04bf 10       		.uleb128 0x10
 4182 04c0 6D616300 		.ascii	"mac\000"
 4183 04c4 01       		.byte	0x1
 4184 04c5 8A       		.byte	0x8a
 4185 04c6 DC040000 		.4byte	0x4dc
 4186 04ca C8       		.byte	0xc8
 4187 04cb 00       		.byte	0
 4188 04cc 08       		.uleb128 0x8
 4189 04cd DF000000 		.4byte	0xdf
 4190 04d1 DC040000 		.4byte	0x4dc
 4191 04d5 09       		.uleb128 0x9
 4192 04d6 0A010000 		.4byte	0x10a
 4193 04da 63       		.byte	0x63
 4194 04db 00       		.byte	0
 4195 04dc 08       		.uleb128 0x8
 4196 04dd DF000000 		.4byte	0xdf
 4197 04e1 EC040000 		.4byte	0x4ec
 4198 04e5 09       		.uleb128 0x9
 4199 04e6 0A010000 		.4byte	0x10a
 4200 04ea 13       		.byte	0x13
 4201 04eb 00       		.byte	0
 4202 04ec 0D       		.uleb128 0xd
 4203 04ed 70070000 		.4byte	.LASF82
 4204 04f1 FC       		.byte	0xfc
 4205 04f2 01       		.byte	0x1
 4206 04f3 76       		.byte	0x76
 4207 04f4 57050000 		.4byte	0x557
 4208 04f8 0E       		.uleb128 0xe
 4209 04f9 A2040000 		.4byte	.LASF83
 4210 04fd 01       		.byte	0x1
ARM GAS  C:\Users\PRAJWA~1\AppData\Local\Temp\ccedcYia.s 			page 92


 4211 04fe 77       		.byte	0x77
 4212 04ff AD000000 		.4byte	0xad
 4213 0503 00       		.byte	0
 4214 0504 0E       		.uleb128 0xe
 4215 0505 61000000 		.4byte	.LASF84
 4216 0509 01       		.byte	0x1
 4217 050a 78       		.byte	0x78
 4218 050b C5000000 		.4byte	0xc5
 4219 050f 04       		.byte	0x4
 4220 0510 10       		.uleb128 0x10
 4221 0511 6200     		.ascii	"b\000"
 4222 0513 01       		.byte	0x1
 4223 0514 7D       		.byte	0x7d
 4224 0515 2C040000 		.4byte	0x42c
 4225 0519 08       		.byte	0x8
 4226 051a 0E       		.uleb128 0xe
 4227 051b 73000000 		.4byte	.LASF85
 4228 051f 01       		.byte	0x1
 4229 0520 7E       		.byte	0x7e
 4230 0521 97000000 		.4byte	0x97
 4231 0525 0B       		.byte	0xb
 4232 0526 0E       		.uleb128 0xe
 4233 0527 0D070000 		.4byte	.LASF86
 4234 052b 01       		.byte	0x1
 4235 052c 7E       		.byte	0x7e
 4236 052d 97000000 		.4byte	0x97
 4237 0531 0C       		.byte	0xc
 4238 0532 10       		.uleb128 0x10
 4239 0533 64616300 		.ascii	"dac\000"
 4240 0537 01       		.byte	0x1
 4241 0538 83       		.byte	0x83
 4242 0539 5D040000 		.4byte	0x45d
 4243 053d 10       		.byte	0x10
 4244 053e 0E       		.uleb128 0xe
 4245 053f 90070000 		.4byte	.LASF87
 4246 0543 01       		.byte	0x1
 4247 0544 86       		.byte	0x86
 4248 0545 8A040000 		.4byte	0x48a
 4249 0549 1C       		.byte	0x1c
 4250 054a 0E       		.uleb128 0xe
 4251 054b A1070000 		.4byte	.LASF88
 4252 054f 01       		.byte	0x1
 4253 0550 8B       		.byte	0x8b
 4254 0551 9F040000 		.4byte	0x49f
 4255 0555 20       		.byte	0x20
 4256 0556 00       		.byte	0
 4257 0557 11       		.uleb128 0x11
 4258 0558 08080000 		.4byte	.LASF89
 4259 055c 01       		.byte	0x1
 4260 055d 8E       		.byte	0x8e
 4261 055e 00000000 		.4byte	.LFB35
 4262 0562 B4010000 		.4byte	.LFE35-.LFB35
 4263 0566 01       		.uleb128 0x1
 4264 0567 9C       		.byte	0x9c
 4265 0568 430A0000 		.4byte	0xa43
 4266 056c 12       		.uleb128 0x12
 4267 056d 7000     		.ascii	"p\000"
ARM GAS  C:\Users\PRAJWA~1\AppData\Local\Temp\ccedcYia.s 			page 93


 4268 056f 01       		.byte	0x1
 4269 0570 8E       		.byte	0x8e
 4270 0571 430A0000 		.4byte	0xa43
 4271 0575 00000000 		.4byte	.LLST0
 4272 0579 12       		.uleb128 0x12
 4273 057a 6100     		.ascii	"a\000"
 4274 057c 01       		.byte	0x1
 4275 057d 8E       		.byte	0x8e
 4276 057e 7E000000 		.4byte	0x7e
 4277 0582 98010000 		.4byte	.LLST1
 4278 0586 13       		.uleb128 0x13
 4279 0587 16000000 		.4byte	.LVL3
 4280 058b 8C260000 		.4byte	0x268c
 4281 058f 99050000 		.4byte	0x599
 4282 0593 14       		.uleb128 0x14
 4283 0594 01       		.uleb128 0x1
 4284 0595 50       		.byte	0x50
 4285 0596 01       		.uleb128 0x1
 4286 0597 30       		.byte	0x30
 4287 0598 00       		.byte	0
 4288 0599 13       		.uleb128 0x13
 4289 059a 1C000000 		.4byte	.LVL4
 4290 059e 97260000 		.4byte	0x2697
 4291 05a2 AC050000 		.4byte	0x5ac
 4292 05a6 14       		.uleb128 0x14
 4293 05a7 01       		.uleb128 0x1
 4294 05a8 50       		.byte	0x50
 4295 05a9 01       		.uleb128 0x1
 4296 05aa 30       		.byte	0x30
 4297 05ab 00       		.byte	0
 4298 05ac 13       		.uleb128 0x13
 4299 05ad 22000000 		.4byte	.LVL5
 4300 05b1 A2260000 		.4byte	0x26a2
 4301 05b5 BF050000 		.4byte	0x5bf
 4302 05b9 14       		.uleb128 0x14
 4303 05ba 01       		.uleb128 0x1
 4304 05bb 50       		.byte	0x50
 4305 05bc 01       		.uleb128 0x1
 4306 05bd 30       		.byte	0x30
 4307 05be 00       		.byte	0
 4308 05bf 13       		.uleb128 0x13
 4309 05c0 28000000 		.4byte	.LVL6
 4310 05c4 AD260000 		.4byte	0x26ad
 4311 05c8 D2050000 		.4byte	0x5d2
 4312 05cc 14       		.uleb128 0x14
 4313 05cd 01       		.uleb128 0x1
 4314 05ce 50       		.byte	0x50
 4315 05cf 01       		.uleb128 0x1
 4316 05d0 30       		.byte	0x30
 4317 05d1 00       		.byte	0
 4318 05d2 13       		.uleb128 0x13
 4319 05d3 30000000 		.4byte	.LVL9
 4320 05d7 8C260000 		.4byte	0x268c
 4321 05db E5050000 		.4byte	0x5e5
 4322 05df 14       		.uleb128 0x14
 4323 05e0 01       		.uleb128 0x1
 4324 05e1 50       		.byte	0x50
ARM GAS  C:\Users\PRAJWA~1\AppData\Local\Temp\ccedcYia.s 			page 94


 4325 05e2 01       		.uleb128 0x1
 4326 05e3 30       		.byte	0x30
 4327 05e4 00       		.byte	0
 4328 05e5 13       		.uleb128 0x13
 4329 05e6 36000000 		.4byte	.LVL10
 4330 05ea 97260000 		.4byte	0x2697
 4331 05ee F8050000 		.4byte	0x5f8
 4332 05f2 14       		.uleb128 0x14
 4333 05f3 01       		.uleb128 0x1
 4334 05f4 50       		.byte	0x50
 4335 05f5 01       		.uleb128 0x1
 4336 05f6 30       		.byte	0x30
 4337 05f7 00       		.byte	0
 4338 05f8 13       		.uleb128 0x13
 4339 05f9 3C000000 		.4byte	.LVL11
 4340 05fd A2260000 		.4byte	0x26a2
 4341 0601 0B060000 		.4byte	0x60b
 4342 0605 14       		.uleb128 0x14
 4343 0606 01       		.uleb128 0x1
 4344 0607 50       		.byte	0x50
 4345 0608 01       		.uleb128 0x1
 4346 0609 30       		.byte	0x30
 4347 060a 00       		.byte	0
 4348 060b 13       		.uleb128 0x13
 4349 060c 42000000 		.4byte	.LVL12
 4350 0610 AD260000 		.4byte	0x26ad
 4351 0614 1E060000 		.4byte	0x61e
 4352 0618 14       		.uleb128 0x14
 4353 0619 01       		.uleb128 0x1
 4354 061a 50       		.byte	0x50
 4355 061b 01       		.uleb128 0x1
 4356 061c 31       		.byte	0x31
 4357 061d 00       		.byte	0
 4358 061e 13       		.uleb128 0x13
 4359 061f 4A000000 		.4byte	.LVL15
 4360 0623 8C260000 		.4byte	0x268c
 4361 0627 31060000 		.4byte	0x631
 4362 062b 14       		.uleb128 0x14
 4363 062c 01       		.uleb128 0x1
 4364 062d 50       		.byte	0x50
 4365 062e 01       		.uleb128 0x1
 4366 062f 30       		.byte	0x30
 4367 0630 00       		.byte	0
 4368 0631 13       		.uleb128 0x13
 4369 0632 50000000 		.4byte	.LVL16
 4370 0636 97260000 		.4byte	0x2697
 4371 063a 44060000 		.4byte	0x644
 4372 063e 14       		.uleb128 0x14
 4373 063f 01       		.uleb128 0x1
 4374 0640 50       		.byte	0x50
 4375 0641 01       		.uleb128 0x1
 4376 0642 30       		.byte	0x30
 4377 0643 00       		.byte	0
 4378 0644 13       		.uleb128 0x13
 4379 0645 56000000 		.4byte	.LVL17
 4380 0649 A2260000 		.4byte	0x26a2
 4381 064d 57060000 		.4byte	0x657
ARM GAS  C:\Users\PRAJWA~1\AppData\Local\Temp\ccedcYia.s 			page 95


 4382 0651 14       		.uleb128 0x14
 4383 0652 01       		.uleb128 0x1
 4384 0653 50       		.byte	0x50
 4385 0654 01       		.uleb128 0x1
 4386 0655 31       		.byte	0x31
 4387 0656 00       		.byte	0
 4388 0657 13       		.uleb128 0x13
 4389 0658 5C000000 		.4byte	.LVL18
 4390 065c AD260000 		.4byte	0x26ad
 4391 0660 6A060000 		.4byte	0x66a
 4392 0664 14       		.uleb128 0x14
 4393 0665 01       		.uleb128 0x1
 4394 0666 50       		.byte	0x50
 4395 0667 01       		.uleb128 0x1
 4396 0668 30       		.byte	0x30
 4397 0669 00       		.byte	0
 4398 066a 13       		.uleb128 0x13
 4399 066b 64000000 		.4byte	.LVL21
 4400 066f 8C260000 		.4byte	0x268c
 4401 0673 7D060000 		.4byte	0x67d
 4402 0677 14       		.uleb128 0x14
 4403 0678 01       		.uleb128 0x1
 4404 0679 50       		.byte	0x50
 4405 067a 01       		.uleb128 0x1
 4406 067b 30       		.byte	0x30
 4407 067c 00       		.byte	0
 4408 067d 13       		.uleb128 0x13
 4409 067e 6A000000 		.4byte	.LVL22
 4410 0682 97260000 		.4byte	0x2697
 4411 0686 90060000 		.4byte	0x690
 4412 068a 14       		.uleb128 0x14
 4413 068b 01       		.uleb128 0x1
 4414 068c 50       		.byte	0x50
 4415 068d 01       		.uleb128 0x1
 4416 068e 30       		.byte	0x30
 4417 068f 00       		.byte	0
 4418 0690 13       		.uleb128 0x13
 4419 0691 70000000 		.4byte	.LVL23
 4420 0695 A2260000 		.4byte	0x26a2
 4421 0699 A3060000 		.4byte	0x6a3
 4422 069d 14       		.uleb128 0x14
 4423 069e 01       		.uleb128 0x1
 4424 069f 50       		.byte	0x50
 4425 06a0 01       		.uleb128 0x1
 4426 06a1 31       		.byte	0x31
 4427 06a2 00       		.byte	0
 4428 06a3 13       		.uleb128 0x13
 4429 06a4 76000000 		.4byte	.LVL24
 4430 06a8 AD260000 		.4byte	0x26ad
 4431 06ac B6060000 		.4byte	0x6b6
 4432 06b0 14       		.uleb128 0x14
 4433 06b1 01       		.uleb128 0x1
 4434 06b2 50       		.byte	0x50
 4435 06b3 01       		.uleb128 0x1
 4436 06b4 31       		.byte	0x31
 4437 06b5 00       		.byte	0
 4438 06b6 13       		.uleb128 0x13
ARM GAS  C:\Users\PRAJWA~1\AppData\Local\Temp\ccedcYia.s 			page 96


 4439 06b7 7E000000 		.4byte	.LVL27
 4440 06bb 8C260000 		.4byte	0x268c
 4441 06bf C9060000 		.4byte	0x6c9
 4442 06c3 14       		.uleb128 0x14
 4443 06c4 01       		.uleb128 0x1
 4444 06c5 50       		.byte	0x50
 4445 06c6 01       		.uleb128 0x1
 4446 06c7 30       		.byte	0x30
 4447 06c8 00       		.byte	0
 4448 06c9 13       		.uleb128 0x13
 4449 06ca 84000000 		.4byte	.LVL28
 4450 06ce 97260000 		.4byte	0x2697
 4451 06d2 DC060000 		.4byte	0x6dc
 4452 06d6 14       		.uleb128 0x14
 4453 06d7 01       		.uleb128 0x1
 4454 06d8 50       		.byte	0x50
 4455 06d9 01       		.uleb128 0x1
 4456 06da 31       		.byte	0x31
 4457 06db 00       		.byte	0
 4458 06dc 13       		.uleb128 0x13
 4459 06dd 8A000000 		.4byte	.LVL29
 4460 06e1 A2260000 		.4byte	0x26a2
 4461 06e5 EF060000 		.4byte	0x6ef
 4462 06e9 14       		.uleb128 0x14
 4463 06ea 01       		.uleb128 0x1
 4464 06eb 50       		.byte	0x50
 4465 06ec 01       		.uleb128 0x1
 4466 06ed 30       		.byte	0x30
 4467 06ee 00       		.byte	0
 4468 06ef 13       		.uleb128 0x13
 4469 06f0 90000000 		.4byte	.LVL30
 4470 06f4 AD260000 		.4byte	0x26ad
 4471 06f8 02070000 		.4byte	0x702
 4472 06fc 14       		.uleb128 0x14
 4473 06fd 01       		.uleb128 0x1
 4474 06fe 50       		.byte	0x50
 4475 06ff 01       		.uleb128 0x1
 4476 0700 30       		.byte	0x30
 4477 0701 00       		.byte	0
 4478 0702 13       		.uleb128 0x13
 4479 0703 98000000 		.4byte	.LVL33
 4480 0707 8C260000 		.4byte	0x268c
 4481 070b 15070000 		.4byte	0x715
 4482 070f 14       		.uleb128 0x14
 4483 0710 01       		.uleb128 0x1
 4484 0711 50       		.byte	0x50
 4485 0712 01       		.uleb128 0x1
 4486 0713 30       		.byte	0x30
 4487 0714 00       		.byte	0
 4488 0715 13       		.uleb128 0x13
 4489 0716 9E000000 		.4byte	.LVL34
 4490 071a 97260000 		.4byte	0x2697
 4491 071e 28070000 		.4byte	0x728
 4492 0722 14       		.uleb128 0x14
 4493 0723 01       		.uleb128 0x1
 4494 0724 50       		.byte	0x50
 4495 0725 01       		.uleb128 0x1
ARM GAS  C:\Users\PRAJWA~1\AppData\Local\Temp\ccedcYia.s 			page 97


 4496 0726 31       		.byte	0x31
 4497 0727 00       		.byte	0
 4498 0728 13       		.uleb128 0x13
 4499 0729 A4000000 		.4byte	.LVL35
 4500 072d A2260000 		.4byte	0x26a2
 4501 0731 3B070000 		.4byte	0x73b
 4502 0735 14       		.uleb128 0x14
 4503 0736 01       		.uleb128 0x1
 4504 0737 50       		.byte	0x50
 4505 0738 01       		.uleb128 0x1
 4506 0739 30       		.byte	0x30
 4507 073a 00       		.byte	0
 4508 073b 13       		.uleb128 0x13
 4509 073c AA000000 		.4byte	.LVL36
 4510 0740 AD260000 		.4byte	0x26ad
 4511 0744 4E070000 		.4byte	0x74e
 4512 0748 14       		.uleb128 0x14
 4513 0749 01       		.uleb128 0x1
 4514 074a 50       		.byte	0x50
 4515 074b 01       		.uleb128 0x1
 4516 074c 31       		.byte	0x31
 4517 074d 00       		.byte	0
 4518 074e 13       		.uleb128 0x13
 4519 074f B2000000 		.4byte	.LVL39
 4520 0753 8C260000 		.4byte	0x268c
 4521 0757 61070000 		.4byte	0x761
 4522 075b 14       		.uleb128 0x14
 4523 075c 01       		.uleb128 0x1
 4524 075d 50       		.byte	0x50
 4525 075e 01       		.uleb128 0x1
 4526 075f 30       		.byte	0x30
 4527 0760 00       		.byte	0
 4528 0761 13       		.uleb128 0x13
 4529 0762 B8000000 		.4byte	.LVL40
 4530 0766 97260000 		.4byte	0x2697
 4531 076a 74070000 		.4byte	0x774
 4532 076e 14       		.uleb128 0x14
 4533 076f 01       		.uleb128 0x1
 4534 0770 50       		.byte	0x50
 4535 0771 01       		.uleb128 0x1
 4536 0772 31       		.byte	0x31
 4537 0773 00       		.byte	0
 4538 0774 13       		.uleb128 0x13
 4539 0775 BE000000 		.4byte	.LVL41
 4540 0779 A2260000 		.4byte	0x26a2
 4541 077d 87070000 		.4byte	0x787
 4542 0781 14       		.uleb128 0x14
 4543 0782 01       		.uleb128 0x1
 4544 0783 50       		.byte	0x50
 4545 0784 01       		.uleb128 0x1
 4546 0785 31       		.byte	0x31
 4547 0786 00       		.byte	0
 4548 0787 13       		.uleb128 0x13
 4549 0788 C4000000 		.4byte	.LVL42
 4550 078c AD260000 		.4byte	0x26ad
 4551 0790 9A070000 		.4byte	0x79a
 4552 0794 14       		.uleb128 0x14
ARM GAS  C:\Users\PRAJWA~1\AppData\Local\Temp\ccedcYia.s 			page 98


 4553 0795 01       		.uleb128 0x1
 4554 0796 50       		.byte	0x50
 4555 0797 01       		.uleb128 0x1
 4556 0798 30       		.byte	0x30
 4557 0799 00       		.byte	0
 4558 079a 13       		.uleb128 0x13
 4559 079b CC000000 		.4byte	.LVL45
 4560 079f 8C260000 		.4byte	0x268c
 4561 07a3 AD070000 		.4byte	0x7ad
 4562 07a7 14       		.uleb128 0x14
 4563 07a8 01       		.uleb128 0x1
 4564 07a9 50       		.byte	0x50
 4565 07aa 01       		.uleb128 0x1
 4566 07ab 30       		.byte	0x30
 4567 07ac 00       		.byte	0
 4568 07ad 13       		.uleb128 0x13
 4569 07ae D2000000 		.4byte	.LVL46
 4570 07b2 97260000 		.4byte	0x2697
 4571 07b6 C0070000 		.4byte	0x7c0
 4572 07ba 14       		.uleb128 0x14
 4573 07bb 01       		.uleb128 0x1
 4574 07bc 50       		.byte	0x50
 4575 07bd 01       		.uleb128 0x1
 4576 07be 31       		.byte	0x31
 4577 07bf 00       		.byte	0
 4578 07c0 13       		.uleb128 0x13
 4579 07c1 D8000000 		.4byte	.LVL47
 4580 07c5 A2260000 		.4byte	0x26a2
 4581 07c9 D3070000 		.4byte	0x7d3
 4582 07cd 14       		.uleb128 0x14
 4583 07ce 01       		.uleb128 0x1
 4584 07cf 50       		.byte	0x50
 4585 07d0 01       		.uleb128 0x1
 4586 07d1 31       		.byte	0x31
 4587 07d2 00       		.byte	0
 4588 07d3 13       		.uleb128 0x13
 4589 07d4 DE000000 		.4byte	.LVL48
 4590 07d8 AD260000 		.4byte	0x26ad
 4591 07dc E6070000 		.4byte	0x7e6
 4592 07e0 14       		.uleb128 0x14
 4593 07e1 01       		.uleb128 0x1
 4594 07e2 50       		.byte	0x50
 4595 07e3 01       		.uleb128 0x1
 4596 07e4 31       		.byte	0x31
 4597 07e5 00       		.byte	0
 4598 07e6 13       		.uleb128 0x13
 4599 07e7 E6000000 		.4byte	.LVL51
 4600 07eb 8C260000 		.4byte	0x268c
 4601 07ef F9070000 		.4byte	0x7f9
 4602 07f3 14       		.uleb128 0x14
 4603 07f4 01       		.uleb128 0x1
 4604 07f5 50       		.byte	0x50
 4605 07f6 01       		.uleb128 0x1
 4606 07f7 31       		.byte	0x31
 4607 07f8 00       		.byte	0
 4608 07f9 13       		.uleb128 0x13
 4609 07fa EC000000 		.4byte	.LVL52
ARM GAS  C:\Users\PRAJWA~1\AppData\Local\Temp\ccedcYia.s 			page 99


 4610 07fe 97260000 		.4byte	0x2697
 4611 0802 0C080000 		.4byte	0x80c
 4612 0806 14       		.uleb128 0x14
 4613 0807 01       		.uleb128 0x1
 4614 0808 50       		.byte	0x50
 4615 0809 01       		.uleb128 0x1
 4616 080a 30       		.byte	0x30
 4617 080b 00       		.byte	0
 4618 080c 13       		.uleb128 0x13
 4619 080d F2000000 		.4byte	.LVL53
 4620 0811 A2260000 		.4byte	0x26a2
 4621 0815 1F080000 		.4byte	0x81f
 4622 0819 14       		.uleb128 0x14
 4623 081a 01       		.uleb128 0x1
 4624 081b 50       		.byte	0x50
 4625 081c 01       		.uleb128 0x1
 4626 081d 30       		.byte	0x30
 4627 081e 00       		.byte	0
 4628 081f 13       		.uleb128 0x13
 4629 0820 F8000000 		.4byte	.LVL54
 4630 0824 AD260000 		.4byte	0x26ad
 4631 0828 32080000 		.4byte	0x832
 4632 082c 14       		.uleb128 0x14
 4633 082d 01       		.uleb128 0x1
 4634 082e 50       		.byte	0x50
 4635 082f 01       		.uleb128 0x1
 4636 0830 30       		.byte	0x30
 4637 0831 00       		.byte	0
 4638 0832 13       		.uleb128 0x13
 4639 0833 00010000 		.4byte	.LVL57
 4640 0837 8C260000 		.4byte	0x268c
 4641 083b 45080000 		.4byte	0x845
 4642 083f 14       		.uleb128 0x14
 4643 0840 01       		.uleb128 0x1
 4644 0841 50       		.byte	0x50
 4645 0842 01       		.uleb128 0x1
 4646 0843 31       		.byte	0x31
 4647 0844 00       		.byte	0
 4648 0845 13       		.uleb128 0x13
 4649 0846 06010000 		.4byte	.LVL58
 4650 084a 97260000 		.4byte	0x2697
 4651 084e 58080000 		.4byte	0x858
 4652 0852 14       		.uleb128 0x14
 4653 0853 01       		.uleb128 0x1
 4654 0854 50       		.byte	0x50
 4655 0855 01       		.uleb128 0x1
 4656 0856 30       		.byte	0x30
 4657 0857 00       		.byte	0
 4658 0858 13       		.uleb128 0x13
 4659 0859 0C010000 		.4byte	.LVL59
 4660 085d A2260000 		.4byte	0x26a2
 4661 0861 6B080000 		.4byte	0x86b
 4662 0865 14       		.uleb128 0x14
 4663 0866 01       		.uleb128 0x1
 4664 0867 50       		.byte	0x50
 4665 0868 01       		.uleb128 0x1
 4666 0869 30       		.byte	0x30
ARM GAS  C:\Users\PRAJWA~1\AppData\Local\Temp\ccedcYia.s 			page 100


 4667 086a 00       		.byte	0
 4668 086b 13       		.uleb128 0x13
 4669 086c 12010000 		.4byte	.LVL60
 4670 0870 AD260000 		.4byte	0x26ad
 4671 0874 7E080000 		.4byte	0x87e
 4672 0878 14       		.uleb128 0x14
 4673 0879 01       		.uleb128 0x1
 4674 087a 50       		.byte	0x50
 4675 087b 01       		.uleb128 0x1
 4676 087c 31       		.byte	0x31
 4677 087d 00       		.byte	0
 4678 087e 13       		.uleb128 0x13
 4679 087f 1A010000 		.4byte	.LVL63
 4680 0883 8C260000 		.4byte	0x268c
 4681 0887 91080000 		.4byte	0x891
 4682 088b 14       		.uleb128 0x14
 4683 088c 01       		.uleb128 0x1
 4684 088d 50       		.byte	0x50
 4685 088e 01       		.uleb128 0x1
 4686 088f 31       		.byte	0x31
 4687 0890 00       		.byte	0
 4688 0891 13       		.uleb128 0x13
 4689 0892 20010000 		.4byte	.LVL64
 4690 0896 97260000 		.4byte	0x2697
 4691 089a A4080000 		.4byte	0x8a4
 4692 089e 14       		.uleb128 0x14
 4693 089f 01       		.uleb128 0x1
 4694 08a0 50       		.byte	0x50
 4695 08a1 01       		.uleb128 0x1
 4696 08a2 30       		.byte	0x30
 4697 08a3 00       		.byte	0
 4698 08a4 13       		.uleb128 0x13
 4699 08a5 26010000 		.4byte	.LVL65
 4700 08a9 A2260000 		.4byte	0x26a2
 4701 08ad B7080000 		.4byte	0x8b7
 4702 08b1 14       		.uleb128 0x14
 4703 08b2 01       		.uleb128 0x1
 4704 08b3 50       		.byte	0x50
 4705 08b4 01       		.uleb128 0x1
 4706 08b5 31       		.byte	0x31
 4707 08b6 00       		.byte	0
 4708 08b7 13       		.uleb128 0x13
 4709 08b8 2C010000 		.4byte	.LVL66
 4710 08bc AD260000 		.4byte	0x26ad
 4711 08c0 CA080000 		.4byte	0x8ca
 4712 08c4 14       		.uleb128 0x14
 4713 08c5 01       		.uleb128 0x1
 4714 08c6 50       		.byte	0x50
 4715 08c7 01       		.uleb128 0x1
 4716 08c8 30       		.byte	0x30
 4717 08c9 00       		.byte	0
 4718 08ca 13       		.uleb128 0x13
 4719 08cb 34010000 		.4byte	.LVL69
 4720 08cf 8C260000 		.4byte	0x268c
 4721 08d3 DD080000 		.4byte	0x8dd
 4722 08d7 14       		.uleb128 0x14
 4723 08d8 01       		.uleb128 0x1
ARM GAS  C:\Users\PRAJWA~1\AppData\Local\Temp\ccedcYia.s 			page 101


 4724 08d9 50       		.byte	0x50
 4725 08da 01       		.uleb128 0x1
 4726 08db 31       		.byte	0x31
 4727 08dc 00       		.byte	0
 4728 08dd 13       		.uleb128 0x13
 4729 08de 3A010000 		.4byte	.LVL70
 4730 08e2 97260000 		.4byte	0x2697
 4731 08e6 F0080000 		.4byte	0x8f0
 4732 08ea 14       		.uleb128 0x14
 4733 08eb 01       		.uleb128 0x1
 4734 08ec 50       		.byte	0x50
 4735 08ed 01       		.uleb128 0x1
 4736 08ee 30       		.byte	0x30
 4737 08ef 00       		.byte	0
 4738 08f0 13       		.uleb128 0x13
 4739 08f1 40010000 		.4byte	.LVL71
 4740 08f5 A2260000 		.4byte	0x26a2
 4741 08f9 03090000 		.4byte	0x903
 4742 08fd 14       		.uleb128 0x14
 4743 08fe 01       		.uleb128 0x1
 4744 08ff 50       		.byte	0x50
 4745 0900 01       		.uleb128 0x1
 4746 0901 31       		.byte	0x31
 4747 0902 00       		.byte	0
 4748 0903 13       		.uleb128 0x13
 4749 0904 46010000 		.4byte	.LVL72
 4750 0908 AD260000 		.4byte	0x26ad
 4751 090c 16090000 		.4byte	0x916
 4752 0910 14       		.uleb128 0x14
 4753 0911 01       		.uleb128 0x1
 4754 0912 50       		.byte	0x50
 4755 0913 01       		.uleb128 0x1
 4756 0914 31       		.byte	0x31
 4757 0915 00       		.byte	0
 4758 0916 13       		.uleb128 0x13
 4759 0917 4E010000 		.4byte	.LVL75
 4760 091b 8C260000 		.4byte	0x268c
 4761 091f 29090000 		.4byte	0x929
 4762 0923 14       		.uleb128 0x14
 4763 0924 01       		.uleb128 0x1
 4764 0925 50       		.byte	0x50
 4765 0926 01       		.uleb128 0x1
 4766 0927 31       		.byte	0x31
 4767 0928 00       		.byte	0
 4768 0929 13       		.uleb128 0x13
 4769 092a 54010000 		.4byte	.LVL76
 4770 092e 97260000 		.4byte	0x2697
 4771 0932 3C090000 		.4byte	0x93c
 4772 0936 14       		.uleb128 0x14
 4773 0937 01       		.uleb128 0x1
 4774 0938 50       		.byte	0x50
 4775 0939 01       		.uleb128 0x1
 4776 093a 31       		.byte	0x31
 4777 093b 00       		.byte	0
 4778 093c 13       		.uleb128 0x13
 4779 093d 5A010000 		.4byte	.LVL77
 4780 0941 A2260000 		.4byte	0x26a2
ARM GAS  C:\Users\PRAJWA~1\AppData\Local\Temp\ccedcYia.s 			page 102


 4781 0945 4F090000 		.4byte	0x94f
 4782 0949 14       		.uleb128 0x14
 4783 094a 01       		.uleb128 0x1
 4784 094b 50       		.byte	0x50
 4785 094c 01       		.uleb128 0x1
 4786 094d 30       		.byte	0x30
 4787 094e 00       		.byte	0
 4788 094f 13       		.uleb128 0x13
 4789 0950 60010000 		.4byte	.LVL78
 4790 0954 AD260000 		.4byte	0x26ad
 4791 0958 62090000 		.4byte	0x962
 4792 095c 14       		.uleb128 0x14
 4793 095d 01       		.uleb128 0x1
 4794 095e 50       		.byte	0x50
 4795 095f 01       		.uleb128 0x1
 4796 0960 30       		.byte	0x30
 4797 0961 00       		.byte	0
 4798 0962 13       		.uleb128 0x13
 4799 0963 68010000 		.4byte	.LVL81
 4800 0967 8C260000 		.4byte	0x268c
 4801 096b 75090000 		.4byte	0x975
 4802 096f 14       		.uleb128 0x14
 4803 0970 01       		.uleb128 0x1
 4804 0971 50       		.byte	0x50
 4805 0972 01       		.uleb128 0x1
 4806 0973 31       		.byte	0x31
 4807 0974 00       		.byte	0
 4808 0975 13       		.uleb128 0x13
 4809 0976 6E010000 		.4byte	.LVL82
 4810 097a 97260000 		.4byte	0x2697
 4811 097e 88090000 		.4byte	0x988
 4812 0982 14       		.uleb128 0x14
 4813 0983 01       		.uleb128 0x1
 4814 0984 50       		.byte	0x50
 4815 0985 01       		.uleb128 0x1
 4816 0986 31       		.byte	0x31
 4817 0987 00       		.byte	0
 4818 0988 13       		.uleb128 0x13
 4819 0989 74010000 		.4byte	.LVL83
 4820 098d A2260000 		.4byte	0x26a2
 4821 0991 9B090000 		.4byte	0x99b
 4822 0995 14       		.uleb128 0x14
 4823 0996 01       		.uleb128 0x1
 4824 0997 50       		.byte	0x50
 4825 0998 01       		.uleb128 0x1
 4826 0999 30       		.byte	0x30
 4827 099a 00       		.byte	0
 4828 099b 13       		.uleb128 0x13
 4829 099c 7A010000 		.4byte	.LVL84
 4830 09a0 AD260000 		.4byte	0x26ad
 4831 09a4 AE090000 		.4byte	0x9ae
 4832 09a8 14       		.uleb128 0x14
 4833 09a9 01       		.uleb128 0x1
 4834 09aa 50       		.byte	0x50
 4835 09ab 01       		.uleb128 0x1
 4836 09ac 31       		.byte	0x31
 4837 09ad 00       		.byte	0
ARM GAS  C:\Users\PRAJWA~1\AppData\Local\Temp\ccedcYia.s 			page 103


 4838 09ae 13       		.uleb128 0x13
 4839 09af 82010000 		.4byte	.LVL87
 4840 09b3 8C260000 		.4byte	0x268c
 4841 09b7 C1090000 		.4byte	0x9c1
 4842 09bb 14       		.uleb128 0x14
 4843 09bc 01       		.uleb128 0x1
 4844 09bd 50       		.byte	0x50
 4845 09be 01       		.uleb128 0x1
 4846 09bf 31       		.byte	0x31
 4847 09c0 00       		.byte	0
 4848 09c1 13       		.uleb128 0x13
 4849 09c2 88010000 		.4byte	.LVL88
 4850 09c6 97260000 		.4byte	0x2697
 4851 09ca D4090000 		.4byte	0x9d4
 4852 09ce 14       		.uleb128 0x14
 4853 09cf 01       		.uleb128 0x1
 4854 09d0 50       		.byte	0x50
 4855 09d1 01       		.uleb128 0x1
 4856 09d2 31       		.byte	0x31
 4857 09d3 00       		.byte	0
 4858 09d4 13       		.uleb128 0x13
 4859 09d5 8E010000 		.4byte	.LVL89
 4860 09d9 A2260000 		.4byte	0x26a2
 4861 09dd E7090000 		.4byte	0x9e7
 4862 09e1 14       		.uleb128 0x14
 4863 09e2 01       		.uleb128 0x1
 4864 09e3 50       		.byte	0x50
 4865 09e4 01       		.uleb128 0x1
 4866 09e5 31       		.byte	0x31
 4867 09e6 00       		.byte	0
 4868 09e7 13       		.uleb128 0x13
 4869 09e8 94010000 		.4byte	.LVL90
 4870 09ec AD260000 		.4byte	0x26ad
 4871 09f0 FA090000 		.4byte	0x9fa
 4872 09f4 14       		.uleb128 0x14
 4873 09f5 01       		.uleb128 0x1
 4874 09f6 50       		.byte	0x50
 4875 09f7 01       		.uleb128 0x1
 4876 09f8 30       		.byte	0x30
 4877 09f9 00       		.byte	0
 4878 09fa 13       		.uleb128 0x13
 4879 09fb 9C010000 		.4byte	.LVL93
 4880 09ff 8C260000 		.4byte	0x268c
 4881 0a03 0D0A0000 		.4byte	0xa0d
 4882 0a07 14       		.uleb128 0x14
 4883 0a08 01       		.uleb128 0x1
 4884 0a09 50       		.byte	0x50
 4885 0a0a 01       		.uleb128 0x1
 4886 0a0b 31       		.byte	0x31
 4887 0a0c 00       		.byte	0
 4888 0a0d 13       		.uleb128 0x13
 4889 0a0e A2010000 		.4byte	.LVL94
 4890 0a12 97260000 		.4byte	0x2697
 4891 0a16 200A0000 		.4byte	0xa20
 4892 0a1a 14       		.uleb128 0x14
 4893 0a1b 01       		.uleb128 0x1
 4894 0a1c 50       		.byte	0x50
ARM GAS  C:\Users\PRAJWA~1\AppData\Local\Temp\ccedcYia.s 			page 104


 4895 0a1d 01       		.uleb128 0x1
 4896 0a1e 31       		.byte	0x31
 4897 0a1f 00       		.byte	0
 4898 0a20 13       		.uleb128 0x13
 4899 0a21 A8010000 		.4byte	.LVL95
 4900 0a25 A2260000 		.4byte	0x26a2
 4901 0a29 330A0000 		.4byte	0xa33
 4902 0a2d 14       		.uleb128 0x14
 4903 0a2e 01       		.uleb128 0x1
 4904 0a2f 50       		.byte	0x50
 4905 0a30 01       		.uleb128 0x1
 4906 0a31 31       		.byte	0x31
 4907 0a32 00       		.byte	0
 4908 0a33 15       		.uleb128 0x15
 4909 0a34 AE010000 		.4byte	.LVL96
 4910 0a38 AD260000 		.4byte	0x26ad
 4911 0a3c 14       		.uleb128 0x14
 4912 0a3d 01       		.uleb128 0x1
 4913 0a3e 50       		.byte	0x50
 4914 0a3f 01       		.uleb128 0x1
 4915 0a40 31       		.byte	0x31
 4916 0a41 00       		.byte	0
 4917 0a42 00       		.byte	0
 4918 0a43 07       		.uleb128 0x7
 4919 0a44 04       		.byte	0x4
 4920 0a45 EC040000 		.4byte	0x4ec
 4921 0a49 11       		.uleb128 0x11
 4922 0a4a 96050000 		.4byte	.LASF90
 4923 0a4e 01       		.byte	0x1
 4924 0a4f A3       		.byte	0xa3
 4925 0a50 00000000 		.4byte	.LFB36
 4926 0a54 08000000 		.4byte	.LFE36-.LFB36
 4927 0a58 01       		.uleb128 0x1
 4928 0a59 9C       		.byte	0x9c
 4929 0a5a 7F0A0000 		.4byte	0xa7f
 4930 0a5e 12       		.uleb128 0x12
 4931 0a5f 76616C00 		.ascii	"val\000"
 4932 0a63 01       		.byte	0x1
 4933 0a64 A3       		.byte	0xa3
 4934 0a65 7E000000 		.4byte	0x7e
 4935 0a69 B9010000 		.4byte	.LLST2
 4936 0a6d 15       		.uleb128 0x15
 4937 0a6e 06000000 		.4byte	.LVL98
 4938 0a72 B8260000 		.4byte	0x26b8
 4939 0a76 14       		.uleb128 0x14
 4940 0a77 01       		.uleb128 0x1
 4941 0a78 50       		.byte	0x50
 4942 0a79 03       		.uleb128 0x3
 4943 0a7a F3       		.byte	0xf3
 4944 0a7b 01       		.uleb128 0x1
 4945 0a7c 50       		.byte	0x50
 4946 0a7d 00       		.byte	0
 4947 0a7e 00       		.byte	0
 4948 0a7f 11       		.uleb128 0x11
 4949 0a80 3A050000 		.4byte	.LASF91
 4950 0a84 01       		.byte	0x1
 4951 0a85 A7       		.byte	0xa7
ARM GAS  C:\Users\PRAJWA~1\AppData\Local\Temp\ccedcYia.s 			page 105


 4952 0a86 00000000 		.4byte	.LFB37
 4953 0a8a 2C000000 		.4byte	.LFE37-.LFB37
 4954 0a8e 01       		.uleb128 0x1
 4955 0a8f 9C       		.byte	0x9c
 4956 0a90 DE0A0000 		.4byte	0xade
 4957 0a94 12       		.uleb128 0x12
 4958 0a95 76616C00 		.ascii	"val\000"
 4959 0a99 01       		.byte	0x1
 4960 0a9a A7       		.byte	0xa7
 4961 0a9b AD000000 		.4byte	0xad
 4962 0a9f DA010000 		.4byte	.LLST3
 4963 0aa3 16       		.uleb128 0x16
 4964 0aa4 A9070000 		.4byte	.LASF94
 4965 0aa8 01       		.byte	0x1
 4966 0aa9 A8       		.byte	0xa8
 4967 0aaa B9000000 		.4byte	0xb9
 4968 0aae FB010000 		.4byte	.LLST4
 4969 0ab2 17       		.uleb128 0x17
 4970 0ab3 10000000 		.4byte	.LVL104
 4971 0ab7 C3260000 		.4byte	0x26c3
 4972 0abb 17       		.uleb128 0x17
 4973 0abc 1C000000 		.4byte	.LVL105
 4974 0ac0 CF260000 		.4byte	0x26cf
 4975 0ac4 17       		.uleb128 0x17
 4976 0ac5 20000000 		.4byte	.LVL106
 4977 0ac9 DB260000 		.4byte	0x26db
 4978 0acd 15       		.uleb128 0x15
 4979 0ace 26000000 		.4byte	.LVL107
 4980 0ad2 E7260000 		.4byte	0x26e7
 4981 0ad6 14       		.uleb128 0x14
 4982 0ad7 01       		.uleb128 0x1
 4983 0ad8 50       		.byte	0x50
 4984 0ad9 02       		.uleb128 0x2
 4985 0ada 75       		.byte	0x75
 4986 0adb 00       		.sleb128 0
 4987 0adc 00       		.byte	0
 4988 0add 00       		.byte	0
 4989 0ade 11       		.uleb128 0x11
 4990 0adf 18050000 		.4byte	.LASF92
 4991 0ae3 01       		.byte	0x1
 4992 0ae4 AF       		.byte	0xaf
 4993 0ae5 00000000 		.4byte	.LFB38
 4994 0ae9 0E000000 		.4byte	.LFE38-.LFB38
 4995 0aed 01       		.uleb128 0x1
 4996 0aee 9C       		.byte	0x9c
 4997 0aef 190B0000 		.4byte	0xb19
 4998 0af3 12       		.uleb128 0x12
 4999 0af4 7000     		.ascii	"p\000"
 5000 0af6 01       		.byte	0x1
 5001 0af7 AF       		.byte	0xaf
 5002 0af8 430A0000 		.4byte	0xa43
 5003 0afc 27020000 		.4byte	.LLST5
 5004 0b00 17       		.uleb128 0x17
 5005 0b01 06000000 		.4byte	.LVL110
 5006 0b05 F2260000 		.4byte	0x26f2
 5007 0b09 15       		.uleb128 0x15
 5008 0b0a 0C000000 		.4byte	.LVL111
ARM GAS  C:\Users\PRAJWA~1\AppData\Local\Temp\ccedcYia.s 			page 106


 5009 0b0e 7F0A0000 		.4byte	0xa7f
 5010 0b12 14       		.uleb128 0x14
 5011 0b13 01       		.uleb128 0x1
 5012 0b14 50       		.byte	0x50
 5013 0b15 01       		.uleb128 0x1
 5014 0b16 30       		.byte	0x30
 5015 0b17 00       		.byte	0
 5016 0b18 00       		.byte	0
 5017 0b19 18       		.uleb128 0x18
 5018 0b1a 55080000 		.4byte	.LASF97
 5019 0b1e 01       		.byte	0x1
 5020 0b1f B6       		.byte	0xb6
 5021 0b20 7E000000 		.4byte	0x7e
 5022 0b24 00000000 		.4byte	.LFB39
 5023 0b28 B4000000 		.4byte	.LFE39-.LFB39
 5024 0b2c 01       		.uleb128 0x1
 5025 0b2d 9C       		.byte	0x9c
 5026 0b2e 650C0000 		.4byte	0xc65
 5027 0b32 12       		.uleb128 0x12
 5028 0b33 7000     		.ascii	"p\000"
 5029 0b35 01       		.byte	0x1
 5030 0b36 B6       		.byte	0xb6
 5031 0b37 430A0000 		.4byte	0xa43
 5032 0b3b 48020000 		.4byte	.LLST6
 5033 0b3f 12       		.uleb128 0x12
 5034 0b40 636D6400 		.ascii	"cmd\000"
 5035 0b44 01       		.byte	0x1
 5036 0b45 B6       		.byte	0xb6
 5037 0b46 11010000 		.4byte	0x111
 5038 0b4a 69020000 		.4byte	.LLST7
 5039 0b4e 19       		.uleb128 0x19
 5040 0b4f 4C080000 		.4byte	.LASF93
 5041 0b53 01       		.byte	0x1
 5042 0b54 B6       		.byte	0xb6
 5043 0b55 11010000 		.4byte	0x111
 5044 0b59 95020000 		.4byte	.LLST8
 5045 0b5d 12       		.uleb128 0x12
 5046 0b5e 6C656E00 		.ascii	"len\000"
 5047 0b62 01       		.byte	0x1
 5048 0b63 B6       		.byte	0xb6
 5049 0b64 7E000000 		.4byte	0x7e
 5050 0b68 C1020000 		.4byte	.LLST9
 5051 0b6c 19       		.uleb128 0x19
 5052 0b6d A9070000 		.4byte	.LASF94
 5053 0b71 01       		.byte	0x1
 5054 0b72 B6       		.byte	0xb6
 5055 0b73 25000000 		.4byte	0x25
 5056 0b77 ED020000 		.4byte	.LLST10
 5057 0b7b 19       		.uleb128 0x19
 5058 0b7c B1070000 		.4byte	.LASF95
 5059 0b80 01       		.byte	0x1
 5060 0b81 B6       		.byte	0xb6
 5061 0b82 97000000 		.4byte	0x97
 5062 0b86 25030000 		.4byte	.LLST11
 5063 0b8a 1A       		.uleb128 0x1a
 5064 0b8b 6900     		.ascii	"i\000"
 5065 0b8d 01       		.byte	0x1
ARM GAS  C:\Users\PRAJWA~1\AppData\Local\Temp\ccedcYia.s 			page 107


 5066 0b8e BA       		.byte	0xba
 5067 0b8f 7E000000 		.4byte	0x7e
 5068 0b93 5D030000 		.4byte	.LLST12
 5069 0b97 16       		.uleb128 0x16
 5070 0b98 B5050000 		.4byte	.LASF96
 5071 0b9c 01       		.byte	0x1
 5072 0b9d BA       		.byte	0xba
 5073 0b9e 7E000000 		.4byte	0x7e
 5074 0ba2 9F030000 		.4byte	.LLST13
 5075 0ba6 1A       		.uleb128 0x1a
 5076 0ba7 70747200 		.ascii	"ptr\000"
 5077 0bab 01       		.byte	0x1
 5078 0bac BB       		.byte	0xbb
 5079 0bad 11010000 		.4byte	0x111
 5080 0bb1 E0030000 		.4byte	.LLST14
 5081 0bb5 1A       		.uleb128 0x1a
 5082 0bb6 746F00   		.ascii	"to\000"
 5083 0bb9 01       		.byte	0x1
 5084 0bba BC       		.byte	0xbc
 5085 0bbb 25000000 		.4byte	0x25
 5086 0bbf FE030000 		.4byte	.LLST15
 5087 0bc3 13       		.uleb128 0x13
 5088 0bc4 1C000000 		.4byte	.LVL116
 5089 0bc8 7F0A0000 		.4byte	0xa7f
 5090 0bcc D60B0000 		.4byte	0xbd6
 5091 0bd0 14       		.uleb128 0x14
 5092 0bd1 01       		.uleb128 0x1
 5093 0bd2 50       		.byte	0x50
 5094 0bd3 01       		.uleb128 0x1
 5095 0bd4 31       		.byte	0x31
 5096 0bd5 00       		.byte	0
 5097 0bd6 13       		.uleb128 0x13
 5098 0bd7 22000000 		.4byte	.LVL117
 5099 0bdb FD260000 		.4byte	0x26fd
 5100 0bdf EA0B0000 		.4byte	0xbea
 5101 0be3 14       		.uleb128 0x14
 5102 0be4 01       		.uleb128 0x1
 5103 0be5 50       		.byte	0x50
 5104 0be6 02       		.uleb128 0x2
 5105 0be7 76       		.byte	0x76
 5106 0be8 00       		.sleb128 0
 5107 0be9 00       		.byte	0
 5108 0bea 13       		.uleb128 0x13
 5109 0beb 2E000000 		.4byte	.LVL118
 5110 0bef 490A0000 		.4byte	0xa49
 5111 0bf3 FF0B0000 		.4byte	0xbff
 5112 0bf7 14       		.uleb128 0x14
 5113 0bf8 01       		.uleb128 0x1
 5114 0bf9 50       		.byte	0x50
 5115 0bfa 03       		.uleb128 0x3
 5116 0bfb 0A       		.byte	0xa
 5117 0bfc E803     		.2byte	0x3e8
 5118 0bfe 00       		.byte	0
 5119 0bff 17       		.uleb128 0x17
 5120 0c00 46000000 		.4byte	.LVL121
 5121 0c04 09270000 		.4byte	0x2709
 5122 0c08 17       		.uleb128 0x17
ARM GAS  C:\Users\PRAJWA~1\AppData\Local\Temp\ccedcYia.s 			page 108


 5123 0c09 56000000 		.4byte	.LVL122
 5124 0c0d 15270000 		.4byte	0x2715
 5125 0c11 13       		.uleb128 0x13
 5126 0c12 68000000 		.4byte	.LVL123
 5127 0c16 21270000 		.4byte	0x2721
 5128 0c1a 330C0000 		.4byte	0xc33
 5129 0c1e 14       		.uleb128 0x14
 5130 0c1f 01       		.uleb128 0x1
 5131 0c20 50       		.byte	0x50
 5132 0c21 02       		.uleb128 0x2
 5133 0c22 79       		.byte	0x79
 5134 0c23 7B       		.sleb128 -5
 5135 0c24 14       		.uleb128 0x14
 5136 0c25 01       		.uleb128 0x1
 5137 0c26 51       		.byte	0x51
 5138 0c27 05       		.uleb128 0x5
 5139 0c28 03       		.byte	0x3
 5140 0c29 00000000 		.4byte	.LC1
 5141 0c2d 14       		.uleb128 0x14
 5142 0c2e 01       		.uleb128 0x1
 5143 0c2f 52       		.byte	0x52
 5144 0c30 01       		.uleb128 0x1
 5145 0c31 36       		.byte	0x36
 5146 0c32 00       		.byte	0
 5147 0c33 13       		.uleb128 0x13
 5148 0c34 80000000 		.4byte	.LVL126
 5149 0c38 21270000 		.4byte	0x2721
 5150 0c3c 550C0000 		.4byte	0xc55
 5151 0c40 14       		.uleb128 0x14
 5152 0c41 01       		.uleb128 0x1
 5153 0c42 50       		.byte	0x50
 5154 0c43 02       		.uleb128 0x2
 5155 0c44 79       		.byte	0x79
 5156 0c45 78       		.sleb128 -8
 5157 0c46 14       		.uleb128 0x14
 5158 0c47 01       		.uleb128 0x1
 5159 0c48 51       		.byte	0x51
 5160 0c49 05       		.uleb128 0x5
 5161 0c4a 03       		.byte	0x3
 5162 0c4b 08000000 		.4byte	.LC3
 5163 0c4f 14       		.uleb128 0x14
 5164 0c50 01       		.uleb128 0x1
 5165 0c51 52       		.byte	0x52
 5166 0c52 01       		.uleb128 0x1
 5167 0c53 39       		.byte	0x39
 5168 0c54 00       		.byte	0
 5169 0c55 15       		.uleb128 0x15
 5170 0c56 9E000000 		.4byte	.LVL133
 5171 0c5a 7F0A0000 		.4byte	0xa7f
 5172 0c5e 14       		.uleb128 0x14
 5173 0c5f 01       		.uleb128 0x1
 5174 0c60 50       		.byte	0x50
 5175 0c61 01       		.uleb128 0x1
 5176 0c62 30       		.byte	0x30
 5177 0c63 00       		.byte	0
 5178 0c64 00       		.byte	0
 5179 0c65 18       		.uleb128 0x18
ARM GAS  C:\Users\PRAJWA~1\AppData\Local\Temp\ccedcYia.s 			page 109


 5180 0c66 44070000 		.4byte	.LASF98
 5181 0c6a 01       		.byte	0x1
 5182 0c6b D6       		.byte	0xd6
 5183 0c6c 7E000000 		.4byte	0x7e
 5184 0c70 00000000 		.4byte	.LFB40
 5185 0c74 68000000 		.4byte	.LFE40-.LFB40
 5186 0c78 01       		.uleb128 0x1
 5187 0c79 9C       		.byte	0x9c
 5188 0c7a 2A0D0000 		.4byte	0xd2a
 5189 0c7e 12       		.uleb128 0x12
 5190 0c7f 7000     		.ascii	"p\000"
 5191 0c81 01       		.byte	0x1
 5192 0c82 D6       		.byte	0xd6
 5193 0c83 430A0000 		.4byte	0xa43
 5194 0c87 16040000 		.4byte	.LLST16
 5195 0c8b 12       		.uleb128 0x12
 5196 0c8c 6D616300 		.ascii	"mac\000"
 5197 0c90 01       		.byte	0x1
 5198 0c91 D6       		.byte	0xd6
 5199 0c92 11010000 		.4byte	0x111
 5200 0c96 42040000 		.4byte	.LLST17
 5201 0c9a 16       		.uleb128 0x16
 5202 0c9b ED010000 		.4byte	.LASF99
 5203 0c9f 01       		.byte	0x1
 5204 0ca0 D8       		.byte	0xd8
 5205 0ca1 97000000 		.4byte	0x97
 5206 0ca5 6E040000 		.4byte	.LLST18
 5207 0ca9 1A       		.uleb128 0x1a
 5208 0caa 6A00     		.ascii	"j\000"
 5209 0cac 01       		.byte	0x1
 5210 0cad D8       		.byte	0xd8
 5211 0cae 97000000 		.4byte	0x97
 5212 0cb2 82040000 		.4byte	.LLST19
 5213 0cb6 1B       		.uleb128 0x1b
 5214 0cb7 636D6400 		.ascii	"cmd\000"
 5215 0cbb 01       		.byte	0x1
 5216 0cbc D9       		.byte	0xd9
 5217 0cbd DC040000 		.4byte	0x4dc
 5218 0cc1 02       		.uleb128 0x2
 5219 0cc2 91       		.byte	0x91
 5220 0cc3 54       		.sleb128 -44
 5221 0cc4 1C       		.uleb128 0x1c
 5222 0cc5 4C080000 		.4byte	.LASF93
 5223 0cc9 01       		.byte	0x1
 5224 0cca DA       		.byte	0xda
 5225 0ccb 2A0D0000 		.4byte	0xd2a
 5226 0ccf 03       		.uleb128 0x3
 5227 0cd0 91       		.byte	0x91
 5228 0cd1 907F     		.sleb128 -112
 5229 0cd3 1A       		.uleb128 0x1a
 5230 0cd4 70747200 		.ascii	"ptr\000"
 5231 0cd8 01       		.byte	0x1
 5232 0cd9 DB       		.byte	0xdb
 5233 0cda 11010000 		.4byte	0x111
 5234 0cde AC040000 		.4byte	.LLST20
 5235 0ce2 13       		.uleb128 0x13
 5236 0ce3 22000000 		.4byte	.LVL142
ARM GAS  C:\Users\PRAJWA~1\AppData\Local\Temp\ccedcYia.s 			page 110


 5237 0ce7 2C270000 		.4byte	0x272c
 5238 0ceb 000D0000 		.4byte	0xd00
 5239 0cef 14       		.uleb128 0x14
 5240 0cf0 01       		.uleb128 0x1
 5241 0cf1 50       		.byte	0x50
 5242 0cf2 02       		.uleb128 0x2
 5243 0cf3 91       		.byte	0x91
 5244 0cf4 61       		.sleb128 -31
 5245 0cf5 14       		.uleb128 0x14
 5246 0cf6 01       		.uleb128 0x1
 5247 0cf7 51       		.byte	0x51
 5248 0cf8 01       		.uleb128 0x1
 5249 0cf9 30       		.byte	0x30
 5250 0cfa 14       		.uleb128 0x14
 5251 0cfb 01       		.uleb128 0x1
 5252 0cfc 52       		.byte	0x52
 5253 0cfd 01       		.uleb128 0x1
 5254 0cfe 37       		.byte	0x37
 5255 0cff 00       		.byte	0
 5256 0d00 15       		.uleb128 0x15
 5257 0d01 3A000000 		.4byte	.LVL144
 5258 0d05 190B0000 		.4byte	0xb19
 5259 0d09 14       		.uleb128 0x14
 5260 0d0a 01       		.uleb128 0x1
 5261 0d0b 50       		.byte	0x50
 5262 0d0c 02       		.uleb128 0x2
 5263 0d0d 76       		.byte	0x76
 5264 0d0e 00       		.sleb128 0
 5265 0d0f 14       		.uleb128 0x14
 5266 0d10 01       		.uleb128 0x1
 5267 0d11 51       		.byte	0x51
 5268 0d12 02       		.uleb128 0x2
 5269 0d13 75       		.byte	0x75
 5270 0d14 00       		.sleb128 0
 5271 0d15 14       		.uleb128 0x14
 5272 0d16 01       		.uleb128 0x1
 5273 0d17 52       		.byte	0x52
 5274 0d18 03       		.uleb128 0x3
 5275 0d19 91       		.byte	0x91
 5276 0d1a 907F     		.sleb128 -112
 5277 0d1c 14       		.uleb128 0x14
 5278 0d1d 01       		.uleb128 0x1
 5279 0d1e 53       		.byte	0x53
 5280 0d1f 02       		.uleb128 0x2
 5281 0d20 08       		.byte	0x8
 5282 0d21 41       		.byte	0x41
 5283 0d22 14       		.uleb128 0x14
 5284 0d23 02       		.uleb128 0x2
 5285 0d24 7D       		.byte	0x7d
 5286 0d25 08       		.sleb128 8
 5287 0d26 01       		.uleb128 0x1
 5288 0d27 30       		.byte	0x30
 5289 0d28 00       		.byte	0
 5290 0d29 00       		.byte	0
 5291 0d2a 08       		.uleb128 0x8
 5292 0d2b DF000000 		.4byte	0xdf
 5293 0d2f 3A0D0000 		.4byte	0xd3a
ARM GAS  C:\Users\PRAJWA~1\AppData\Local\Temp\ccedcYia.s 			page 111


 5294 0d33 09       		.uleb128 0x9
 5295 0d34 0A010000 		.4byte	0x10a
 5296 0d38 40       		.byte	0x40
 5297 0d39 00       		.byte	0
 5298 0d3a 1D       		.uleb128 0x1d
 5299 0d3b E0000000 		.4byte	.LASF100
 5300 0d3f 01       		.byte	0x1
 5301 0d40 EF       		.byte	0xef
 5302 0d41 7E000000 		.4byte	0x7e
 5303 0d45 00000000 		.4byte	.LFB41
 5304 0d49 74000000 		.4byte	.LFE41-.LFB41
 5305 0d4d 01       		.uleb128 0x1
 5306 0d4e 9C       		.byte	0x9c
 5307 0d4f 070E0000 		.4byte	0xe07
 5308 0d53 12       		.uleb128 0x12
 5309 0d54 7000     		.ascii	"p\000"
 5310 0d56 01       		.byte	0x1
 5311 0d57 EF       		.byte	0xef
 5312 0d58 430A0000 		.4byte	0xa43
 5313 0d5c E6040000 		.4byte	.LLST21
 5314 0d60 16       		.uleb128 0x16
 5315 0d61 ED010000 		.4byte	.LASF99
 5316 0d65 01       		.byte	0x1
 5317 0d66 F1       		.byte	0xf1
 5318 0d67 8C000000 		.4byte	0x8c
 5319 0d6b 12050000 		.4byte	.LLST22
 5320 0d6f 1C       		.uleb128 0x1c
 5321 0d70 4C080000 		.4byte	.LASF93
 5322 0d74 01       		.byte	0x1
 5323 0d75 F2       		.byte	0xf2
 5324 0d76 070E0000 		.4byte	0xe07
 5325 0d7a 03       		.uleb128 0x3
 5326 0d7b 91       		.byte	0x91
 5327 0d7c B47F     		.sleb128 -76
 5328 0d7e 1A       		.uleb128 0x1a
 5329 0d7f 70747200 		.ascii	"ptr\000"
 5330 0d83 01       		.byte	0x1
 5331 0d84 F2       		.byte	0xf2
 5332 0d85 11010000 		.4byte	0x111
 5333 0d89 30050000 		.4byte	.LLST23
 5334 0d8d 1B       		.uleb128 0x1b
 5335 0d8e 636D6400 		.ascii	"cmd\000"
 5336 0d92 01       		.byte	0x1
 5337 0d93 F3       		.byte	0xf3
 5338 0d94 170E0000 		.4byte	0xe17
 5339 0d98 03       		.uleb128 0x3
 5340 0d99 91       		.byte	0x91
 5341 0d9a A07F     		.sleb128 -96
 5342 0d9c 13       		.uleb128 0x13
 5343 0d9d 26000000 		.4byte	.LVL156
 5344 0da1 2C270000 		.4byte	0x272c
 5345 0da5 BB0D0000 		.4byte	0xdbb
 5346 0da9 14       		.uleb128 0x14
 5347 0daa 01       		.uleb128 0x1
 5348 0dab 50       		.byte	0x50
 5349 0dac 03       		.uleb128 0x3
 5350 0dad 91       		.byte	0x91
ARM GAS  C:\Users\PRAJWA~1\AppData\Local\Temp\ccedcYia.s 			page 112


 5351 0dae AF7F     		.sleb128 -81
 5352 0db0 14       		.uleb128 0x14
 5353 0db1 01       		.uleb128 0x1
 5354 0db2 51       		.byte	0x51
 5355 0db3 01       		.uleb128 0x1
 5356 0db4 30       		.byte	0x30
 5357 0db5 14       		.uleb128 0x14
 5358 0db6 01       		.uleb128 0x1
 5359 0db7 52       		.byte	0x52
 5360 0db8 01       		.uleb128 0x1
 5361 0db9 33       		.byte	0x33
 5362 0dba 00       		.byte	0
 5363 0dbb 13       		.uleb128 0x13
 5364 0dbc 2E000000 		.4byte	.LVL157
 5365 0dc0 490A0000 		.4byte	0xa49
 5366 0dc4 D00D0000 		.4byte	0xdd0
 5367 0dc8 14       		.uleb128 0x14
 5368 0dc9 01       		.uleb128 0x1
 5369 0dca 50       		.byte	0x50
 5370 0dcb 03       		.uleb128 0x3
 5371 0dcc 0A       		.byte	0xa
 5372 0dcd E803     		.2byte	0x3e8
 5373 0dcf 00       		.byte	0
 5374 0dd0 13       		.uleb128 0x13
 5375 0dd1 46000000 		.4byte	.LVL158
 5376 0dd5 190B0000 		.4byte	0xb19
 5377 0dd9 FD0D0000 		.4byte	0xdfd
 5378 0ddd 14       		.uleb128 0x14
 5379 0dde 01       		.uleb128 0x1
 5380 0ddf 50       		.byte	0x50
 5381 0de0 02       		.uleb128 0x2
 5382 0de1 75       		.byte	0x75
 5383 0de2 00       		.sleb128 0
 5384 0de3 14       		.uleb128 0x14
 5385 0de4 01       		.uleb128 0x1
 5386 0de5 51       		.byte	0x51
 5387 0de6 02       		.uleb128 0x2
 5388 0de7 74       		.byte	0x74
 5389 0de8 00       		.sleb128 0
 5390 0de9 14       		.uleb128 0x14
 5391 0dea 01       		.uleb128 0x1
 5392 0deb 52       		.byte	0x52
 5393 0dec 03       		.uleb128 0x3
 5394 0ded 91       		.byte	0x91
 5395 0dee B47F     		.sleb128 -76
 5396 0df0 14       		.uleb128 0x14
 5397 0df1 01       		.uleb128 0x1
 5398 0df2 53       		.byte	0x53
 5399 0df3 02       		.uleb128 0x2
 5400 0df4 08       		.byte	0x8
 5401 0df5 3C       		.byte	0x3c
 5402 0df6 14       		.uleb128 0x14
 5403 0df7 02       		.uleb128 0x2
 5404 0df8 7D       		.byte	0x7d
 5405 0df9 08       		.sleb128 8
 5406 0dfa 01       		.uleb128 0x1
 5407 0dfb 30       		.byte	0x30
ARM GAS  C:\Users\PRAJWA~1\AppData\Local\Temp\ccedcYia.s 			page 113


 5408 0dfc 00       		.byte	0
 5409 0dfd 17       		.uleb128 0x17
 5410 0dfe 62000000 		.4byte	.LVL165
 5411 0e02 35270000 		.4byte	0x2735
 5412 0e06 00       		.byte	0
 5413 0e07 08       		.uleb128 0x8
 5414 0e08 DF000000 		.4byte	0xdf
 5415 0e0c 170E0000 		.4byte	0xe17
 5416 0e10 09       		.uleb128 0x9
 5417 0e11 0A010000 		.4byte	0x10a
 5418 0e15 3B       		.byte	0x3b
 5419 0e16 00       		.byte	0
 5420 0e17 08       		.uleb128 0x8
 5421 0e18 DF000000 		.4byte	0xdf
 5422 0e1c 270E0000 		.4byte	0xe27
 5423 0e20 09       		.uleb128 0x9
 5424 0e21 0A010000 		.4byte	0x10a
 5425 0e25 11       		.byte	0x11
 5426 0e26 00       		.byte	0
 5427 0e27 1E       		.uleb128 0x1e
 5428 0e28 50030000 		.4byte	.LASF101
 5429 0e2c 01       		.byte	0x1
 5430 0e2d 0201     		.2byte	0x102
 5431 0e2f 7E000000 		.4byte	0x7e
 5432 0e33 00000000 		.4byte	.LFB42
 5433 0e37 6C000000 		.4byte	.LFE42-.LFB42
 5434 0e3b 01       		.uleb128 0x1
 5435 0e3c 9C       		.byte	0x9c
 5436 0e3d 140F0000 		.4byte	0xf14
 5437 0e41 1F       		.uleb128 0x1f
 5438 0e42 7000     		.ascii	"p\000"
 5439 0e44 01       		.byte	0x1
 5440 0e45 0201     		.2byte	0x102
 5441 0e47 430A0000 		.4byte	0xa43
 5442 0e4b 68050000 		.4byte	.LLST24
 5443 0e4f 1F       		.uleb128 0x1f
 5444 0e50 76616C00 		.ascii	"val\000"
 5445 0e54 01       		.byte	0x1
 5446 0e55 0201     		.2byte	0x102
 5447 0e57 7E000000 		.4byte	0x7e
 5448 0e5b 94050000 		.4byte	.LLST25
 5449 0e5f 20       		.uleb128 0x20
 5450 0e60 4C080000 		.4byte	.LASF93
 5451 0e64 01       		.byte	0x1
 5452 0e65 0401     		.2byte	0x104
 5453 0e67 070E0000 		.4byte	0xe07
 5454 0e6b 03       		.uleb128 0x3
 5455 0e6c 91       		.byte	0x91
 5456 0e6d B47F     		.sleb128 -76
 5457 0e6f 21       		.uleb128 0x21
 5458 0e70 ED010000 		.4byte	.LASF99
 5459 0e74 01       		.byte	0x1
 5460 0e75 0501     		.2byte	0x105
 5461 0e77 7E000000 		.4byte	0x7e
 5462 0e7b C0050000 		.4byte	.LLST26
 5463 0e7f 20       		.uleb128 0x20
 5464 0e80 C1000000 		.4byte	.LASF102
ARM GAS  C:\Users\PRAJWA~1\AppData\Local\Temp\ccedcYia.s 			page 114


 5465 0e84 01       		.byte	0x1
 5466 0e85 0601     		.2byte	0x106
 5467 0e87 DC040000 		.4byte	0x4dc
 5468 0e8b 03       		.uleb128 0x3
 5469 0e8c 91       		.byte	0x91
 5470 0e8d A07F     		.sleb128 -96
 5471 0e8f 22       		.uleb128 0x22
 5472 0e90 636D6400 		.ascii	"cmd\000"
 5473 0e94 01       		.byte	0x1
 5474 0e95 0601     		.2byte	0x106
 5475 0e97 140F0000 		.4byte	0xf14
 5476 0e9b 03       		.uleb128 0x3
 5477 0e9c 91       		.byte	0x91
 5478 0e9d 907F     		.sleb128 -112
 5479 0e9f 13       		.uleb128 0x13
 5480 0ea0 22000000 		.4byte	.LVL170
 5481 0ea4 2C270000 		.4byte	0x272c
 5482 0ea8 BE0E0000 		.4byte	0xebe
 5483 0eac 14       		.uleb128 0x14
 5484 0ead 01       		.uleb128 0x1
 5485 0eae 50       		.byte	0x50
 5486 0eaf 03       		.uleb128 0x3
 5487 0eb0 91       		.byte	0x91
 5488 0eb1 9D7F     		.sleb128 -99
 5489 0eb3 14       		.uleb128 0x14
 5490 0eb4 01       		.uleb128 0x1
 5491 0eb5 51       		.byte	0x51
 5492 0eb6 01       		.uleb128 0x1
 5493 0eb7 30       		.byte	0x30
 5494 0eb8 14       		.uleb128 0x14
 5495 0eb9 01       		.uleb128 0x1
 5496 0eba 52       		.byte	0x52
 5497 0ebb 01       		.uleb128 0x1
 5498 0ebc 32       		.byte	0x32
 5499 0ebd 00       		.byte	0
 5500 0ebe 13       		.uleb128 0x13
 5501 0ebf 32000000 		.4byte	.LVL171
 5502 0ec3 40270000 		.4byte	0x2740
 5503 0ec7 E90E0000 		.4byte	0xee9
 5504 0ecb 14       		.uleb128 0x14
 5505 0ecc 01       		.uleb128 0x1
 5506 0ecd 50       		.byte	0x50
 5507 0ece 03       		.uleb128 0x3
 5508 0ecf 91       		.byte	0x91
 5509 0ed0 A07F     		.sleb128 -96
 5510 0ed2 14       		.uleb128 0x14
 5511 0ed3 01       		.uleb128 0x1
 5512 0ed4 51       		.byte	0x51
 5513 0ed5 05       		.uleb128 0x5
 5514 0ed6 03       		.byte	0x3
 5515 0ed7 14000000 		.4byte	.LC11
 5516 0edb 14       		.uleb128 0x14
 5517 0edc 01       		.uleb128 0x1
 5518 0edd 52       		.byte	0x52
 5519 0ede 03       		.uleb128 0x3
 5520 0edf 91       		.byte	0x91
 5521 0ee0 907F     		.sleb128 -112
ARM GAS  C:\Users\PRAJWA~1\AppData\Local\Temp\ccedcYia.s 			page 115


 5522 0ee2 14       		.uleb128 0x14
 5523 0ee3 01       		.uleb128 0x1
 5524 0ee4 53       		.byte	0x53
 5525 0ee5 02       		.uleb128 0x2
 5526 0ee6 74       		.byte	0x74
 5527 0ee7 00       		.sleb128 0
 5528 0ee8 00       		.byte	0
 5529 0ee9 15       		.uleb128 0x15
 5530 0eea 4A000000 		.4byte	.LVL172
 5531 0eee 190B0000 		.4byte	0xb19
 5532 0ef2 14       		.uleb128 0x14
 5533 0ef3 01       		.uleb128 0x1
 5534 0ef4 50       		.byte	0x50
 5535 0ef5 02       		.uleb128 0x2
 5536 0ef6 75       		.byte	0x75
 5537 0ef7 00       		.sleb128 0
 5538 0ef8 14       		.uleb128 0x14
 5539 0ef9 01       		.uleb128 0x1
 5540 0efa 51       		.byte	0x51
 5541 0efb 03       		.uleb128 0x3
 5542 0efc 91       		.byte	0x91
 5543 0efd A07F     		.sleb128 -96
 5544 0eff 14       		.uleb128 0x14
 5545 0f00 01       		.uleb128 0x1
 5546 0f01 52       		.byte	0x52
 5547 0f02 03       		.uleb128 0x3
 5548 0f03 91       		.byte	0x91
 5549 0f04 B47F     		.sleb128 -76
 5550 0f06 14       		.uleb128 0x14
 5551 0f07 01       		.uleb128 0x1
 5552 0f08 53       		.byte	0x53
 5553 0f09 02       		.uleb128 0x2
 5554 0f0a 08       		.byte	0x8
 5555 0f0b 3C       		.byte	0x3c
 5556 0f0c 14       		.uleb128 0x14
 5557 0f0d 02       		.uleb128 0x2
 5558 0f0e 7D       		.byte	0x7d
 5559 0f0f 08       		.sleb128 8
 5560 0f10 01       		.uleb128 0x1
 5561 0f11 30       		.byte	0x30
 5562 0f12 00       		.byte	0
 5563 0f13 00       		.byte	0
 5564 0f14 08       		.uleb128 0x8
 5565 0f15 DF000000 		.4byte	0xdf
 5566 0f19 240F0000 		.4byte	0xf24
 5567 0f1d 09       		.uleb128 0x9
 5568 0f1e 0A010000 		.4byte	0x10a
 5569 0f22 0E       		.byte	0xe
 5570 0f23 00       		.byte	0
 5571 0f24 1E       		.uleb128 0x1e
 5572 0f25 C8000000 		.4byte	.LASF103
 5573 0f29 01       		.byte	0x1
 5574 0f2a 1201     		.2byte	0x112
 5575 0f2c 7E000000 		.4byte	0x7e
 5576 0f30 00000000 		.4byte	.LFB43
 5577 0f34 58000000 		.4byte	.LFE43-.LFB43
 5578 0f38 01       		.uleb128 0x1
ARM GAS  C:\Users\PRAJWA~1\AppData\Local\Temp\ccedcYia.s 			page 116


 5579 0f39 9C       		.byte	0x9c
 5580 0f3a DF0F0000 		.4byte	0xfdf
 5581 0f3e 1F       		.uleb128 0x1f
 5582 0f3f 7000     		.ascii	"p\000"
 5583 0f41 01       		.byte	0x1
 5584 0f42 1201     		.2byte	0x112
 5585 0f44 430A0000 		.4byte	0xa43
 5586 0f48 DE050000 		.4byte	.LLST27
 5587 0f4c 23       		.uleb128 0x23
 5588 0f4d ED010000 		.4byte	.LASF99
 5589 0f51 01       		.byte	0x1
 5590 0f52 1401     		.2byte	0x114
 5591 0f54 97000000 		.4byte	0x97
 5592 0f58 24       		.uleb128 0x24
 5593 0f59 6900     		.ascii	"i\000"
 5594 0f5b 01       		.byte	0x1
 5595 0f5c 1401     		.2byte	0x114
 5596 0f5e 97000000 		.4byte	0x97
 5597 0f62 20       		.uleb128 0x20
 5598 0f63 4C080000 		.4byte	.LASF93
 5599 0f67 01       		.byte	0x1
 5600 0f68 1501     		.2byte	0x115
 5601 0f6a DF0F0000 		.4byte	0xfdf
 5602 0f6e 02       		.uleb128 0x2
 5603 0f6f 91       		.byte	0x91
 5604 0f70 48       		.sleb128 -56
 5605 0f71 25       		.uleb128 0x25
 5606 0f72 70747200 		.ascii	"ptr\000"
 5607 0f76 01       		.byte	0x1
 5608 0f77 1501     		.2byte	0x115
 5609 0f79 11010000 		.4byte	0x111
 5610 0f7d 0A060000 		.4byte	.LLST28
 5611 0f81 22       		.uleb128 0x22
 5612 0f82 636D6400 		.ascii	"cmd\000"
 5613 0f86 01       		.byte	0x1
 5614 0f87 1601     		.2byte	0x116
 5615 0f89 140F0000 		.4byte	0xf14
 5616 0f8d 03       		.uleb128 0x3
 5617 0f8e 91       		.byte	0x91
 5618 0f8f B87F     		.sleb128 -72
 5619 0f91 13       		.uleb128 0x13
 5620 0f92 20000000 		.4byte	.LVL180
 5621 0f96 FD260000 		.4byte	0x26fd
 5622 0f9a A80F0000 		.4byte	0xfa8
 5623 0f9e 14       		.uleb128 0x14
 5624 0f9f 01       		.uleb128 0x1
 5625 0fa0 50       		.byte	0x50
 5626 0fa1 05       		.uleb128 0x5
 5627 0fa2 03       		.byte	0x3
 5628 0fa3 1C000000 		.4byte	.LC15
 5629 0fa7 00       		.byte	0
 5630 0fa8 13       		.uleb128 0x13
 5631 0fa9 36000000 		.4byte	.LVL181
 5632 0fad 190B0000 		.4byte	0xb19
 5633 0fb1 D50F0000 		.4byte	0xfd5
 5634 0fb5 14       		.uleb128 0x14
 5635 0fb6 01       		.uleb128 0x1
ARM GAS  C:\Users\PRAJWA~1\AppData\Local\Temp\ccedcYia.s 			page 117


 5636 0fb7 50       		.byte	0x50
 5637 0fb8 02       		.uleb128 0x2
 5638 0fb9 75       		.byte	0x75
 5639 0fba 00       		.sleb128 0
 5640 0fbb 14       		.uleb128 0x14
 5641 0fbc 01       		.uleb128 0x1
 5642 0fbd 51       		.byte	0x51
 5643 0fbe 02       		.uleb128 0x2
 5644 0fbf 74       		.byte	0x74
 5645 0fc0 00       		.sleb128 0
 5646 0fc1 14       		.uleb128 0x14
 5647 0fc2 01       		.uleb128 0x1
 5648 0fc3 52       		.byte	0x52
 5649 0fc4 02       		.uleb128 0x2
 5650 0fc5 91       		.byte	0x91
 5651 0fc6 48       		.sleb128 -56
 5652 0fc7 14       		.uleb128 0x14
 5653 0fc8 01       		.uleb128 0x1
 5654 0fc9 53       		.byte	0x53
 5655 0fca 02       		.uleb128 0x2
 5656 0fcb 08       		.byte	0x8
 5657 0fcc 28       		.byte	0x28
 5658 0fcd 14       		.uleb128 0x14
 5659 0fce 02       		.uleb128 0x2
 5660 0fcf 7D       		.byte	0x7d
 5661 0fd0 08       		.sleb128 8
 5662 0fd1 02       		.uleb128 0x2
 5663 0fd2 76       		.byte	0x76
 5664 0fd3 00       		.sleb128 0
 5665 0fd4 00       		.byte	0
 5666 0fd5 17       		.uleb128 0x17
 5667 0fd6 48000000 		.4byte	.LVL185
 5668 0fda 4B270000 		.4byte	0x274b
 5669 0fde 00       		.byte	0
 5670 0fdf 08       		.uleb128 0x8
 5671 0fe0 DF000000 		.4byte	0xdf
 5672 0fe4 EF0F0000 		.4byte	0xfef
 5673 0fe8 09       		.uleb128 0x9
 5674 0fe9 0A010000 		.4byte	0x10a
 5675 0fed 27       		.byte	0x27
 5676 0fee 00       		.byte	0
 5677 0fef 1E       		.uleb128 0x1e
 5678 0ff0 2F010000 		.4byte	.LASF104
 5679 0ff4 01       		.byte	0x1
 5680 0ff5 2401     		.2byte	0x124
 5681 0ff7 7E000000 		.4byte	0x7e
 5682 0ffb 00000000 		.4byte	.LFB44
 5683 0fff 74000000 		.4byte	.LFE44-.LFB44
 5684 1003 01       		.uleb128 0x1
 5685 1004 9C       		.byte	0x9c
 5686 1005 CC100000 		.4byte	0x10cc
 5687 1009 1F       		.uleb128 0x1f
 5688 100a 7000     		.ascii	"p\000"
 5689 100c 01       		.byte	0x1
 5690 100d 2401     		.2byte	0x124
 5691 100f 430A0000 		.4byte	0xa43
 5692 1013 2A060000 		.4byte	.LLST29
ARM GAS  C:\Users\PRAJWA~1\AppData\Local\Temp\ccedcYia.s 			page 118


 5693 1017 21       		.uleb128 0x21
 5694 1018 E0030000 		.4byte	.LASF57
 5695 101c 01       		.byte	0x1
 5696 101d 2601     		.2byte	0x126
 5697 101f 7E000000 		.4byte	0x7e
 5698 1023 56060000 		.4byte	.LLST30
 5699 1027 20       		.uleb128 0x20
 5700 1028 4C080000 		.4byte	.LASF93
 5701 102c 01       		.byte	0x1
 5702 102d 2A01     		.2byte	0x12a
 5703 102f 17010000 		.4byte	0x117
 5704 1033 02       		.uleb128 0x2
 5705 1034 91       		.byte	0x91
 5706 1035 54       		.sleb128 -44
 5707 1036 25       		.uleb128 0x25
 5708 1037 70747200 		.ascii	"ptr\000"
 5709 103b 01       		.byte	0x1
 5710 103c 2A01     		.2byte	0x12a
 5711 103e 11010000 		.4byte	0x111
 5712 1042 74060000 		.4byte	.LLST31
 5713 1046 21       		.uleb128 0x21
 5714 1047 ED010000 		.4byte	.LASF99
 5715 104b 01       		.byte	0x1
 5716 104c 2B01     		.2byte	0x12b
 5717 104e 7E000000 		.4byte	0x7e
 5718 1052 AC060000 		.4byte	.LLST32
 5719 1056 22       		.uleb128 0x22
 5720 1057 636D6400 		.ascii	"cmd\000"
 5721 105b 01       		.byte	0x1
 5722 105c 2C01     		.2byte	0x12c
 5723 105e 170E0000 		.4byte	0xe17
 5724 1062 02       		.uleb128 0x2
 5725 1063 91       		.byte	0x91
 5726 1064 40       		.sleb128 -64
 5727 1065 13       		.uleb128 0x13
 5728 1066 0A000000 		.4byte	.LVL188
 5729 106a 240F0000 		.4byte	0xf24
 5730 106e 79100000 		.4byte	0x1079
 5731 1072 14       		.uleb128 0x14
 5732 1073 01       		.uleb128 0x1
 5733 1074 50       		.byte	0x50
 5734 1075 02       		.uleb128 0x2
 5735 1076 75       		.byte	0x75
 5736 1077 00       		.sleb128 0
 5737 1078 00       		.byte	0
 5738 1079 13       		.uleb128 0x13
 5739 107a 2E000000 		.4byte	.LVL190
 5740 107e 2C270000 		.4byte	0x272c
 5741 1082 97100000 		.4byte	0x1097
 5742 1086 14       		.uleb128 0x14
 5743 1087 01       		.uleb128 0x1
 5744 1088 50       		.byte	0x50
 5745 1089 02       		.uleb128 0x2
 5746 108a 91       		.byte	0x91
 5747 108b 4F       		.sleb128 -49
 5748 108c 14       		.uleb128 0x14
 5749 108d 01       		.uleb128 0x1
ARM GAS  C:\Users\PRAJWA~1\AppData\Local\Temp\ccedcYia.s 			page 119


 5750 108e 51       		.byte	0x51
 5751 108f 01       		.uleb128 0x1
 5752 1090 30       		.byte	0x30
 5753 1091 14       		.uleb128 0x14
 5754 1092 01       		.uleb128 0x1
 5755 1093 52       		.byte	0x52
 5756 1094 01       		.uleb128 0x1
 5757 1095 33       		.byte	0x33
 5758 1096 00       		.byte	0
 5759 1097 13       		.uleb128 0x13
 5760 1098 46000000 		.4byte	.LVL191
 5761 109c 190B0000 		.4byte	0xb19
 5762 10a0 C2100000 		.4byte	0x10c2
 5763 10a4 14       		.uleb128 0x14
 5764 10a5 01       		.uleb128 0x1
 5765 10a6 50       		.byte	0x50
 5766 10a7 02       		.uleb128 0x2
 5767 10a8 75       		.byte	0x75
 5768 10a9 00       		.sleb128 0
 5769 10aa 14       		.uleb128 0x14
 5770 10ab 01       		.uleb128 0x1
 5771 10ac 51       		.byte	0x51
 5772 10ad 02       		.uleb128 0x2
 5773 10ae 74       		.byte	0x74
 5774 10af 00       		.sleb128 0
 5775 10b0 14       		.uleb128 0x14
 5776 10b1 01       		.uleb128 0x1
 5777 10b2 52       		.byte	0x52
 5778 10b3 02       		.uleb128 0x2
 5779 10b4 91       		.byte	0x91
 5780 10b5 54       		.sleb128 -44
 5781 10b6 14       		.uleb128 0x14
 5782 10b7 01       		.uleb128 0x1
 5783 10b8 53       		.byte	0x53
 5784 10b9 01       		.uleb128 0x1
 5785 10ba 49       		.byte	0x49
 5786 10bb 14       		.uleb128 0x14
 5787 10bc 02       		.uleb128 0x2
 5788 10bd 7D       		.byte	0x7d
 5789 10be 08       		.sleb128 8
 5790 10bf 01       		.uleb128 0x1
 5791 10c0 30       		.byte	0x30
 5792 10c1 00       		.byte	0
 5793 10c2 17       		.uleb128 0x17
 5794 10c3 62000000 		.4byte	.LVL198
 5795 10c7 4B270000 		.4byte	0x274b
 5796 10cb 00       		.byte	0
 5797 10cc 1E       		.uleb128 0x1e
 5798 10cd 78000000 		.4byte	.LASF105
 5799 10d1 01       		.byte	0x1
 5800 10d2 3901     		.2byte	0x139
 5801 10d4 7E000000 		.4byte	0x7e
 5802 10d8 00000000 		.4byte	.LFB45
 5803 10dc 74000000 		.4byte	.LFE45-.LFB45
 5804 10e0 01       		.uleb128 0x1
 5805 10e1 9C       		.byte	0x9c
 5806 10e2 AA110000 		.4byte	0x11aa
ARM GAS  C:\Users\PRAJWA~1\AppData\Local\Temp\ccedcYia.s 			page 120


 5807 10e6 1F       		.uleb128 0x1f
 5808 10e7 7000     		.ascii	"p\000"
 5809 10e9 01       		.byte	0x1
 5810 10ea 3901     		.2byte	0x139
 5811 10ec 430A0000 		.4byte	0xa43
 5812 10f0 CA060000 		.4byte	.LLST33
 5813 10f4 21       		.uleb128 0x21
 5814 10f5 E0030000 		.4byte	.LASF57
 5815 10f9 01       		.byte	0x1
 5816 10fa 3B01     		.2byte	0x13b
 5817 10fc 7E000000 		.4byte	0x7e
 5818 1100 F6060000 		.4byte	.LLST34
 5819 1104 20       		.uleb128 0x20
 5820 1105 4C080000 		.4byte	.LASF93
 5821 1109 01       		.byte	0x1
 5822 110a 3F01     		.2byte	0x13f
 5823 110c 17010000 		.4byte	0x117
 5824 1110 02       		.uleb128 0x2
 5825 1111 91       		.byte	0x91
 5826 1112 54       		.sleb128 -44
 5827 1113 25       		.uleb128 0x25
 5828 1114 70747200 		.ascii	"ptr\000"
 5829 1118 01       		.byte	0x1
 5830 1119 3F01     		.2byte	0x13f
 5831 111b 11010000 		.4byte	0x111
 5832 111f 14070000 		.4byte	.LLST35
 5833 1123 21       		.uleb128 0x21
 5834 1124 ED010000 		.4byte	.LASF99
 5835 1128 01       		.byte	0x1
 5836 1129 4001     		.2byte	0x140
 5837 112b 7E000000 		.4byte	0x7e
 5838 112f 4C070000 		.4byte	.LLST36
 5839 1133 22       		.uleb128 0x22
 5840 1134 636D6400 		.ascii	"cmd\000"
 5841 1138 01       		.byte	0x1
 5842 1139 4101     		.2byte	0x141
 5843 113b 170E0000 		.4byte	0xe17
 5844 113f 02       		.uleb128 0x2
 5845 1140 91       		.byte	0x91
 5846 1141 40       		.sleb128 -64
 5847 1142 13       		.uleb128 0x13
 5848 1143 0A000000 		.4byte	.LVL203
 5849 1147 240F0000 		.4byte	0xf24
 5850 114b 56110000 		.4byte	0x1156
 5851 114f 14       		.uleb128 0x14
 5852 1150 01       		.uleb128 0x1
 5853 1151 50       		.byte	0x50
 5854 1152 02       		.uleb128 0x2
 5855 1153 75       		.byte	0x75
 5856 1154 00       		.sleb128 0
 5857 1155 00       		.byte	0
 5858 1156 13       		.uleb128 0x13
 5859 1157 2E000000 		.4byte	.LVL205
 5860 115b 2C270000 		.4byte	0x272c
 5861 115f 74110000 		.4byte	0x1174
 5862 1163 14       		.uleb128 0x14
 5863 1164 01       		.uleb128 0x1
ARM GAS  C:\Users\PRAJWA~1\AppData\Local\Temp\ccedcYia.s 			page 121


 5864 1165 50       		.byte	0x50
 5865 1166 02       		.uleb128 0x2
 5866 1167 91       		.byte	0x91
 5867 1168 4F       		.sleb128 -49
 5868 1169 14       		.uleb128 0x14
 5869 116a 01       		.uleb128 0x1
 5870 116b 51       		.byte	0x51
 5871 116c 01       		.uleb128 0x1
 5872 116d 30       		.byte	0x30
 5873 116e 14       		.uleb128 0x14
 5874 116f 01       		.uleb128 0x1
 5875 1170 52       		.byte	0x52
 5876 1171 01       		.uleb128 0x1
 5877 1172 33       		.byte	0x33
 5878 1173 00       		.byte	0
 5879 1174 13       		.uleb128 0x13
 5880 1175 46000000 		.4byte	.LVL206
 5881 1179 190B0000 		.4byte	0xb19
 5882 117d A0110000 		.4byte	0x11a0
 5883 1181 14       		.uleb128 0x14
 5884 1182 01       		.uleb128 0x1
 5885 1183 50       		.byte	0x50
 5886 1184 02       		.uleb128 0x2
 5887 1185 75       		.byte	0x75
 5888 1186 00       		.sleb128 0
 5889 1187 14       		.uleb128 0x14
 5890 1188 01       		.uleb128 0x1
 5891 1189 51       		.byte	0x51
 5892 118a 02       		.uleb128 0x2
 5893 118b 74       		.byte	0x74
 5894 118c 00       		.sleb128 0
 5895 118d 14       		.uleb128 0x14
 5896 118e 01       		.uleb128 0x1
 5897 118f 52       		.byte	0x52
 5898 1190 02       		.uleb128 0x2
 5899 1191 91       		.byte	0x91
 5900 1192 54       		.sleb128 -44
 5901 1193 14       		.uleb128 0x14
 5902 1194 01       		.uleb128 0x1
 5903 1195 53       		.byte	0x53
 5904 1196 02       		.uleb128 0x2
 5905 1197 08       		.byte	0x8
 5906 1198 64       		.byte	0x64
 5907 1199 14       		.uleb128 0x14
 5908 119a 02       		.uleb128 0x2
 5909 119b 7D       		.byte	0x7d
 5910 119c 08       		.sleb128 8
 5911 119d 01       		.uleb128 0x1
 5912 119e 30       		.byte	0x30
 5913 119f 00       		.byte	0
 5914 11a0 17       		.uleb128 0x17
 5915 11a1 62000000 		.4byte	.LVL213
 5916 11a5 4B270000 		.4byte	0x274b
 5917 11a9 00       		.byte	0
 5918 11aa 1E       		.uleb128 0x1e
 5919 11ab 44060000 		.4byte	.LASF106
 5920 11af 01       		.byte	0x1
ARM GAS  C:\Users\PRAJWA~1\AppData\Local\Temp\ccedcYia.s 			page 122


 5921 11b0 4E01     		.2byte	0x14e
 5922 11b2 7E000000 		.4byte	0x7e
 5923 11b6 00000000 		.4byte	.LFB46
 5924 11ba 74000000 		.4byte	.LFE46-.LFB46
 5925 11be 01       		.uleb128 0x1
 5926 11bf 9C       		.byte	0x9c
 5927 11c0 87120000 		.4byte	0x1287
 5928 11c4 1F       		.uleb128 0x1f
 5929 11c5 7000     		.ascii	"p\000"
 5930 11c7 01       		.byte	0x1
 5931 11c8 4E01     		.2byte	0x14e
 5932 11ca 430A0000 		.4byte	0xa43
 5933 11ce 6A070000 		.4byte	.LLST37
 5934 11d2 21       		.uleb128 0x21
 5935 11d3 E0030000 		.4byte	.LASF57
 5936 11d7 01       		.byte	0x1
 5937 11d8 5001     		.2byte	0x150
 5938 11da 7E000000 		.4byte	0x7e
 5939 11de 96070000 		.4byte	.LLST38
 5940 11e2 20       		.uleb128 0x20
 5941 11e3 4C080000 		.4byte	.LASF93
 5942 11e7 01       		.byte	0x1
 5943 11e8 5401     		.2byte	0x154
 5944 11ea 17010000 		.4byte	0x117
 5945 11ee 02       		.uleb128 0x2
 5946 11ef 91       		.byte	0x91
 5947 11f0 54       		.sleb128 -44
 5948 11f1 25       		.uleb128 0x25
 5949 11f2 70747200 		.ascii	"ptr\000"
 5950 11f6 01       		.byte	0x1
 5951 11f7 5401     		.2byte	0x154
 5952 11f9 11010000 		.4byte	0x111
 5953 11fd B4070000 		.4byte	.LLST39
 5954 1201 21       		.uleb128 0x21
 5955 1202 ED010000 		.4byte	.LASF99
 5956 1206 01       		.byte	0x1
 5957 1207 5501     		.2byte	0x155
 5958 1209 7E000000 		.4byte	0x7e
 5959 120d EC070000 		.4byte	.LLST40
 5960 1211 22       		.uleb128 0x22
 5961 1212 636D6400 		.ascii	"cmd\000"
 5962 1216 01       		.byte	0x1
 5963 1217 5601     		.2byte	0x156
 5964 1219 170E0000 		.4byte	0xe17
 5965 121d 02       		.uleb128 0x2
 5966 121e 91       		.byte	0x91
 5967 121f 40       		.sleb128 -64
 5968 1220 13       		.uleb128 0x13
 5969 1221 0A000000 		.4byte	.LVL218
 5970 1225 240F0000 		.4byte	0xf24
 5971 1229 34120000 		.4byte	0x1234
 5972 122d 14       		.uleb128 0x14
 5973 122e 01       		.uleb128 0x1
 5974 122f 50       		.byte	0x50
 5975 1230 02       		.uleb128 0x2
 5976 1231 75       		.byte	0x75
 5977 1232 00       		.sleb128 0
ARM GAS  C:\Users\PRAJWA~1\AppData\Local\Temp\ccedcYia.s 			page 123


 5978 1233 00       		.byte	0
 5979 1234 13       		.uleb128 0x13
 5980 1235 2E000000 		.4byte	.LVL220
 5981 1239 2C270000 		.4byte	0x272c
 5982 123d 52120000 		.4byte	0x1252
 5983 1241 14       		.uleb128 0x14
 5984 1242 01       		.uleb128 0x1
 5985 1243 50       		.byte	0x50
 5986 1244 02       		.uleb128 0x2
 5987 1245 91       		.byte	0x91
 5988 1246 4F       		.sleb128 -49
 5989 1247 14       		.uleb128 0x14
 5990 1248 01       		.uleb128 0x1
 5991 1249 51       		.byte	0x51
 5992 124a 01       		.uleb128 0x1
 5993 124b 30       		.byte	0x30
 5994 124c 14       		.uleb128 0x14
 5995 124d 01       		.uleb128 0x1
 5996 124e 52       		.byte	0x52
 5997 124f 01       		.uleb128 0x1
 5998 1250 33       		.byte	0x33
 5999 1251 00       		.byte	0
 6000 1252 13       		.uleb128 0x13
 6001 1253 46000000 		.4byte	.LVL221
 6002 1257 190B0000 		.4byte	0xb19
 6003 125b 7D120000 		.4byte	0x127d
 6004 125f 14       		.uleb128 0x14
 6005 1260 01       		.uleb128 0x1
 6006 1261 50       		.byte	0x50
 6007 1262 02       		.uleb128 0x2
 6008 1263 75       		.byte	0x75
 6009 1264 00       		.sleb128 0
 6010 1265 14       		.uleb128 0x14
 6011 1266 01       		.uleb128 0x1
 6012 1267 51       		.byte	0x51
 6013 1268 02       		.uleb128 0x2
 6014 1269 74       		.byte	0x74
 6015 126a 00       		.sleb128 0
 6016 126b 14       		.uleb128 0x14
 6017 126c 01       		.uleb128 0x1
 6018 126d 52       		.byte	0x52
 6019 126e 02       		.uleb128 0x2
 6020 126f 91       		.byte	0x91
 6021 1270 54       		.sleb128 -44
 6022 1271 14       		.uleb128 0x14
 6023 1272 01       		.uleb128 0x1
 6024 1273 53       		.byte	0x53
 6025 1274 01       		.uleb128 0x1
 6026 1275 49       		.byte	0x49
 6027 1276 14       		.uleb128 0x14
 6028 1277 02       		.uleb128 0x2
 6029 1278 7D       		.byte	0x7d
 6030 1279 08       		.sleb128 8
 6031 127a 01       		.uleb128 0x1
 6032 127b 30       		.byte	0x30
 6033 127c 00       		.byte	0
 6034 127d 17       		.uleb128 0x17
ARM GAS  C:\Users\PRAJWA~1\AppData\Local\Temp\ccedcYia.s 			page 124


 6035 127e 62000000 		.4byte	.LVL228
 6036 1282 4B270000 		.4byte	0x274b
 6037 1286 00       		.byte	0
 6038 1287 1E       		.uleb128 0x1e
 6039 1288 10010000 		.4byte	.LASF107
 6040 128c 01       		.byte	0x1
 6041 128d 6301     		.2byte	0x163
 6042 128f 7E000000 		.4byte	0x7e
 6043 1293 00000000 		.4byte	.LFB47
 6044 1297 40000000 		.4byte	.LFE47-.LFB47
 6045 129b 01       		.uleb128 0x1
 6046 129c 9C       		.byte	0x9c
 6047 129d 3F130000 		.4byte	0x133f
 6048 12a1 1F       		.uleb128 0x1f
 6049 12a2 7000     		.ascii	"p\000"
 6050 12a4 01       		.byte	0x1
 6051 12a5 6301     		.2byte	0x163
 6052 12a7 430A0000 		.4byte	0xa43
 6053 12ab 0A080000 		.4byte	.LLST41
 6054 12af 1F       		.uleb128 0x1f
 6055 12b0 6D616300 		.ascii	"mac\000"
 6056 12b4 01       		.byte	0x1
 6057 12b5 6301     		.2byte	0x163
 6058 12b7 11010000 		.4byte	0x111
 6059 12bb 36080000 		.4byte	.LLST42
 6060 12bf 21       		.uleb128 0x21
 6061 12c0 ED010000 		.4byte	.LASF99
 6062 12c4 01       		.byte	0x1
 6063 12c5 6401     		.2byte	0x164
 6064 12c7 7E000000 		.4byte	0x7e
 6065 12cb 62080000 		.4byte	.LLST43
 6066 12cf 20       		.uleb128 0x20
 6067 12d0 4C080000 		.4byte	.LASF93
 6068 12d4 01       		.byte	0x1
 6069 12d5 6501     		.2byte	0x165
 6070 12d7 CC040000 		.4byte	0x4cc
 6071 12db 03       		.uleb128 0x3
 6072 12dc 91       		.byte	0x91
 6073 12dd 947F     		.sleb128 -108
 6074 12df 20       		.uleb128 0x20
 6075 12e0 C1000000 		.4byte	.LASF102
 6076 12e4 01       		.byte	0x1
 6077 12e5 6601     		.2byte	0x166
 6078 12e7 DF0F0000 		.4byte	0xfdf
 6079 12eb 03       		.uleb128 0x3
 6080 12ec 91       		.byte	0x91
 6081 12ed EC7E     		.sleb128 -148
 6082 12ef 13       		.uleb128 0x13
 6083 12f0 10000000 		.4byte	.LVL235
 6084 12f4 40270000 		.4byte	0x2740
 6085 12f8 14130000 		.4byte	0x1314
 6086 12fc 14       		.uleb128 0x14
 6087 12fd 01       		.uleb128 0x1
 6088 12fe 50       		.byte	0x50
 6089 12ff 03       		.uleb128 0x3
 6090 1300 91       		.byte	0x91
 6091 1301 EC7E     		.sleb128 -148
ARM GAS  C:\Users\PRAJWA~1\AppData\Local\Temp\ccedcYia.s 			page 125


 6092 1303 14       		.uleb128 0x14
 6093 1304 01       		.uleb128 0x1
 6094 1305 51       		.byte	0x51
 6095 1306 05       		.uleb128 0x5
 6096 1307 03       		.byte	0x3
 6097 1308 74000000 		.4byte	.LC23
 6098 130c 14       		.uleb128 0x14
 6099 130d 01       		.uleb128 0x1
 6100 130e 52       		.byte	0x52
 6101 130f 03       		.uleb128 0x3
 6102 1310 F3       		.byte	0xf3
 6103 1311 01       		.uleb128 0x1
 6104 1312 51       		.byte	0x51
 6105 1313 00       		.byte	0
 6106 1314 15       		.uleb128 0x15
 6107 1315 28000000 		.4byte	.LVL236
 6108 1319 190B0000 		.4byte	0xb19
 6109 131d 14       		.uleb128 0x14
 6110 131e 01       		.uleb128 0x1
 6111 131f 50       		.byte	0x50
 6112 1320 02       		.uleb128 0x2
 6113 1321 74       		.byte	0x74
 6114 1322 00       		.sleb128 0
 6115 1323 14       		.uleb128 0x14
 6116 1324 01       		.uleb128 0x1
 6117 1325 51       		.byte	0x51
 6118 1326 03       		.uleb128 0x3
 6119 1327 91       		.byte	0x91
 6120 1328 EC7E     		.sleb128 -148
 6121 132a 14       		.uleb128 0x14
 6122 132b 01       		.uleb128 0x1
 6123 132c 52       		.byte	0x52
 6124 132d 03       		.uleb128 0x3
 6125 132e 91       		.byte	0x91
 6126 132f 947F     		.sleb128 -108
 6127 1331 14       		.uleb128 0x14
 6128 1332 01       		.uleb128 0x1
 6129 1333 53       		.byte	0x53
 6130 1334 02       		.uleb128 0x2
 6131 1335 08       		.byte	0x8
 6132 1336 64       		.byte	0x64
 6133 1337 14       		.uleb128 0x14
 6134 1338 02       		.uleb128 0x2
 6135 1339 7D       		.byte	0x7d
 6136 133a 08       		.sleb128 8
 6137 133b 01       		.uleb128 0x1
 6138 133c 30       		.byte	0x30
 6139 133d 00       		.byte	0
 6140 133e 00       		.byte	0
 6141 133f 1E       		.uleb128 0x1e
 6142 1340 D3060000 		.4byte	.LASF108
 6143 1344 01       		.byte	0x1
 6144 1345 6E01     		.2byte	0x16e
 6145 1347 7E000000 		.4byte	0x7e
 6146 134b 00000000 		.4byte	.LFB48
 6147 134f 88000000 		.4byte	.LFE48-.LFB48
 6148 1353 01       		.uleb128 0x1
ARM GAS  C:\Users\PRAJWA~1\AppData\Local\Temp\ccedcYia.s 			page 126


 6149 1354 9C       		.byte	0x9c
 6150 1355 2C140000 		.4byte	0x142c
 6151 1359 1F       		.uleb128 0x1f
 6152 135a 7000     		.ascii	"p\000"
 6153 135c 01       		.byte	0x1
 6154 135d 6E01     		.2byte	0x16e
 6155 135f 430A0000 		.4byte	0xa43
 6156 1363 80080000 		.4byte	.LLST44
 6157 1367 21       		.uleb128 0x21
 6158 1368 ED010000 		.4byte	.LASF99
 6159 136c 01       		.byte	0x1
 6160 136d 7001     		.2byte	0x170
 6161 136f 7E000000 		.4byte	0x7e
 6162 1373 A0080000 		.4byte	.LLST45
 6163 1377 20       		.uleb128 0x20
 6164 1378 4C080000 		.4byte	.LASF93
 6165 137c 01       		.byte	0x1
 6166 137d 7101     		.2byte	0x171
 6167 137f 2C140000 		.4byte	0x142c
 6168 1383 02       		.uleb128 0x2
 6169 1384 91       		.byte	0x91
 6170 1385 5C       		.sleb128 -36
 6171 1386 20       		.uleb128 0x20
 6172 1387 51040000 		.4byte	.LASF109
 6173 138b 01       		.byte	0x1
 6174 138c 7201     		.2byte	0x172
 6175 138e 3C140000 		.4byte	0x143c
 6176 1392 02       		.uleb128 0x2
 6177 1393 91       		.byte	0x91
 6178 1394 54       		.sleb128 -44
 6179 1395 20       		.uleb128 0x20
 6180 1396 56040000 		.4byte	.LASF110
 6181 139a 01       		.byte	0x1
 6182 139b 7301     		.2byte	0x173
 6183 139d 170E0000 		.4byte	0xe17
 6184 13a1 02       		.uleb128 0x2
 6185 13a2 91       		.byte	0x91
 6186 13a3 40       		.sleb128 -64
 6187 13a4 13       		.uleb128 0x13
 6188 13a5 3E000000 		.4byte	.LVL243
 6189 13a9 2C270000 		.4byte	0x272c
 6190 13ad C3130000 		.4byte	0x13c3
 6191 13b1 14       		.uleb128 0x14
 6192 13b2 01       		.uleb128 0x1
 6193 13b3 50       		.byte	0x50
 6194 13b4 02       		.uleb128 0x2
 6195 13b5 91       		.byte	0x91
 6196 13b6 4F       		.sleb128 -49
 6197 13b7 14       		.uleb128 0x14
 6198 13b8 01       		.uleb128 0x1
 6199 13b9 51       		.byte	0x51
 6200 13ba 02       		.uleb128 0x2
 6201 13bb 74       		.byte	0x74
 6202 13bc 00       		.sleb128 0
 6203 13bd 14       		.uleb128 0x14
 6204 13be 01       		.uleb128 0x1
 6205 13bf 52       		.byte	0x52
ARM GAS  C:\Users\PRAJWA~1\AppData\Local\Temp\ccedcYia.s 			page 127


 6206 13c0 01       		.uleb128 0x1
 6207 13c1 33       		.byte	0x33
 6208 13c2 00       		.byte	0
 6209 13c3 13       		.uleb128 0x13
 6210 13c4 54000000 		.4byte	.LVL244
 6211 13c8 190B0000 		.4byte	0xb19
 6212 13cc F9130000 		.4byte	0x13f9
 6213 13d0 14       		.uleb128 0x14
 6214 13d1 01       		.uleb128 0x1
 6215 13d2 50       		.byte	0x50
 6216 13d3 04       		.uleb128 0x4
 6217 13d4 91       		.byte	0x91
 6218 13d5 BC7F     		.sleb128 -68
 6219 13d7 06       		.byte	0x6
 6220 13d8 14       		.uleb128 0x14
 6221 13d9 01       		.uleb128 0x1
 6222 13da 51       		.byte	0x51
 6223 13db 02       		.uleb128 0x2
 6224 13dc 79       		.byte	0x79
 6225 13dd 00       		.sleb128 0
 6226 13de 14       		.uleb128 0x14
 6227 13df 01       		.uleb128 0x1
 6228 13e0 52       		.byte	0x52
 6229 13e1 02       		.uleb128 0x2
 6230 13e2 91       		.byte	0x91
 6231 13e3 5C       		.sleb128 -36
 6232 13e4 14       		.uleb128 0x14
 6233 13e5 01       		.uleb128 0x1
 6234 13e6 53       		.byte	0x53
 6235 13e7 01       		.uleb128 0x1
 6236 13e8 3A       		.byte	0x3a
 6237 13e9 14       		.uleb128 0x14
 6238 13ea 02       		.uleb128 0x2
 6239 13eb 7D       		.byte	0x7d
 6240 13ec 00       		.sleb128 0
 6241 13ed 03       		.uleb128 0x3
 6242 13ee F5       		.byte	0xf5
 6243 13ef 06       		.uleb128 0x6
 6244 13f0 25       		.uleb128 0x25
 6245 13f1 14       		.uleb128 0x14
 6246 13f2 02       		.uleb128 0x2
 6247 13f3 7D       		.byte	0x7d
 6248 13f4 08       		.sleb128 8
 6249 13f5 02       		.uleb128 0x2
 6250 13f6 74       		.byte	0x74
 6251 13f7 00       		.sleb128 0
 6252 13f8 00       		.byte	0
 6253 13f9 15       		.uleb128 0x15
 6254 13fa 66000000 		.4byte	.LVL245
 6255 13fe 190B0000 		.4byte	0xb19
 6256 1402 14       		.uleb128 0x14
 6257 1403 01       		.uleb128 0x1
 6258 1404 50       		.byte	0x50
 6259 1405 04       		.uleb128 0x4
 6260 1406 91       		.byte	0x91
 6261 1407 BC7F     		.sleb128 -68
 6262 1409 06       		.byte	0x6
ARM GAS  C:\Users\PRAJWA~1\AppData\Local\Temp\ccedcYia.s 			page 128


 6263 140a 14       		.uleb128 0x14
 6264 140b 01       		.uleb128 0x1
 6265 140c 51       		.byte	0x51
 6266 140d 02       		.uleb128 0x2
 6267 140e 75       		.byte	0x75
 6268 140f 00       		.sleb128 0
 6269 1410 14       		.uleb128 0x14
 6270 1411 01       		.uleb128 0x1
 6271 1412 52       		.byte	0x52
 6272 1413 02       		.uleb128 0x2
 6273 1414 91       		.byte	0x91
 6274 1415 5C       		.sleb128 -36
 6275 1416 14       		.uleb128 0x14
 6276 1417 01       		.uleb128 0x1
 6277 1418 53       		.byte	0x53
 6278 1419 01       		.uleb128 0x1
 6279 141a 3A       		.byte	0x3a
 6280 141b 14       		.uleb128 0x14
 6281 141c 02       		.uleb128 0x2
 6282 141d 7D       		.byte	0x7d
 6283 141e 00       		.sleb128 0
 6284 141f 03       		.uleb128 0x3
 6285 1420 F5       		.byte	0xf5
 6286 1421 06       		.uleb128 0x6
 6287 1422 25       		.uleb128 0x25
 6288 1423 14       		.uleb128 0x14
 6289 1424 02       		.uleb128 0x2
 6290 1425 7D       		.byte	0x7d
 6291 1426 08       		.sleb128 8
 6292 1427 02       		.uleb128 0x2
 6293 1428 74       		.byte	0x74
 6294 1429 00       		.sleb128 0
 6295 142a 00       		.byte	0
 6296 142b 00       		.byte	0
 6297 142c 08       		.uleb128 0x8
 6298 142d DF000000 		.4byte	0xdf
 6299 1431 3C140000 		.4byte	0x143c
 6300 1435 09       		.uleb128 0x9
 6301 1436 0A010000 		.4byte	0x10a
 6302 143a 09       		.byte	0x9
 6303 143b 00       		.byte	0
 6304 143c 08       		.uleb128 0x8
 6305 143d DF000000 		.4byte	0xdf
 6306 1441 4C140000 		.4byte	0x144c
 6307 1445 09       		.uleb128 0x9
 6308 1446 0A010000 		.4byte	0x10a
 6309 144a 04       		.byte	0x4
 6310 144b 00       		.byte	0
 6311 144c 1E       		.uleb128 0x1e
 6312 144d F4010000 		.4byte	.LASF111
 6313 1451 01       		.byte	0x1
 6314 1452 7C01     		.2byte	0x17c
 6315 1454 7E000000 		.4byte	0x7e
 6316 1458 00000000 		.4byte	.LFB49
 6317 145c 40000000 		.4byte	.LFE49-.LFB49
 6318 1460 01       		.uleb128 0x1
 6319 1461 9C       		.byte	0x9c
ARM GAS  C:\Users\PRAJWA~1\AppData\Local\Temp\ccedcYia.s 			page 129


 6320 1462 0D150000 		.4byte	0x150d
 6321 1466 1F       		.uleb128 0x1f
 6322 1467 7000     		.ascii	"p\000"
 6323 1469 01       		.byte	0x1
 6324 146a 7C01     		.2byte	0x17c
 6325 146c 430A0000 		.4byte	0xa43
 6326 1470 BE080000 		.4byte	.LLST46
 6327 1474 26       		.uleb128 0x26
 6328 1475 8A030000 		.4byte	.LASF112
 6329 1479 01       		.byte	0x1
 6330 147a 7C01     		.2byte	0x17c
 6331 147c 11010000 		.4byte	0x111
 6332 1480 DF080000 		.4byte	.LLST47
 6333 1484 20       		.uleb128 0x20
 6334 1485 C1000000 		.4byte	.LASF102
 6335 1489 01       		.byte	0x1
 6336 148a 7E01     		.2byte	0x17e
 6337 148c 0D150000 		.4byte	0x150d
 6338 1490 03       		.uleb128 0x3
 6339 1491 91       		.byte	0x91
 6340 1492 9078     		.sleb128 -1008
 6341 1494 13       		.uleb128 0x13
 6342 1495 12000000 		.4byte	.LVL252
 6343 1499 40270000 		.4byte	0x2740
 6344 149d C2140000 		.4byte	0x14c2
 6345 14a1 14       		.uleb128 0x14
 6346 14a2 01       		.uleb128 0x1
 6347 14a3 50       		.byte	0x50
 6348 14a4 03       		.uleb128 0x3
 6349 14a5 91       		.byte	0x91
 6350 14a6 9078     		.sleb128 -1008
 6351 14a8 14       		.uleb128 0x14
 6352 14a9 01       		.uleb128 0x1
 6353 14aa 51       		.byte	0x51
 6354 14ab 05       		.uleb128 0x5
 6355 14ac 03       		.byte	0x3
 6356 14ad 8C000000 		.4byte	.LC29
 6357 14b1 14       		.uleb128 0x14
 6358 14b2 01       		.uleb128 0x1
 6359 14b3 52       		.byte	0x52
 6360 14b4 03       		.uleb128 0x3
 6361 14b5 F3       		.byte	0xf3
 6362 14b6 01       		.uleb128 0x1
 6363 14b7 51       		.byte	0x51
 6364 14b8 14       		.uleb128 0x14
 6365 14b9 01       		.uleb128 0x1
 6366 14ba 53       		.byte	0x53
 6367 14bb 05       		.uleb128 0x5
 6368 14bc 03       		.byte	0x3
 6369 14bd 88000000 		.4byte	.LC27
 6370 14c1 00       		.byte	0
 6371 14c2 13       		.uleb128 0x13
 6372 14c3 18000000 		.4byte	.LVL253
 6373 14c7 7F0A0000 		.4byte	0xa7f
 6374 14cb D5140000 		.4byte	0x14d5
 6375 14cf 14       		.uleb128 0x14
 6376 14d0 01       		.uleb128 0x1
ARM GAS  C:\Users\PRAJWA~1\AppData\Local\Temp\ccedcYia.s 			page 130


 6377 14d1 50       		.byte	0x50
 6378 14d2 01       		.uleb128 0x1
 6379 14d3 31       		.byte	0x31
 6380 14d4 00       		.byte	0
 6381 14d5 13       		.uleb128 0x13
 6382 14d6 1E000000 		.4byte	.LVL254
 6383 14da FD260000 		.4byte	0x26fd
 6384 14de EA140000 		.4byte	0x14ea
 6385 14e2 14       		.uleb128 0x14
 6386 14e3 01       		.uleb128 0x1
 6387 14e4 50       		.byte	0x50
 6388 14e5 03       		.uleb128 0x3
 6389 14e6 91       		.byte	0x91
 6390 14e7 9078     		.sleb128 -1008
 6391 14e9 00       		.byte	0
 6392 14ea 13       		.uleb128 0x13
 6393 14eb 24000000 		.4byte	.LVL255
 6394 14ef 490A0000 		.4byte	0xa49
 6395 14f3 FD140000 		.4byte	0x14fd
 6396 14f7 14       		.uleb128 0x14
 6397 14f8 01       		.uleb128 0x1
 6398 14f9 50       		.byte	0x50
 6399 14fa 01       		.uleb128 0x1
 6400 14fb 31       		.byte	0x31
 6401 14fc 00       		.byte	0
 6402 14fd 15       		.uleb128 0x15
 6403 14fe 2A000000 		.4byte	.LVL256
 6404 1502 7F0A0000 		.4byte	0xa7f
 6405 1506 14       		.uleb128 0x14
 6406 1507 01       		.uleb128 0x1
 6407 1508 50       		.byte	0x50
 6408 1509 01       		.uleb128 0x1
 6409 150a 30       		.byte	0x30
 6410 150b 00       		.byte	0
 6411 150c 00       		.byte	0
 6412 150d 08       		.uleb128 0x8
 6413 150e DF000000 		.4byte	0xdf
 6414 1512 1E150000 		.4byte	0x151e
 6415 1516 27       		.uleb128 0x27
 6416 1517 0A010000 		.4byte	0x10a
 6417 151b E703     		.2byte	0x3e7
 6418 151d 00       		.byte	0
 6419 151e 1E       		.uleb128 0x1e
 6420 151f 9C080000 		.4byte	.LASF113
 6421 1523 01       		.byte	0x1
 6422 1524 9701     		.2byte	0x197
 6423 1526 7E000000 		.4byte	0x7e
 6424 152a 00000000 		.4byte	.LFB50
 6425 152e 78000000 		.4byte	.LFE50-.LFB50
 6426 1532 01       		.uleb128 0x1
 6427 1533 9C       		.byte	0x9c
 6428 1534 ED150000 		.4byte	0x15ed
 6429 1538 1F       		.uleb128 0x1f
 6430 1539 7000     		.ascii	"p\000"
 6431 153b 01       		.byte	0x1
 6432 153c 9701     		.2byte	0x197
 6433 153e 430A0000 		.4byte	0xa43
ARM GAS  C:\Users\PRAJWA~1\AppData\Local\Temp\ccedcYia.s 			page 131


 6434 1542 0B090000 		.4byte	.LLST48
 6435 1546 1F       		.uleb128 0x1f
 6436 1547 6D616300 		.ascii	"mac\000"
 6437 154b 01       		.byte	0x1
 6438 154c 9701     		.2byte	0x197
 6439 154e 11010000 		.4byte	0x111
 6440 1552 37090000 		.4byte	.LLST49
 6441 1556 20       		.uleb128 0x20
 6442 1557 4C080000 		.4byte	.LASF93
 6443 155b 01       		.byte	0x1
 6444 155c 9901     		.2byte	0x199
 6445 155e 070E0000 		.4byte	0xe07
 6446 1562 03       		.uleb128 0x3
 6447 1563 91       		.byte	0x91
 6448 1564 AC7F     		.sleb128 -84
 6449 1566 25       		.uleb128 0x25
 6450 1567 70747200 		.ascii	"ptr\000"
 6451 156b 01       		.byte	0x1
 6452 156c 9901     		.2byte	0x199
 6453 156e 11010000 		.4byte	0x111
 6454 1572 63090000 		.4byte	.LLST50
 6455 1576 21       		.uleb128 0x21
 6456 1577 ED010000 		.4byte	.LASF99
 6457 157b 01       		.byte	0x1
 6458 157c 9A01     		.2byte	0x19a
 6459 157e 7E000000 		.4byte	0x7e
 6460 1582 9D090000 		.4byte	.LLST51
 6461 1586 25       		.uleb128 0x25
 6462 1587 6A00     		.ascii	"j\000"
 6463 1589 01       		.byte	0x1
 6464 158a 9A01     		.2byte	0x19a
 6465 158c 7E000000 		.4byte	0x7e
 6466 1590 BB090000 		.4byte	.LLST52
 6467 1594 22       		.uleb128 0x22
 6468 1595 636D6400 		.ascii	"cmd\000"
 6469 1599 01       		.byte	0x1
 6470 159a 9B01     		.2byte	0x19b
 6471 159c 17010000 		.4byte	0x117
 6472 15a0 03       		.uleb128 0x3
 6473 15a1 91       		.byte	0x91
 6474 15a2 907F     		.sleb128 -112
 6475 15a4 13       		.uleb128 0x13
 6476 15a5 22000000 		.4byte	.LVL260
 6477 15a9 2C270000 		.4byte	0x272c
 6478 15ad C3150000 		.4byte	0x15c3
 6479 15b1 14       		.uleb128 0x14
 6480 15b2 01       		.uleb128 0x1
 6481 15b3 50       		.byte	0x50
 6482 15b4 03       		.uleb128 0x3
 6483 15b5 91       		.byte	0x91
 6484 15b6 A47F     		.sleb128 -92
 6485 15b8 14       		.uleb128 0x14
 6486 15b9 01       		.uleb128 0x1
 6487 15ba 51       		.byte	0x51
 6488 15bb 01       		.uleb128 0x1
 6489 15bc 30       		.byte	0x30
 6490 15bd 14       		.uleb128 0x14
ARM GAS  C:\Users\PRAJWA~1\AppData\Local\Temp\ccedcYia.s 			page 132


 6491 15be 01       		.uleb128 0x1
 6492 15bf 52       		.byte	0x52
 6493 15c0 01       		.uleb128 0x1
 6494 15c1 35       		.byte	0x35
 6495 15c2 00       		.byte	0
 6496 15c3 15       		.uleb128 0x15
 6497 15c4 3A000000 		.4byte	.LVL261
 6498 15c8 190B0000 		.4byte	0xb19
 6499 15cc 14       		.uleb128 0x14
 6500 15cd 01       		.uleb128 0x1
 6501 15ce 50       		.byte	0x50
 6502 15cf 02       		.uleb128 0x2
 6503 15d0 75       		.byte	0x75
 6504 15d1 00       		.sleb128 0
 6505 15d2 14       		.uleb128 0x14
 6506 15d3 01       		.uleb128 0x1
 6507 15d4 51       		.byte	0x51
 6508 15d5 02       		.uleb128 0x2
 6509 15d6 76       		.byte	0x76
 6510 15d7 00       		.sleb128 0
 6511 15d8 14       		.uleb128 0x14
 6512 15d9 01       		.uleb128 0x1
 6513 15da 52       		.byte	0x52
 6514 15db 03       		.uleb128 0x3
 6515 15dc 91       		.byte	0x91
 6516 15dd AC7F     		.sleb128 -84
 6517 15df 14       		.uleb128 0x14
 6518 15e0 01       		.uleb128 0x1
 6519 15e1 53       		.byte	0x53
 6520 15e2 02       		.uleb128 0x2
 6521 15e3 08       		.byte	0x8
 6522 15e4 3C       		.byte	0x3c
 6523 15e5 14       		.uleb128 0x14
 6524 15e6 02       		.uleb128 0x2
 6525 15e7 7D       		.byte	0x7d
 6526 15e8 08       		.sleb128 8
 6527 15e9 01       		.uleb128 0x1
 6528 15ea 30       		.byte	0x30
 6529 15eb 00       		.byte	0
 6530 15ec 00       		.byte	0
 6531 15ed 1E       		.uleb128 0x1e
 6532 15ee C7060000 		.4byte	.LASF114
 6533 15f2 01       		.byte	0x1
 6534 15f3 AE01     		.2byte	0x1ae
 6535 15f5 7E000000 		.4byte	0x7e
 6536 15f9 00000000 		.4byte	.LFB51
 6537 15fd 5C000000 		.4byte	.LFE51-.LFB51
 6538 1601 01       		.uleb128 0x1
 6539 1602 9C       		.byte	0x9c
 6540 1603 B9160000 		.4byte	0x16b9
 6541 1607 1F       		.uleb128 0x1f
 6542 1608 7000     		.ascii	"p\000"
 6543 160a 01       		.byte	0x1
 6544 160b AE01     		.2byte	0x1ae
 6545 160d 430A0000 		.4byte	0xa43
 6546 1611 DA090000 		.4byte	.LLST53
 6547 1615 23       		.uleb128 0x23
ARM GAS  C:\Users\PRAJWA~1\AppData\Local\Temp\ccedcYia.s 			page 133


 6548 1616 ED010000 		.4byte	.LASF99
 6549 161a 01       		.byte	0x1
 6550 161b B001     		.2byte	0x1b0
 6551 161d 97000000 		.4byte	0x97
 6552 1621 20       		.uleb128 0x20
 6553 1622 4C080000 		.4byte	.LASF93
 6554 1626 01       		.byte	0x1
 6555 1627 B101     		.2byte	0x1b1
 6556 1629 17010000 		.4byte	0x117
 6557 162d 02       		.uleb128 0x2
 6558 162e 91       		.byte	0x91
 6559 162f 54       		.sleb128 -44
 6560 1630 25       		.uleb128 0x25
 6561 1631 70747200 		.ascii	"ptr\000"
 6562 1635 01       		.byte	0x1
 6563 1636 B101     		.2byte	0x1b1
 6564 1638 11010000 		.4byte	0x111
 6565 163c 060A0000 		.4byte	.LLST54
 6566 1640 22       		.uleb128 0x22
 6567 1641 636D6400 		.ascii	"cmd\000"
 6568 1645 01       		.byte	0x1
 6569 1646 B201     		.2byte	0x1b2
 6570 1648 140F0000 		.4byte	0xf14
 6571 164c 02       		.uleb128 0x2
 6572 164d 91       		.byte	0x91
 6573 164e 44       		.sleb128 -60
 6574 164f 13       		.uleb128 0x13
 6575 1650 1A000000 		.4byte	.LVL278
 6576 1654 2C270000 		.4byte	0x272c
 6577 1658 6D160000 		.4byte	0x166d
 6578 165c 14       		.uleb128 0x14
 6579 165d 01       		.uleb128 0x1
 6580 165e 50       		.byte	0x50
 6581 165f 02       		.uleb128 0x2
 6582 1660 74       		.byte	0x74
 6583 1661 0C       		.sleb128 12
 6584 1662 14       		.uleb128 0x14
 6585 1663 01       		.uleb128 0x1
 6586 1664 51       		.byte	0x51
 6587 1665 01       		.uleb128 0x1
 6588 1666 30       		.byte	0x30
 6589 1667 14       		.uleb128 0x14
 6590 1668 01       		.uleb128 0x1
 6591 1669 52       		.byte	0x52
 6592 166a 01       		.uleb128 0x1
 6593 166b 33       		.byte	0x33
 6594 166c 00       		.byte	0
 6595 166d 13       		.uleb128 0x13
 6596 166e 20000000 		.4byte	.LVL279
 6597 1672 FD260000 		.4byte	0x26fd
 6598 1676 84160000 		.4byte	0x1684
 6599 167a 14       		.uleb128 0x14
 6600 167b 01       		.uleb128 0x1
 6601 167c 50       		.byte	0x50
 6602 167d 05       		.uleb128 0x5
 6603 167e 03       		.byte	0x3
 6604 167f 94000000 		.4byte	.LC35
ARM GAS  C:\Users\PRAJWA~1\AppData\Local\Temp\ccedcYia.s 			page 134


 6605 1683 00       		.byte	0
 6606 1684 13       		.uleb128 0x13
 6607 1685 38000000 		.4byte	.LVL280
 6608 1689 190B0000 		.4byte	0xb19
 6609 168d AF160000 		.4byte	0x16af
 6610 1691 14       		.uleb128 0x14
 6611 1692 01       		.uleb128 0x1
 6612 1693 50       		.byte	0x50
 6613 1694 02       		.uleb128 0x2
 6614 1695 75       		.byte	0x75
 6615 1696 00       		.sleb128 0
 6616 1697 14       		.uleb128 0x14
 6617 1698 01       		.uleb128 0x1
 6618 1699 51       		.byte	0x51
 6619 169a 02       		.uleb128 0x2
 6620 169b 74       		.byte	0x74
 6621 169c 00       		.sleb128 0
 6622 169d 14       		.uleb128 0x14
 6623 169e 01       		.uleb128 0x1
 6624 169f 52       		.byte	0x52
 6625 16a0 02       		.uleb128 0x2
 6626 16a1 91       		.byte	0x91
 6627 16a2 54       		.sleb128 -44
 6628 16a3 14       		.uleb128 0x14
 6629 16a4 01       		.uleb128 0x1
 6630 16a5 53       		.byte	0x53
 6631 16a6 01       		.uleb128 0x1
 6632 16a7 49       		.byte	0x49
 6633 16a8 14       		.uleb128 0x14
 6634 16a9 02       		.uleb128 0x2
 6635 16aa 7D       		.byte	0x7d
 6636 16ab 08       		.sleb128 8
 6637 16ac 01       		.uleb128 0x1
 6638 16ad 30       		.byte	0x30
 6639 16ae 00       		.byte	0
 6640 16af 17       		.uleb128 0x17
 6641 16b0 4A000000 		.4byte	.LVL284
 6642 16b4 4B270000 		.4byte	0x274b
 6643 16b8 00       		.byte	0
 6644 16b9 1E       		.uleb128 0x1e
 6645 16ba DC010000 		.4byte	.LASF115
 6646 16be 01       		.byte	0x1
 6647 16bf C101     		.2byte	0x1c1
 6648 16c1 7E000000 		.4byte	0x7e
 6649 16c5 00000000 		.4byte	.LFB52
 6650 16c9 94000000 		.4byte	.LFE52-.LFB52
 6651 16cd 01       		.uleb128 0x1
 6652 16ce 9C       		.byte	0x9c
 6653 16cf C3170000 		.4byte	0x17c3
 6654 16d3 1F       		.uleb128 0x1f
 6655 16d4 7000     		.ascii	"p\000"
 6656 16d6 01       		.byte	0x1
 6657 16d7 C101     		.2byte	0x1c1
 6658 16d9 430A0000 		.4byte	0xa43
 6659 16dd 260A0000 		.4byte	.LLST55
 6660 16e1 20       		.uleb128 0x20
 6661 16e2 4C080000 		.4byte	.LASF93
ARM GAS  C:\Users\PRAJWA~1\AppData\Local\Temp\ccedcYia.s 			page 135


 6662 16e6 01       		.byte	0x1
 6663 16e7 C301     		.2byte	0x1c3
 6664 16e9 C3170000 		.4byte	0x17c3
 6665 16ed 02       		.uleb128 0x2
 6666 16ee 91       		.byte	0x91
 6667 16ef 48       		.sleb128 -56
 6668 16f0 24       		.uleb128 0x24
 6669 16f1 70747200 		.ascii	"ptr\000"
 6670 16f5 01       		.byte	0x1
 6671 16f6 C301     		.2byte	0x1c3
 6672 16f8 11010000 		.4byte	0x111
 6673 16fc 21       		.uleb128 0x21
 6674 16fd ED010000 		.4byte	.LASF99
 6675 1701 01       		.byte	0x1
 6676 1702 C401     		.2byte	0x1c4
 6677 1704 7E000000 		.4byte	0x7e
 6678 1708 460A0000 		.4byte	.LLST56
 6679 170c 20       		.uleb128 0x20
 6680 170d 16030000 		.4byte	.LASF116
 6681 1711 01       		.byte	0x1
 6682 1712 C501     		.2byte	0x1c5
 6683 1714 2C140000 		.4byte	0x142c
 6684 1718 03       		.uleb128 0x3
 6685 1719 91       		.byte	0x91
 6686 171a BC7F     		.sleb128 -68
 6687 171c 20       		.uleb128 0x20
 6688 171d 00080000 		.4byte	.LASF117
 6689 1721 01       		.byte	0x1
 6690 1722 C601     		.2byte	0x1c6
 6691 1724 170E0000 		.4byte	0xe17
 6692 1728 03       		.uleb128 0x3
 6693 1729 91       		.byte	0x91
 6694 172a A87F     		.sleb128 -88
 6695 172c 13       		.uleb128 0x13
 6696 172d 3E000000 		.4byte	.LVL288
 6697 1731 2C270000 		.4byte	0x272c
 6698 1735 4C170000 		.4byte	0x174c
 6699 1739 14       		.uleb128 0x14
 6700 173a 01       		.uleb128 0x1
 6701 173b 50       		.byte	0x50
 6702 173c 03       		.uleb128 0x3
 6703 173d 91       		.byte	0x91
 6704 173e B77F     		.sleb128 -73
 6705 1740 14       		.uleb128 0x14
 6706 1741 01       		.uleb128 0x1
 6707 1742 51       		.byte	0x51
 6708 1743 02       		.uleb128 0x2
 6709 1744 77       		.byte	0x77
 6710 1745 00       		.sleb128 0
 6711 1746 14       		.uleb128 0x14
 6712 1747 01       		.uleb128 0x1
 6713 1748 52       		.byte	0x52
 6714 1749 01       		.uleb128 0x1
 6715 174a 33       		.byte	0x33
 6716 174b 00       		.byte	0
 6717 174c 13       		.uleb128 0x13
 6718 174d 54000000 		.4byte	.LVL289
ARM GAS  C:\Users\PRAJWA~1\AppData\Local\Temp\ccedcYia.s 			page 136


 6719 1751 190B0000 		.4byte	0xb19
 6720 1755 7A170000 		.4byte	0x177a
 6721 1759 14       		.uleb128 0x14
 6722 175a 01       		.uleb128 0x1
 6723 175b 50       		.byte	0x50
 6724 175c 04       		.uleb128 0x4
 6725 175d 91       		.byte	0x91
 6726 175e A47F     		.sleb128 -92
 6727 1760 06       		.byte	0x6
 6728 1761 14       		.uleb128 0x14
 6729 1762 01       		.uleb128 0x1
 6730 1763 51       		.byte	0x51
 6731 1764 02       		.uleb128 0x2
 6732 1765 76       		.byte	0x76
 6733 1766 00       		.sleb128 0
 6734 1767 14       		.uleb128 0x14
 6735 1768 01       		.uleb128 0x1
 6736 1769 52       		.byte	0x52
 6737 176a 02       		.uleb128 0x2
 6738 176b 91       		.byte	0x91
 6739 176c 48       		.sleb128 -56
 6740 176d 14       		.uleb128 0x14
 6741 176e 01       		.uleb128 0x1
 6742 176f 53       		.byte	0x53
 6743 1770 01       		.uleb128 0x1
 6744 1771 4E       		.byte	0x4e
 6745 1772 14       		.uleb128 0x14
 6746 1773 02       		.uleb128 0x2
 6747 1774 7D       		.byte	0x7d
 6748 1775 08       		.sleb128 8
 6749 1776 02       		.uleb128 0x2
 6750 1777 77       		.byte	0x77
 6751 1778 00       		.sleb128 0
 6752 1779 00       		.byte	0
 6753 177a 13       		.uleb128 0x13
 6754 177b 5C000000 		.4byte	.LVL290
 6755 177f 490A0000 		.4byte	0xa49
 6756 1783 8F170000 		.4byte	0x178f
 6757 1787 14       		.uleb128 0x14
 6758 1788 01       		.uleb128 0x1
 6759 1789 50       		.byte	0x50
 6760 178a 03       		.uleb128 0x3
 6761 178b 0A       		.byte	0xa
 6762 178c 2003     		.2byte	0x320
 6763 178e 00       		.byte	0
 6764 178f 17       		.uleb128 0x17
 6765 1790 60000000 		.4byte	.LVL291
 6766 1794 DB260000 		.4byte	0x26db
 6767 1798 15       		.uleb128 0x15
 6768 1799 76000000 		.4byte	.LVL292
 6769 179d 190B0000 		.4byte	0xb19
 6770 17a1 14       		.uleb128 0x14
 6771 17a2 01       		.uleb128 0x1
 6772 17a3 50       		.byte	0x50
 6773 17a4 04       		.uleb128 0x4
 6774 17a5 91       		.byte	0x91
 6775 17a6 A47F     		.sleb128 -92
ARM GAS  C:\Users\PRAJWA~1\AppData\Local\Temp\ccedcYia.s 			page 137


 6776 17a8 06       		.byte	0x6
 6777 17a9 14       		.uleb128 0x14
 6778 17aa 01       		.uleb128 0x1
 6779 17ab 51       		.byte	0x51
 6780 17ac 02       		.uleb128 0x2
 6781 17ad 74       		.byte	0x74
 6782 17ae 00       		.sleb128 0
 6783 17af 14       		.uleb128 0x14
 6784 17b0 01       		.uleb128 0x1
 6785 17b1 52       		.byte	0x52
 6786 17b2 02       		.uleb128 0x2
 6787 17b3 91       		.byte	0x91
 6788 17b4 48       		.sleb128 -56
 6789 17b5 14       		.uleb128 0x14
 6790 17b6 01       		.uleb128 0x1
 6791 17b7 53       		.byte	0x53
 6792 17b8 01       		.uleb128 0x1
 6793 17b9 4E       		.byte	0x4e
 6794 17ba 14       		.uleb128 0x14
 6795 17bb 02       		.uleb128 0x2
 6796 17bc 7D       		.byte	0x7d
 6797 17bd 08       		.sleb128 8
 6798 17be 02       		.uleb128 0x2
 6799 17bf 77       		.byte	0x77
 6800 17c0 00       		.sleb128 0
 6801 17c1 00       		.byte	0
 6802 17c2 00       		.byte	0
 6803 17c3 08       		.uleb128 0x8
 6804 17c4 DF000000 		.4byte	0xdf
 6805 17c8 D3170000 		.4byte	0x17d3
 6806 17cc 09       		.uleb128 0x9
 6807 17cd 0A010000 		.4byte	0x10a
 6808 17d1 1D       		.byte	0x1d
 6809 17d2 00       		.byte	0
 6810 17d3 1E       		.uleb128 0x1e
 6811 17d4 FE080000 		.4byte	.LASF118
 6812 17d8 01       		.byte	0x1
 6813 17d9 D101     		.2byte	0x1d1
 6814 17db 7E000000 		.4byte	0x7e
 6815 17df 00000000 		.4byte	.LFB53
 6816 17e3 68000000 		.4byte	.LFE53-.LFB53
 6817 17e7 01       		.uleb128 0x1
 6818 17e8 9C       		.byte	0x9c
 6819 17e9 8C180000 		.4byte	0x188c
 6820 17ed 1F       		.uleb128 0x1f
 6821 17ee 7000     		.ascii	"p\000"
 6822 17f0 01       		.byte	0x1
 6823 17f1 D101     		.2byte	0x1d1
 6824 17f3 430A0000 		.4byte	0xa43
 6825 17f7 640A0000 		.4byte	.LLST57
 6826 17fb 20       		.uleb128 0x20
 6827 17fc 4C080000 		.4byte	.LASF93
 6828 1800 01       		.byte	0x1
 6829 1801 D301     		.2byte	0x1d3
 6830 1803 17010000 		.4byte	0x117
 6831 1807 02       		.uleb128 0x2
 6832 1808 91       		.byte	0x91
ARM GAS  C:\Users\PRAJWA~1\AppData\Local\Temp\ccedcYia.s 			page 138


 6833 1809 54       		.sleb128 -44
 6834 180a 25       		.uleb128 0x25
 6835 180b 70747200 		.ascii	"ptr\000"
 6836 180f 01       		.byte	0x1
 6837 1810 D301     		.2byte	0x1d3
 6838 1812 11010000 		.4byte	0x111
 6839 1816 900A0000 		.4byte	.LLST58
 6840 181a 21       		.uleb128 0x21
 6841 181b ED010000 		.4byte	.LASF99
 6842 181f 01       		.byte	0x1
 6843 1820 D401     		.2byte	0x1d4
 6844 1822 7E000000 		.4byte	0x7e
 6845 1826 C80A0000 		.4byte	.LLST59
 6846 182a 22       		.uleb128 0x22
 6847 182b 636D6400 		.ascii	"cmd\000"
 6848 182f 01       		.byte	0x1
 6849 1830 D501     		.2byte	0x1d5
 6850 1832 170E0000 		.4byte	0xe17
 6851 1836 02       		.uleb128 0x2
 6852 1837 91       		.byte	0x91
 6853 1838 40       		.sleb128 -64
 6854 1839 13       		.uleb128 0x13
 6855 183a 26000000 		.4byte	.LVL298
 6856 183e 2C270000 		.4byte	0x272c
 6857 1842 57180000 		.4byte	0x1857
 6858 1846 14       		.uleb128 0x14
 6859 1847 01       		.uleb128 0x1
 6860 1848 50       		.byte	0x50
 6861 1849 02       		.uleb128 0x2
 6862 184a 91       		.byte	0x91
 6863 184b 4F       		.sleb128 -49
 6864 184c 14       		.uleb128 0x14
 6865 184d 01       		.uleb128 0x1
 6866 184e 51       		.byte	0x51
 6867 184f 01       		.uleb128 0x1
 6868 1850 30       		.byte	0x30
 6869 1851 14       		.uleb128 0x14
 6870 1852 01       		.uleb128 0x1
 6871 1853 52       		.byte	0x52
 6872 1854 01       		.uleb128 0x1
 6873 1855 33       		.byte	0x33
 6874 1856 00       		.byte	0
 6875 1857 13       		.uleb128 0x13
 6876 1858 3E000000 		.4byte	.LVL299
 6877 185c 190B0000 		.4byte	0xb19
 6878 1860 82180000 		.4byte	0x1882
 6879 1864 14       		.uleb128 0x14
 6880 1865 01       		.uleb128 0x1
 6881 1866 50       		.byte	0x50
 6882 1867 02       		.uleb128 0x2
 6883 1868 75       		.byte	0x75
 6884 1869 00       		.sleb128 0
 6885 186a 14       		.uleb128 0x14
 6886 186b 01       		.uleb128 0x1
 6887 186c 51       		.byte	0x51
 6888 186d 02       		.uleb128 0x2
 6889 186e 74       		.byte	0x74
ARM GAS  C:\Users\PRAJWA~1\AppData\Local\Temp\ccedcYia.s 			page 139


 6890 186f 00       		.sleb128 0
 6891 1870 14       		.uleb128 0x14
 6892 1871 01       		.uleb128 0x1
 6893 1872 52       		.byte	0x52
 6894 1873 02       		.uleb128 0x2
 6895 1874 91       		.byte	0x91
 6896 1875 54       		.sleb128 -44
 6897 1876 14       		.uleb128 0x14
 6898 1877 01       		.uleb128 0x1
 6899 1878 53       		.byte	0x53
 6900 1879 01       		.uleb128 0x1
 6901 187a 49       		.byte	0x49
 6902 187b 14       		.uleb128 0x14
 6903 187c 02       		.uleb128 0x2
 6904 187d 7D       		.byte	0x7d
 6905 187e 08       		.sleb128 8
 6906 187f 01       		.uleb128 0x1
 6907 1880 30       		.byte	0x30
 6908 1881 00       		.byte	0
 6909 1882 17       		.uleb128 0x17
 6910 1883 5A000000 		.4byte	.LVL306
 6911 1887 4B270000 		.4byte	0x274b
 6912 188b 00       		.byte	0
 6913 188c 1E       		.uleb128 0x1e
 6914 188d 1D020000 		.4byte	.LASF119
 6915 1891 01       		.byte	0x1
 6916 1892 E201     		.2byte	0x1e2
 6917 1894 7E000000 		.4byte	0x7e
 6918 1898 00000000 		.4byte	.LFB54
 6919 189c 68000000 		.4byte	.LFE54-.LFB54
 6920 18a0 01       		.uleb128 0x1
 6921 18a1 9C       		.byte	0x9c
 6922 18a2 45190000 		.4byte	0x1945
 6923 18a6 1F       		.uleb128 0x1f
 6924 18a7 7000     		.ascii	"p\000"
 6925 18a9 01       		.byte	0x1
 6926 18aa E201     		.2byte	0x1e2
 6927 18ac 430A0000 		.4byte	0xa43
 6928 18b0 E60A0000 		.4byte	.LLST60
 6929 18b4 20       		.uleb128 0x20
 6930 18b5 4C080000 		.4byte	.LASF93
 6931 18b9 01       		.byte	0x1
 6932 18ba E401     		.2byte	0x1e4
 6933 18bc 17010000 		.4byte	0x117
 6934 18c0 02       		.uleb128 0x2
 6935 18c1 91       		.byte	0x91
 6936 18c2 54       		.sleb128 -44
 6937 18c3 25       		.uleb128 0x25
 6938 18c4 70747200 		.ascii	"ptr\000"
 6939 18c8 01       		.byte	0x1
 6940 18c9 E401     		.2byte	0x1e4
 6941 18cb 11010000 		.4byte	0x111
 6942 18cf 120B0000 		.4byte	.LLST61
 6943 18d3 21       		.uleb128 0x21
 6944 18d4 ED010000 		.4byte	.LASF99
 6945 18d8 01       		.byte	0x1
 6946 18d9 E501     		.2byte	0x1e5
ARM GAS  C:\Users\PRAJWA~1\AppData\Local\Temp\ccedcYia.s 			page 140


 6947 18db 7E000000 		.4byte	0x7e
 6948 18df 4A0B0000 		.4byte	.LLST62
 6949 18e3 22       		.uleb128 0x22
 6950 18e4 636D6400 		.ascii	"cmd\000"
 6951 18e8 01       		.byte	0x1
 6952 18e9 E601     		.2byte	0x1e6
 6953 18eb 170E0000 		.4byte	0xe17
 6954 18ef 02       		.uleb128 0x2
 6955 18f0 91       		.byte	0x91
 6956 18f1 40       		.sleb128 -64
 6957 18f2 13       		.uleb128 0x13
 6958 18f3 26000000 		.4byte	.LVL310
 6959 18f7 2C270000 		.4byte	0x272c
 6960 18fb 10190000 		.4byte	0x1910
 6961 18ff 14       		.uleb128 0x14
 6962 1900 01       		.uleb128 0x1
 6963 1901 50       		.byte	0x50
 6964 1902 02       		.uleb128 0x2
 6965 1903 91       		.byte	0x91
 6966 1904 4F       		.sleb128 -49
 6967 1905 14       		.uleb128 0x14
 6968 1906 01       		.uleb128 0x1
 6969 1907 51       		.byte	0x51
 6970 1908 01       		.uleb128 0x1
 6971 1909 30       		.byte	0x30
 6972 190a 14       		.uleb128 0x14
 6973 190b 01       		.uleb128 0x1
 6974 190c 52       		.byte	0x52
 6975 190d 01       		.uleb128 0x1
 6976 190e 33       		.byte	0x33
 6977 190f 00       		.byte	0
 6978 1910 13       		.uleb128 0x13
 6979 1911 3E000000 		.4byte	.LVL311
 6980 1915 190B0000 		.4byte	0xb19
 6981 1919 3B190000 		.4byte	0x193b
 6982 191d 14       		.uleb128 0x14
 6983 191e 01       		.uleb128 0x1
 6984 191f 50       		.byte	0x50
 6985 1920 02       		.uleb128 0x2
 6986 1921 75       		.byte	0x75
 6987 1922 00       		.sleb128 0
 6988 1923 14       		.uleb128 0x14
 6989 1924 01       		.uleb128 0x1
 6990 1925 51       		.byte	0x51
 6991 1926 02       		.uleb128 0x2
 6992 1927 74       		.byte	0x74
 6993 1928 00       		.sleb128 0
 6994 1929 14       		.uleb128 0x14
 6995 192a 01       		.uleb128 0x1
 6996 192b 52       		.byte	0x52
 6997 192c 02       		.uleb128 0x2
 6998 192d 91       		.byte	0x91
 6999 192e 54       		.sleb128 -44
 7000 192f 14       		.uleb128 0x14
 7001 1930 01       		.uleb128 0x1
 7002 1931 53       		.byte	0x53
 7003 1932 01       		.uleb128 0x1
ARM GAS  C:\Users\PRAJWA~1\AppData\Local\Temp\ccedcYia.s 			page 141


 7004 1933 49       		.byte	0x49
 7005 1934 14       		.uleb128 0x14
 7006 1935 02       		.uleb128 0x2
 7007 1936 7D       		.byte	0x7d
 7008 1937 08       		.sleb128 8
 7009 1938 01       		.uleb128 0x1
 7010 1939 30       		.byte	0x30
 7011 193a 00       		.byte	0
 7012 193b 17       		.uleb128 0x17
 7013 193c 5A000000 		.4byte	.LVL318
 7014 1940 4B270000 		.4byte	0x274b
 7015 1944 00       		.byte	0
 7016 1945 1E       		.uleb128 0x1e
 7017 1946 AE060000 		.4byte	.LASF120
 7018 194a 01       		.byte	0x1
 7019 194b F301     		.2byte	0x1f3
 7020 194d 7E000000 		.4byte	0x7e
 7021 1951 00000000 		.4byte	.LFB55
 7022 1955 68000000 		.4byte	.LFE55-.LFB55
 7023 1959 01       		.uleb128 0x1
 7024 195a 9C       		.byte	0x9c
 7025 195b FE190000 		.4byte	0x19fe
 7026 195f 1F       		.uleb128 0x1f
 7027 1960 7000     		.ascii	"p\000"
 7028 1962 01       		.byte	0x1
 7029 1963 F301     		.2byte	0x1f3
 7030 1965 430A0000 		.4byte	0xa43
 7031 1969 680B0000 		.4byte	.LLST63
 7032 196d 20       		.uleb128 0x20
 7033 196e 4C080000 		.4byte	.LASF93
 7034 1972 01       		.byte	0x1
 7035 1973 F501     		.2byte	0x1f5
 7036 1975 17010000 		.4byte	0x117
 7037 1979 02       		.uleb128 0x2
 7038 197a 91       		.byte	0x91
 7039 197b 54       		.sleb128 -44
 7040 197c 25       		.uleb128 0x25
 7041 197d 70747200 		.ascii	"ptr\000"
 7042 1981 01       		.byte	0x1
 7043 1982 F501     		.2byte	0x1f5
 7044 1984 11010000 		.4byte	0x111
 7045 1988 940B0000 		.4byte	.LLST64
 7046 198c 21       		.uleb128 0x21
 7047 198d ED010000 		.4byte	.LASF99
 7048 1991 01       		.byte	0x1
 7049 1992 F601     		.2byte	0x1f6
 7050 1994 7E000000 		.4byte	0x7e
 7051 1998 CC0B0000 		.4byte	.LLST65
 7052 199c 22       		.uleb128 0x22
 7053 199d 636D6400 		.ascii	"cmd\000"
 7054 19a1 01       		.byte	0x1
 7055 19a2 F701     		.2byte	0x1f7
 7056 19a4 170E0000 		.4byte	0xe17
 7057 19a8 02       		.uleb128 0x2
 7058 19a9 91       		.byte	0x91
 7059 19aa 40       		.sleb128 -64
 7060 19ab 13       		.uleb128 0x13
ARM GAS  C:\Users\PRAJWA~1\AppData\Local\Temp\ccedcYia.s 			page 142


 7061 19ac 26000000 		.4byte	.LVL322
 7062 19b0 2C270000 		.4byte	0x272c
 7063 19b4 C9190000 		.4byte	0x19c9
 7064 19b8 14       		.uleb128 0x14
 7065 19b9 01       		.uleb128 0x1
 7066 19ba 50       		.byte	0x50
 7067 19bb 02       		.uleb128 0x2
 7068 19bc 91       		.byte	0x91
 7069 19bd 4F       		.sleb128 -49
 7070 19be 14       		.uleb128 0x14
 7071 19bf 01       		.uleb128 0x1
 7072 19c0 51       		.byte	0x51
 7073 19c1 01       		.uleb128 0x1
 7074 19c2 30       		.byte	0x30
 7075 19c3 14       		.uleb128 0x14
 7076 19c4 01       		.uleb128 0x1
 7077 19c5 52       		.byte	0x52
 7078 19c6 01       		.uleb128 0x1
 7079 19c7 33       		.byte	0x33
 7080 19c8 00       		.byte	0
 7081 19c9 13       		.uleb128 0x13
 7082 19ca 3E000000 		.4byte	.LVL323
 7083 19ce 190B0000 		.4byte	0xb19
 7084 19d2 F4190000 		.4byte	0x19f4
 7085 19d6 14       		.uleb128 0x14
 7086 19d7 01       		.uleb128 0x1
 7087 19d8 50       		.byte	0x50
 7088 19d9 02       		.uleb128 0x2
 7089 19da 75       		.byte	0x75
 7090 19db 00       		.sleb128 0
 7091 19dc 14       		.uleb128 0x14
 7092 19dd 01       		.uleb128 0x1
 7093 19de 51       		.byte	0x51
 7094 19df 02       		.uleb128 0x2
 7095 19e0 74       		.byte	0x74
 7096 19e1 00       		.sleb128 0
 7097 19e2 14       		.uleb128 0x14
 7098 19e3 01       		.uleb128 0x1
 7099 19e4 52       		.byte	0x52
 7100 19e5 02       		.uleb128 0x2
 7101 19e6 91       		.byte	0x91
 7102 19e7 54       		.sleb128 -44
 7103 19e8 14       		.uleb128 0x14
 7104 19e9 01       		.uleb128 0x1
 7105 19ea 53       		.byte	0x53
 7106 19eb 01       		.uleb128 0x1
 7107 19ec 49       		.byte	0x49
 7108 19ed 14       		.uleb128 0x14
 7109 19ee 02       		.uleb128 0x2
 7110 19ef 7D       		.byte	0x7d
 7111 19f0 08       		.sleb128 8
 7112 19f1 01       		.uleb128 0x1
 7113 19f2 30       		.byte	0x30
 7114 19f3 00       		.byte	0
 7115 19f4 17       		.uleb128 0x17
 7116 19f5 5A000000 		.4byte	.LVL330
 7117 19f9 4B270000 		.4byte	0x274b
ARM GAS  C:\Users\PRAJWA~1\AppData\Local\Temp\ccedcYia.s 			page 143


 7118 19fd 00       		.byte	0
 7119 19fe 1E       		.uleb128 0x1e
 7120 19ff 5B060000 		.4byte	.LASF121
 7121 1a03 01       		.byte	0x1
 7122 1a04 0402     		.2byte	0x204
 7123 1a06 7E000000 		.4byte	0x7e
 7124 1a0a 00000000 		.4byte	.LFB56
 7125 1a0e 9C000000 		.4byte	.LFE56-.LFB56
 7126 1a12 01       		.uleb128 0x1
 7127 1a13 9C       		.byte	0x9c
 7128 1a14 EE1A0000 		.4byte	0x1aee
 7129 1a18 1F       		.uleb128 0x1f
 7130 1a19 7000     		.ascii	"p\000"
 7131 1a1b 01       		.byte	0x1
 7132 1a1c 0402     		.2byte	0x204
 7133 1a1e 430A0000 		.4byte	0xa43
 7134 1a22 EA0B0000 		.4byte	.LLST66
 7135 1a26 26       		.uleb128 0x26
 7136 1a27 4C080000 		.4byte	.LASF93
 7137 1a2b 01       		.byte	0x1
 7138 1a2c 0402     		.2byte	0x204
 7139 1a2e 11010000 		.4byte	0x111
 7140 1a32 160C0000 		.4byte	.LLST67
 7141 1a36 21       		.uleb128 0x21
 7142 1a37 ED010000 		.4byte	.LASF99
 7143 1a3b 01       		.byte	0x1
 7144 1a3c 0602     		.2byte	0x206
 7145 1a3e 7E000000 		.4byte	0x7e
 7146 1a42 420C0000 		.4byte	.LLST68
 7147 1a46 25       		.uleb128 0x25
 7148 1a47 6900     		.ascii	"i\000"
 7149 1a49 01       		.byte	0x1
 7150 1a4a 0602     		.2byte	0x206
 7151 1a4c 7E000000 		.4byte	0x7e
 7152 1a50 6B0C0000 		.4byte	.LLST69
 7153 1a54 25       		.uleb128 0x25
 7154 1a55 70747200 		.ascii	"ptr\000"
 7155 1a59 01       		.byte	0x1
 7156 1a5a 0702     		.2byte	0x207
 7157 1a5c 11010000 		.4byte	0x111
 7158 1a60 8A0C0000 		.4byte	.LLST70
 7159 1a64 22       		.uleb128 0x22
 7160 1a65 636D6400 		.ascii	"cmd\000"
 7161 1a69 01       		.byte	0x1
 7162 1a6a 0802     		.2byte	0x208
 7163 1a6c EE1A0000 		.4byte	0x1aee
 7164 1a70 02       		.uleb128 0x2
 7165 1a71 91       		.byte	0x91
 7166 1a72 5C       		.sleb128 -36
 7167 1a73 13       		.uleb128 0x13
 7168 1a74 2A000000 		.4byte	.LVL335
 7169 1a78 FD260000 		.4byte	0x26fd
 7170 1a7c 8A1A0000 		.4byte	0x1a8a
 7171 1a80 14       		.uleb128 0x14
 7172 1a81 01       		.uleb128 0x1
 7173 1a82 50       		.byte	0x50
 7174 1a83 05       		.uleb128 0x5
ARM GAS  C:\Users\PRAJWA~1\AppData\Local\Temp\ccedcYia.s 			page 144


 7175 1a84 03       		.byte	0x3
 7176 1a85 FC000000 		.4byte	.LC48
 7177 1a89 00       		.byte	0
 7178 1a8a 13       		.uleb128 0x13
 7179 1a8b 42000000 		.4byte	.LVL336
 7180 1a8f 190B0000 		.4byte	0xb19
 7181 1a93 B81A0000 		.4byte	0x1ab8
 7182 1a97 14       		.uleb128 0x14
 7183 1a98 01       		.uleb128 0x1
 7184 1a99 50       		.byte	0x50
 7185 1a9a 02       		.uleb128 0x2
 7186 1a9b 74       		.byte	0x74
 7187 1a9c 00       		.sleb128 0
 7188 1a9d 14       		.uleb128 0x14
 7189 1a9e 01       		.uleb128 0x1
 7190 1a9f 51       		.byte	0x51
 7191 1aa0 02       		.uleb128 0x2
 7192 1aa1 75       		.byte	0x75
 7193 1aa2 00       		.sleb128 0
 7194 1aa3 14       		.uleb128 0x14
 7195 1aa4 01       		.uleb128 0x1
 7196 1aa5 52       		.byte	0x52
 7197 1aa6 02       		.uleb128 0x2
 7198 1aa7 77       		.byte	0x77
 7199 1aa8 00       		.sleb128 0
 7200 1aa9 14       		.uleb128 0x14
 7201 1aaa 01       		.uleb128 0x1
 7202 1aab 53       		.byte	0x53
 7203 1aac 03       		.uleb128 0x3
 7204 1aad 0A       		.byte	0xa
 7205 1aae E803     		.2byte	0x3e8
 7206 1ab0 14       		.uleb128 0x14
 7207 1ab1 02       		.uleb128 0x2
 7208 1ab2 7D       		.byte	0x7d
 7209 1ab3 08       		.sleb128 8
 7210 1ab4 02       		.uleb128 0x2
 7211 1ab5 76       		.byte	0x76
 7212 1ab6 00       		.sleb128 0
 7213 1ab7 00       		.byte	0
 7214 1ab8 13       		.uleb128 0x13
 7215 1ab9 66000000 		.4byte	.LVL344
 7216 1abd 21270000 		.4byte	0x2721
 7217 1ac1 DA1A0000 		.4byte	0x1ada
 7218 1ac5 14       		.uleb128 0x14
 7219 1ac6 01       		.uleb128 0x1
 7220 1ac7 50       		.byte	0x50
 7221 1ac8 02       		.uleb128 0x2
 7222 1ac9 74       		.byte	0x74
 7223 1aca 00       		.sleb128 0
 7224 1acb 14       		.uleb128 0x14
 7225 1acc 01       		.uleb128 0x1
 7226 1acd 51       		.byte	0x51
 7227 1ace 05       		.uleb128 0x5
 7228 1acf 03       		.byte	0x3
 7229 1ad0 00000000 		.4byte	.LC1
 7230 1ad4 14       		.uleb128 0x14
 7231 1ad5 01       		.uleb128 0x1
ARM GAS  C:\Users\PRAJWA~1\AppData\Local\Temp\ccedcYia.s 			page 145


 7232 1ad6 52       		.byte	0x52
 7233 1ad7 01       		.uleb128 0x1
 7234 1ad8 36       		.byte	0x36
 7235 1ad9 00       		.byte	0
 7236 1ada 15       		.uleb128 0x15
 7237 1adb 76000000 		.4byte	.LVL346
 7238 1adf FD260000 		.4byte	0x26fd
 7239 1ae3 14       		.uleb128 0x14
 7240 1ae4 01       		.uleb128 0x1
 7241 1ae5 50       		.byte	0x50
 7242 1ae6 05       		.uleb128 0x5
 7243 1ae7 03       		.byte	0x3
 7244 1ae8 08010000 		.4byte	.LC51
 7245 1aec 00       		.byte	0
 7246 1aed 00       		.byte	0
 7247 1aee 08       		.uleb128 0x8
 7248 1aef DF000000 		.4byte	0xdf
 7249 1af3 FE1A0000 		.4byte	0x1afe
 7250 1af7 09       		.uleb128 0x9
 7251 1af8 0A010000 		.4byte	0x10a
 7252 1afc 0B       		.byte	0xb
 7253 1afd 00       		.byte	0
 7254 1afe 1E       		.uleb128 0x1e
 7255 1aff 2F000000 		.4byte	.LASF122
 7256 1b03 01       		.byte	0x1
 7257 1b04 1B02     		.2byte	0x21b
 7258 1b06 7E000000 		.4byte	0x7e
 7259 1b0a 00000000 		.4byte	.LFB57
 7260 1b0e 74000000 		.4byte	.LFE57-.LFB57
 7261 1b12 01       		.uleb128 0x1
 7262 1b13 9C       		.byte	0x9c
 7263 1b14 3B1C0000 		.4byte	0x1c3b
 7264 1b18 1F       		.uleb128 0x1f
 7265 1b19 7000     		.ascii	"p\000"
 7266 1b1b 01       		.byte	0x1
 7267 1b1c 1B02     		.2byte	0x21b
 7268 1b1e 430A0000 		.4byte	0xa43
 7269 1b22 A80C0000 		.4byte	.LLST71
 7270 1b26 26       		.uleb128 0x26
 7271 1b27 70030000 		.4byte	.LASF79
 7272 1b2b 01       		.byte	0x1
 7273 1b2c 1B02     		.2byte	0x21b
 7274 1b2e 11010000 		.4byte	0x111
 7275 1b32 D40C0000 		.4byte	.LLST72
 7276 1b36 26       		.uleb128 0x26
 7277 1b37 26000000 		.4byte	.LASF80
 7278 1b3b 01       		.byte	0x1
 7279 1b3c 1B02     		.2byte	0x21b
 7280 1b3e 11010000 		.4byte	0x111
 7281 1b42 000D0000 		.4byte	.LLST73
 7282 1b46 20       		.uleb128 0x20
 7283 1b47 C1000000 		.4byte	.LASF102
 7284 1b4b 01       		.byte	0x1
 7285 1b4c 1D02     		.2byte	0x21d
 7286 1b4e CC040000 		.4byte	0x4cc
 7287 1b52 03       		.uleb128 0x3
 7288 1b53 91       		.byte	0x91
ARM GAS  C:\Users\PRAJWA~1\AppData\Local\Temp\ccedcYia.s 			page 146


 7289 1b54 8C7F     		.sleb128 -116
 7290 1b56 20       		.uleb128 0x20
 7291 1b57 4C080000 		.4byte	.LASF93
 7292 1b5b 01       		.byte	0x1
 7293 1b5c 1D02     		.2byte	0x21d
 7294 1b5e 3B1C0000 		.4byte	0x1c3b
 7295 1b62 03       		.uleb128 0x3
 7296 1b63 91       		.byte	0x91
 7297 1b64 C47D     		.sleb128 -316
 7298 1b66 21       		.uleb128 0x21
 7299 1b67 ED010000 		.4byte	.LASF99
 7300 1b6b 01       		.byte	0x1
 7301 1b6c 1E02     		.2byte	0x21e
 7302 1b6e 7E000000 		.4byte	0x7e
 7303 1b72 2C0D0000 		.4byte	.LLST74
 7304 1b76 13       		.uleb128 0x13
 7305 1b77 10000000 		.4byte	.LVL352
 7306 1b7b FD260000 		.4byte	0x26fd
 7307 1b7f 8D1B0000 		.4byte	0x1b8d
 7308 1b83 14       		.uleb128 0x14
 7309 1b84 01       		.uleb128 0x1
 7310 1b85 50       		.byte	0x50
 7311 1b86 05       		.uleb128 0x5
 7312 1b87 03       		.byte	0x3
 7313 1b88 1C010000 		.4byte	.LC53
 7314 1b8c 00       		.byte	0
 7315 1b8d 13       		.uleb128 0x13
 7316 1b8e 16000000 		.4byte	.LVL353
 7317 1b92 FD260000 		.4byte	0x26fd
 7318 1b96 A11B0000 		.4byte	0x1ba1
 7319 1b9a 14       		.uleb128 0x14
 7320 1b9b 01       		.uleb128 0x1
 7321 1b9c 50       		.byte	0x50
 7322 1b9d 02       		.uleb128 0x2
 7323 1b9e 74       		.byte	0x74
 7324 1b9f 00       		.sleb128 0
 7325 1ba0 00       		.byte	0
 7326 1ba1 13       		.uleb128 0x13
 7327 1ba2 1C000000 		.4byte	.LVL354
 7328 1ba6 FD260000 		.4byte	0x26fd
 7329 1baa B81B0000 		.4byte	0x1bb8
 7330 1bae 14       		.uleb128 0x14
 7331 1baf 01       		.uleb128 0x1
 7332 1bb0 50       		.byte	0x50
 7333 1bb1 05       		.uleb128 0x5
 7334 1bb2 03       		.byte	0x3
 7335 1bb3 34010000 		.4byte	.LC55
 7336 1bb7 00       		.byte	0
 7337 1bb8 13       		.uleb128 0x13
 7338 1bb9 28000000 		.4byte	.LVL355
 7339 1bbd 40270000 		.4byte	0x2740
 7340 1bc1 E21B0000 		.4byte	0x1be2
 7341 1bc5 14       		.uleb128 0x14
 7342 1bc6 01       		.uleb128 0x1
 7343 1bc7 50       		.byte	0x50
 7344 1bc8 03       		.uleb128 0x3
 7345 1bc9 91       		.byte	0x91
ARM GAS  C:\Users\PRAJWA~1\AppData\Local\Temp\ccedcYia.s 			page 147


 7346 1bca 8C7F     		.sleb128 -116
 7347 1bcc 14       		.uleb128 0x14
 7348 1bcd 01       		.uleb128 0x1
 7349 1bce 51       		.byte	0x51
 7350 1bcf 05       		.uleb128 0x5
 7351 1bd0 03       		.byte	0x3
 7352 1bd1 3C010000 		.4byte	.LC57
 7353 1bd5 14       		.uleb128 0x14
 7354 1bd6 01       		.uleb128 0x1
 7355 1bd7 52       		.byte	0x52
 7356 1bd8 02       		.uleb128 0x2
 7357 1bd9 74       		.byte	0x74
 7358 1bda 00       		.sleb128 0
 7359 1bdb 14       		.uleb128 0x14
 7360 1bdc 01       		.uleb128 0x1
 7361 1bdd 53       		.byte	0x53
 7362 1bde 02       		.uleb128 0x2
 7363 1bdf 76       		.byte	0x76
 7364 1be0 00       		.sleb128 0
 7365 1be1 00       		.byte	0
 7366 1be2 13       		.uleb128 0x13
 7367 1be3 40000000 		.4byte	.LVL356
 7368 1be7 190B0000 		.4byte	0xb19
 7369 1beb 101C0000 		.4byte	0x1c10
 7370 1bef 14       		.uleb128 0x14
 7371 1bf0 01       		.uleb128 0x1
 7372 1bf1 50       		.byte	0x50
 7373 1bf2 02       		.uleb128 0x2
 7374 1bf3 75       		.byte	0x75
 7375 1bf4 00       		.sleb128 0
 7376 1bf5 14       		.uleb128 0x14
 7377 1bf6 01       		.uleb128 0x1
 7378 1bf7 51       		.byte	0x51
 7379 1bf8 03       		.uleb128 0x3
 7380 1bf9 91       		.byte	0x91
 7381 1bfa 8C7F     		.sleb128 -116
 7382 1bfc 14       		.uleb128 0x14
 7383 1bfd 01       		.uleb128 0x1
 7384 1bfe 52       		.byte	0x52
 7385 1bff 03       		.uleb128 0x3
 7386 1c00 91       		.byte	0x91
 7387 1c01 C47D     		.sleb128 -316
 7388 1c03 14       		.uleb128 0x14
 7389 1c04 01       		.uleb128 0x1
 7390 1c05 53       		.byte	0x53
 7391 1c06 02       		.uleb128 0x2
 7392 1c07 08       		.byte	0x8
 7393 1c08 C8       		.byte	0xc8
 7394 1c09 14       		.uleb128 0x14
 7395 1c0a 02       		.uleb128 0x2
 7396 1c0b 7D       		.byte	0x7d
 7397 1c0c 08       		.sleb128 8
 7398 1c0d 01       		.uleb128 0x1
 7399 1c0e 30       		.byte	0x30
 7400 1c0f 00       		.byte	0
 7401 1c10 13       		.uleb128 0x13
 7402 1c11 4A000000 		.4byte	.LVL358
ARM GAS  C:\Users\PRAJWA~1\AppData\Local\Temp\ccedcYia.s 			page 148


 7403 1c15 FD260000 		.4byte	0x26fd
 7404 1c19 271C0000 		.4byte	0x1c27
 7405 1c1d 14       		.uleb128 0x14
 7406 1c1e 01       		.uleb128 0x1
 7407 1c1f 50       		.byte	0x50
 7408 1c20 05       		.uleb128 0x5
 7409 1c21 03       		.byte	0x3
 7410 1c22 4C010000 		.4byte	.LC59
 7411 1c26 00       		.byte	0
 7412 1c27 15       		.uleb128 0x15
 7413 1c28 54000000 		.4byte	.LVL361
 7414 1c2c FD260000 		.4byte	0x26fd
 7415 1c30 14       		.uleb128 0x14
 7416 1c31 01       		.uleb128 0x1
 7417 1c32 50       		.byte	0x50
 7418 1c33 05       		.uleb128 0x5
 7419 1c34 03       		.byte	0x3
 7420 1c35 58010000 		.4byte	.LC61
 7421 1c39 00       		.byte	0
 7422 1c3a 00       		.byte	0
 7423 1c3b 08       		.uleb128 0x8
 7424 1c3c DF000000 		.4byte	0xdf
 7425 1c40 4B1C0000 		.4byte	0x1c4b
 7426 1c44 09       		.uleb128 0x9
 7427 1c45 0A010000 		.4byte	0x10a
 7428 1c49 C7       		.byte	0xc7
 7429 1c4a 00       		.byte	0
 7430 1c4b 1E       		.uleb128 0x1e
 7431 1c4c E2060000 		.4byte	.LASF123
 7432 1c50 01       		.byte	0x1
 7433 1c51 2802     		.2byte	0x228
 7434 1c53 7E000000 		.4byte	0x7e
 7435 1c57 00000000 		.4byte	.LFB58
 7436 1c5b 44000000 		.4byte	.LFE58-.LFB58
 7437 1c5f 01       		.uleb128 0x1
 7438 1c60 9C       		.byte	0x9c
 7439 1c61 CF1C0000 		.4byte	0x1ccf
 7440 1c65 1F       		.uleb128 0x1f
 7441 1c66 7000     		.ascii	"p\000"
 7442 1c68 01       		.byte	0x1
 7443 1c69 2802     		.2byte	0x228
 7444 1c6b 430A0000 		.4byte	0xa43
 7445 1c6f 4A0D0000 		.4byte	.LLST75
 7446 1c73 21       		.uleb128 0x21
 7447 1c74 ED010000 		.4byte	.LASF99
 7448 1c78 01       		.byte	0x1
 7449 1c79 2A02     		.2byte	0x22a
 7450 1c7b 7E000000 		.4byte	0x7e
 7451 1c7f 6B0D0000 		.4byte	.LLST76
 7452 1c83 20       		.uleb128 0x20
 7453 1c84 4C080000 		.4byte	.LASF93
 7454 1c88 01       		.byte	0x1
 7455 1c89 2B02     		.2byte	0x22b
 7456 1c8b 3B1C0000 		.4byte	0x1c3b
 7457 1c8f 03       		.uleb128 0x3
 7458 1c90 91       		.byte	0x91
 7459 1c91 A87E     		.sleb128 -216
ARM GAS  C:\Users\PRAJWA~1\AppData\Local\Temp\ccedcYia.s 			page 149


 7460 1c93 22       		.uleb128 0x22
 7461 1c94 636D6400 		.ascii	"cmd\000"
 7462 1c98 01       		.byte	0x1
 7463 1c99 2C02     		.2byte	0x22c
 7464 1c9b 2C140000 		.4byte	0x142c
 7465 1c9f 03       		.uleb128 0x3
 7466 1ca0 91       		.byte	0x91
 7467 1ca1 9C7E     		.sleb128 -228
 7468 1ca3 15       		.uleb128 0x15
 7469 1ca4 2A000000 		.4byte	.LVL366
 7470 1ca8 190B0000 		.4byte	0xb19
 7471 1cac 14       		.uleb128 0x14
 7472 1cad 01       		.uleb128 0x1
 7473 1cae 50       		.byte	0x50
 7474 1caf 03       		.uleb128 0x3
 7475 1cb0 F3       		.byte	0xf3
 7476 1cb1 01       		.uleb128 0x1
 7477 1cb2 50       		.byte	0x50
 7478 1cb3 14       		.uleb128 0x14
 7479 1cb4 01       		.uleb128 0x1
 7480 1cb5 51       		.byte	0x51
 7481 1cb6 03       		.uleb128 0x3
 7482 1cb7 91       		.byte	0x91
 7483 1cb8 9C7E     		.sleb128 -228
 7484 1cba 14       		.uleb128 0x14
 7485 1cbb 01       		.uleb128 0x1
 7486 1cbc 52       		.byte	0x52
 7487 1cbd 03       		.uleb128 0x3
 7488 1cbe 91       		.byte	0x91
 7489 1cbf A87E     		.sleb128 -216
 7490 1cc1 14       		.uleb128 0x14
 7491 1cc2 01       		.uleb128 0x1
 7492 1cc3 53       		.byte	0x53
 7493 1cc4 02       		.uleb128 0x2
 7494 1cc5 08       		.byte	0x8
 7495 1cc6 C8       		.byte	0xc8
 7496 1cc7 14       		.uleb128 0x14
 7497 1cc8 02       		.uleb128 0x2
 7498 1cc9 7D       		.byte	0x7d
 7499 1cca 08       		.sleb128 8
 7500 1ccb 01       		.uleb128 0x1
 7501 1ccc 30       		.byte	0x30
 7502 1ccd 00       		.byte	0
 7503 1cce 00       		.byte	0
 7504 1ccf 1E       		.uleb128 0x1e
 7505 1cd0 E1040000 		.4byte	.LASF124
 7506 1cd4 01       		.byte	0x1
 7507 1cd5 3302     		.2byte	0x233
 7508 1cd7 7E000000 		.4byte	0x7e
 7509 1cdb 00000000 		.4byte	.LFB59
 7510 1cdf 84000000 		.4byte	.LFE59-.LFB59
 7511 1ce3 01       		.uleb128 0x1
 7512 1ce4 9C       		.byte	0x9c
 7513 1ce5 9E1D0000 		.4byte	0x1d9e
 7514 1ce9 1F       		.uleb128 0x1f
 7515 1cea 7000     		.ascii	"p\000"
 7516 1cec 01       		.byte	0x1
ARM GAS  C:\Users\PRAJWA~1\AppData\Local\Temp\ccedcYia.s 			page 150


 7517 1ced 3302     		.2byte	0x233
 7518 1cef 430A0000 		.4byte	0xa43
 7519 1cf3 890D0000 		.4byte	.LLST77
 7520 1cf7 26       		.uleb128 0x26
 7521 1cf8 70030000 		.4byte	.LASF79
 7522 1cfc 01       		.byte	0x1
 7523 1cfd 3302     		.2byte	0x233
 7524 1cff 11010000 		.4byte	0x111
 7525 1d03 B50D0000 		.4byte	.LLST78
 7526 1d07 21       		.uleb128 0x21
 7527 1d08 ED010000 		.4byte	.LASF99
 7528 1d0c 01       		.byte	0x1
 7529 1d0d 3502     		.2byte	0x235
 7530 1d0f 7E000000 		.4byte	0x7e
 7531 1d13 E10D0000 		.4byte	.LLST79
 7532 1d17 25       		.uleb128 0x25
 7533 1d18 6900     		.ascii	"i\000"
 7534 1d1a 01       		.byte	0x1
 7535 1d1b 3502     		.2byte	0x235
 7536 1d1d 7E000000 		.4byte	0x7e
 7537 1d21 FF0D0000 		.4byte	.LLST80
 7538 1d25 20       		.uleb128 0x20
 7539 1d26 4C080000 		.4byte	.LASF93
 7540 1d2a 01       		.byte	0x1
 7541 1d2b 3602     		.2byte	0x236
 7542 1d2d 3B1C0000 		.4byte	0x1c3b
 7543 1d31 03       		.uleb128 0x3
 7544 1d32 91       		.byte	0x91
 7545 1d33 A87E     		.sleb128 -216
 7546 1d35 25       		.uleb128 0x25
 7547 1d36 70747200 		.ascii	"ptr\000"
 7548 1d3a 01       		.byte	0x1
 7549 1d3b 3602     		.2byte	0x236
 7550 1d3d 11010000 		.4byte	0x111
 7551 1d41 1E0E0000 		.4byte	.LLST81
 7552 1d45 22       		.uleb128 0x22
 7553 1d46 636D6400 		.ascii	"cmd\000"
 7554 1d4a 01       		.byte	0x1
 7555 1d4b 3702     		.2byte	0x237
 7556 1d4d 9E1D0000 		.4byte	0x1d9e
 7557 1d51 03       		.uleb128 0x3
 7558 1d52 91       		.byte	0x91
 7559 1d53 987E     		.sleb128 -232
 7560 1d55 13       		.uleb128 0x13
 7561 1d56 28000000 		.4byte	.LVL373
 7562 1d5a 2C270000 		.4byte	0x272c
 7563 1d5e 741D0000 		.4byte	0x1d74
 7564 1d62 14       		.uleb128 0x14
 7565 1d63 01       		.uleb128 0x1
 7566 1d64 50       		.byte	0x50
 7567 1d65 03       		.uleb128 0x3
 7568 1d66 91       		.byte	0x91
 7569 1d67 A37E     		.sleb128 -221
 7570 1d69 14       		.uleb128 0x14
 7571 1d6a 01       		.uleb128 0x1
 7572 1d6b 51       		.byte	0x51
 7573 1d6c 01       		.uleb128 0x1
ARM GAS  C:\Users\PRAJWA~1\AppData\Local\Temp\ccedcYia.s 			page 151


 7574 1d6d 30       		.byte	0x30
 7575 1d6e 14       		.uleb128 0x14
 7576 1d6f 01       		.uleb128 0x1
 7577 1d70 52       		.byte	0x52
 7578 1d71 01       		.uleb128 0x1
 7579 1d72 32       		.byte	0x32
 7580 1d73 00       		.byte	0
 7581 1d74 15       		.uleb128 0x15
 7582 1d75 40000000 		.4byte	.LVL374
 7583 1d79 190B0000 		.4byte	0xb19
 7584 1d7d 14       		.uleb128 0x14
 7585 1d7e 01       		.uleb128 0x1
 7586 1d7f 50       		.byte	0x50
 7587 1d80 02       		.uleb128 0x2
 7588 1d81 75       		.byte	0x75
 7589 1d82 00       		.sleb128 0
 7590 1d83 14       		.uleb128 0x14
 7591 1d84 01       		.uleb128 0x1
 7592 1d85 51       		.byte	0x51
 7593 1d86 02       		.uleb128 0x2
 7594 1d87 76       		.byte	0x76
 7595 1d88 00       		.sleb128 0
 7596 1d89 14       		.uleb128 0x14
 7597 1d8a 01       		.uleb128 0x1
 7598 1d8b 52       		.byte	0x52
 7599 1d8c 03       		.uleb128 0x3
 7600 1d8d 91       		.byte	0x91
 7601 1d8e A87E     		.sleb128 -216
 7602 1d90 14       		.uleb128 0x14
 7603 1d91 01       		.uleb128 0x1
 7604 1d92 53       		.byte	0x53
 7605 1d93 02       		.uleb128 0x2
 7606 1d94 08       		.byte	0x8
 7607 1d95 C8       		.byte	0xc8
 7608 1d96 14       		.uleb128 0x14
 7609 1d97 02       		.uleb128 0x2
 7610 1d98 7D       		.byte	0x7d
 7611 1d99 08       		.sleb128 8
 7612 1d9a 01       		.uleb128 0x1
 7613 1d9b 30       		.byte	0x30
 7614 1d9c 00       		.byte	0
 7615 1d9d 00       		.byte	0
 7616 1d9e 08       		.uleb128 0x8
 7617 1d9f DF000000 		.4byte	0xdf
 7618 1da3 AE1D0000 		.4byte	0x1dae
 7619 1da7 09       		.uleb128 0x9
 7620 1da8 0A010000 		.4byte	0x10a
 7621 1dac 0C       		.byte	0xc
 7622 1dad 00       		.byte	0
 7623 1dae 1E       		.uleb128 0x1e
 7624 1daf E7030000 		.4byte	.LASF125
 7625 1db3 01       		.byte	0x1
 7626 1db4 4D02     		.2byte	0x24d
 7627 1db6 7E000000 		.4byte	0x7e
 7628 1dba 00000000 		.4byte	.LFB60
 7629 1dbe B0000000 		.4byte	.LFE60-.LFB60
 7630 1dc2 01       		.uleb128 0x1
ARM GAS  C:\Users\PRAJWA~1\AppData\Local\Temp\ccedcYia.s 			page 152


 7631 1dc3 9C       		.byte	0x9c
 7632 1dc4 671F0000 		.4byte	0x1f67
 7633 1dc8 1F       		.uleb128 0x1f
 7634 1dc9 7000     		.ascii	"p\000"
 7635 1dcb 01       		.byte	0x1
 7636 1dcc 4D02     		.2byte	0x24d
 7637 1dce 430A0000 		.4byte	0xa43
 7638 1dd2 580E0000 		.4byte	.LLST82
 7639 1dd6 26       		.uleb128 0x26
 7640 1dd7 EF070000 		.4byte	.LASF126
 7641 1ddb 01       		.byte	0x1
 7642 1ddc 4D02     		.2byte	0x24d
 7643 1dde 11010000 		.4byte	0x111
 7644 1de2 780E0000 		.4byte	.LLST83
 7645 1de6 1F       		.uleb128 0x1f
 7646 1de7 6F707400 		.ascii	"opt\000"
 7647 1deb 01       		.byte	0x1
 7648 1dec 4D02     		.2byte	0x24d
 7649 1dee 11010000 		.4byte	0x111
 7650 1df2 D60E0000 		.4byte	.LLST84
 7651 1df6 26       		.uleb128 0x26
 7652 1df7 27020000 		.4byte	.LASF127
 7653 1dfb 01       		.byte	0x1
 7654 1dfc 4D02     		.2byte	0x24d
 7655 1dfe 11010000 		.4byte	0x111
 7656 1e02 020F0000 		.4byte	.LLST85
 7657 1e06 28       		.uleb128 0x28
 7658 1e07 4B030000 		.4byte	.LASF128
 7659 1e0b 01       		.byte	0x1
 7660 1e0c 4D02     		.2byte	0x24d
 7661 1e0e 11010000 		.4byte	0x111
 7662 1e12 02       		.uleb128 0x2
 7663 1e13 91       		.byte	0x91
 7664 1e14 00       		.sleb128 0
 7665 1e15 28       		.uleb128 0x28
 7666 1e16 EC040000 		.4byte	.LASF129
 7667 1e1a 01       		.byte	0x1
 7668 1e1b 4D02     		.2byte	0x24d
 7669 1e1d 7E000000 		.4byte	0x7e
 7670 1e21 02       		.uleb128 0x2
 7671 1e22 91       		.byte	0x91
 7672 1e23 04       		.sleb128 4
 7673 1e24 21       		.uleb128 0x21
 7674 1e25 7D070000 		.4byte	.LASF130
 7675 1e29 01       		.byte	0x1
 7676 1e2a 4F02     		.2byte	0x24f
 7677 1e2c 7E000000 		.4byte	0x7e
 7678 1e30 2E0F0000 		.4byte	.LLST86
 7679 1e34 21       		.uleb128 0x21
 7680 1e35 1F000000 		.4byte	.LASF131
 7681 1e39 01       		.byte	0x1
 7682 1e3a 4F02     		.2byte	0x24f
 7683 1e3c 7E000000 		.4byte	0x7e
 7684 1e40 4D0F0000 		.4byte	.LLST87
 7685 1e44 21       		.uleb128 0x21
 7686 1e45 36070000 		.4byte	.LASF132
 7687 1e49 01       		.byte	0x1
ARM GAS  C:\Users\PRAJWA~1\AppData\Local\Temp\ccedcYia.s 			page 153


 7688 1e4a 4F02     		.2byte	0x24f
 7689 1e4c 7E000000 		.4byte	0x7e
 7690 1e50 6C0F0000 		.4byte	.LLST88
 7691 1e54 21       		.uleb128 0x21
 7692 1e55 ED010000 		.4byte	.LASF99
 7693 1e59 01       		.byte	0x1
 7694 1e5a 4F02     		.2byte	0x24f
 7695 1e5c 7E000000 		.4byte	0x7e
 7696 1e60 8C0F0000 		.4byte	.LLST89
 7697 1e64 20       		.uleb128 0x20
 7698 1e65 C1000000 		.4byte	.LASF102
 7699 1e69 01       		.byte	0x1
 7700 1e6a 5002     		.2byte	0x250
 7701 1e6c 3B1C0000 		.4byte	0x1c3b
 7702 1e70 03       		.uleb128 0x3
 7703 1e71 91       		.byte	0x91
 7704 1e72 A07E     		.sleb128 -224
 7705 1e74 20       		.uleb128 0x20
 7706 1e75 4C080000 		.4byte	.LASF93
 7707 1e79 01       		.byte	0x1
 7708 1e7a 5002     		.2byte	0x250
 7709 1e7c 3B1C0000 		.4byte	0x1c3b
 7710 1e80 03       		.uleb128 0x3
 7711 1e81 91       		.byte	0x91
 7712 1e82 D87C     		.sleb128 -424
 7713 1e84 13       		.uleb128 0x13
 7714 1e85 14000000 		.4byte	.LVL394
 7715 1e89 56270000 		.4byte	0x2756
 7716 1e8d A11E0000 		.4byte	0x1ea1
 7717 1e91 14       		.uleb128 0x14
 7718 1e92 01       		.uleb128 0x1
 7719 1e93 50       		.byte	0x50
 7720 1e94 02       		.uleb128 0x2
 7721 1e95 75       		.byte	0x75
 7722 1e96 00       		.sleb128 0
 7723 1e97 14       		.uleb128 0x14
 7724 1e98 01       		.uleb128 0x1
 7725 1e99 51       		.byte	0x51
 7726 1e9a 05       		.uleb128 0x5
 7727 1e9b 03       		.byte	0x3
 7728 1e9c 6C010000 		.4byte	.LC66
 7729 1ea0 00       		.byte	0
 7730 1ea1 13       		.uleb128 0x13
 7731 1ea2 20000000 		.4byte	.LVL395
 7732 1ea6 56270000 		.4byte	0x2756
 7733 1eaa BE1E0000 		.4byte	0x1ebe
 7734 1eae 14       		.uleb128 0x14
 7735 1eaf 01       		.uleb128 0x1
 7736 1eb0 50       		.byte	0x50
 7737 1eb1 02       		.uleb128 0x2
 7738 1eb2 75       		.byte	0x75
 7739 1eb3 00       		.sleb128 0
 7740 1eb4 14       		.uleb128 0x14
 7741 1eb5 01       		.uleb128 0x1
 7742 1eb6 51       		.byte	0x51
 7743 1eb7 05       		.uleb128 0x5
 7744 1eb8 03       		.byte	0x3
ARM GAS  C:\Users\PRAJWA~1\AppData\Local\Temp\ccedcYia.s 			page 154


 7745 1eb9 74010000 		.4byte	.LC68
 7746 1ebd 00       		.byte	0
 7747 1ebe 13       		.uleb128 0x13
 7748 1ebf 40000000 		.4byte	.LVL401
 7749 1ec3 56270000 		.4byte	0x2756
 7750 1ec7 DB1E0000 		.4byte	0x1edb
 7751 1ecb 14       		.uleb128 0x14
 7752 1ecc 01       		.uleb128 0x1
 7753 1ecd 50       		.byte	0x50
 7754 1ece 02       		.uleb128 0x2
 7755 1ecf 74       		.byte	0x74
 7756 1ed0 00       		.sleb128 0
 7757 1ed1 14       		.uleb128 0x14
 7758 1ed2 01       		.uleb128 0x1
 7759 1ed3 51       		.byte	0x51
 7760 1ed4 05       		.uleb128 0x5
 7761 1ed5 03       		.byte	0x3
 7762 1ed6 7C010000 		.4byte	.LC70
 7763 1eda 00       		.byte	0
 7764 1edb 13       		.uleb128 0x13
 7765 1edc 4C000000 		.4byte	.LVL402
 7766 1ee0 56270000 		.4byte	0x2756
 7767 1ee4 F81E0000 		.4byte	0x1ef8
 7768 1ee8 14       		.uleb128 0x14
 7769 1ee9 01       		.uleb128 0x1
 7770 1eea 50       		.byte	0x50
 7771 1eeb 02       		.uleb128 0x2
 7772 1eec 74       		.byte	0x74
 7773 1eed 00       		.sleb128 0
 7774 1eee 14       		.uleb128 0x14
 7775 1eef 01       		.uleb128 0x1
 7776 1ef0 51       		.byte	0x51
 7777 1ef1 05       		.uleb128 0x5
 7778 1ef2 03       		.byte	0x3
 7779 1ef3 84010000 		.4byte	.LC72
 7780 1ef7 00       		.byte	0
 7781 1ef8 13       		.uleb128 0x13
 7782 1ef9 70000000 		.4byte	.LVL404
 7783 1efd 40270000 		.4byte	0x2740
 7784 1f01 3A1F0000 		.4byte	0x1f3a
 7785 1f05 14       		.uleb128 0x14
 7786 1f06 01       		.uleb128 0x1
 7787 1f07 50       		.byte	0x50
 7788 1f08 03       		.uleb128 0x3
 7789 1f09 91       		.byte	0x91
 7790 1f0a A07E     		.sleb128 -224
 7791 1f0c 14       		.uleb128 0x14
 7792 1f0d 01       		.uleb128 0x1
 7793 1f0e 51       		.byte	0x51
 7794 1f0f 05       		.uleb128 0x5
 7795 1f10 03       		.byte	0x3
 7796 1f11 8C010000 		.4byte	.LC74
 7797 1f15 14       		.uleb128 0x14
 7798 1f16 01       		.uleb128 0x1
 7799 1f17 52       		.byte	0x52
 7800 1f18 02       		.uleb128 0x2
 7801 1f19 75       		.byte	0x75
ARM GAS  C:\Users\PRAJWA~1\AppData\Local\Temp\ccedcYia.s 			page 155


 7802 1f1a 00       		.sleb128 0
 7803 1f1b 14       		.uleb128 0x14
 7804 1f1c 02       		.uleb128 0x2
 7805 1f1d 7D       		.byte	0x7d
 7806 1f1e 00       		.sleb128 0
 7807 1f1f 02       		.uleb128 0x2
 7808 1f20 77       		.byte	0x77
 7809 1f21 00       		.sleb128 0
 7810 1f22 14       		.uleb128 0x14
 7811 1f23 02       		.uleb128 0x2
 7812 1f24 7D       		.byte	0x7d
 7813 1f25 04       		.sleb128 4
 7814 1f26 02       		.uleb128 0x2
 7815 1f27 76       		.byte	0x76
 7816 1f28 00       		.sleb128 0
 7817 1f29 14       		.uleb128 0x14
 7818 1f2a 02       		.uleb128 0x2
 7819 1f2b 7D       		.byte	0x7d
 7820 1f2c 08       		.sleb128 8
 7821 1f2d 03       		.uleb128 0x3
 7822 1f2e 91       		.byte	0x91
 7823 1f2f 00       		.sleb128 0
 7824 1f30 06       		.byte	0x6
 7825 1f31 14       		.uleb128 0x14
 7826 1f32 02       		.uleb128 0x2
 7827 1f33 7D       		.byte	0x7d
 7828 1f34 0C       		.sleb128 12
 7829 1f35 03       		.uleb128 0x3
 7830 1f36 91       		.byte	0x91
 7831 1f37 04       		.sleb128 4
 7832 1f38 06       		.byte	0x6
 7833 1f39 00       		.byte	0
 7834 1f3a 15       		.uleb128 0x15
 7835 1f3b 88000000 		.4byte	.LVL405
 7836 1f3f 190B0000 		.4byte	0xb19
 7837 1f43 14       		.uleb128 0x14
 7838 1f44 01       		.uleb128 0x1
 7839 1f45 50       		.byte	0x50
 7840 1f46 04       		.uleb128 0x4
 7841 1f47 91       		.byte	0x91
 7842 1f48 D47C     		.sleb128 -428
 7843 1f4a 06       		.byte	0x6
 7844 1f4b 14       		.uleb128 0x14
 7845 1f4c 01       		.uleb128 0x1
 7846 1f4d 51       		.byte	0x51
 7847 1f4e 03       		.uleb128 0x3
 7848 1f4f 91       		.byte	0x91
 7849 1f50 A07E     		.sleb128 -224
 7850 1f52 14       		.uleb128 0x14
 7851 1f53 01       		.uleb128 0x1
 7852 1f54 52       		.byte	0x52
 7853 1f55 03       		.uleb128 0x3
 7854 1f56 91       		.byte	0x91
 7855 1f57 D87C     		.sleb128 -424
 7856 1f59 14       		.uleb128 0x14
 7857 1f5a 01       		.uleb128 0x1
 7858 1f5b 53       		.byte	0x53
ARM GAS  C:\Users\PRAJWA~1\AppData\Local\Temp\ccedcYia.s 			page 156


 7859 1f5c 02       		.uleb128 0x2
 7860 1f5d 08       		.byte	0x8
 7861 1f5e C8       		.byte	0xc8
 7862 1f5f 14       		.uleb128 0x14
 7863 1f60 02       		.uleb128 0x2
 7864 1f61 7D       		.byte	0x7d
 7865 1f62 08       		.sleb128 8
 7866 1f63 01       		.uleb128 0x1
 7867 1f64 30       		.byte	0x30
 7868 1f65 00       		.byte	0
 7869 1f66 00       		.byte	0
 7870 1f67 1E       		.uleb128 0x1e
 7871 1f68 DE070000 		.4byte	.LASF133
 7872 1f6c 01       		.byte	0x1
 7873 1f6d 5E02     		.2byte	0x25e
 7874 1f6f 7E000000 		.4byte	0x7e
 7875 1f73 00000000 		.4byte	.LFB61
 7876 1f77 28010000 		.4byte	.LFE61-.LFB61
 7877 1f7b 01       		.uleb128 0x1
 7878 1f7c 9C       		.byte	0x9c
 7879 1f7d 8D210000 		.4byte	0x218d
 7880 1f81 1F       		.uleb128 0x1f
 7881 1f82 7000     		.ascii	"p\000"
 7882 1f84 01       		.byte	0x1
 7883 1f85 5E02     		.2byte	0x25e
 7884 1f87 430A0000 		.4byte	0xa43
 7885 1f8b AA0F0000 		.4byte	.LLST90
 7886 1f8f 26       		.uleb128 0x26
 7887 1f90 EF070000 		.4byte	.LASF126
 7888 1f94 01       		.byte	0x1
 7889 1f95 5E02     		.2byte	0x25e
 7890 1f97 11010000 		.4byte	0x111
 7891 1f9b CA0F0000 		.4byte	.LLST91
 7892 1f9f 1F       		.uleb128 0x1f
 7893 1fa0 6F707400 		.ascii	"opt\000"
 7894 1fa4 01       		.byte	0x1
 7895 1fa5 5E02     		.2byte	0x25e
 7896 1fa7 11010000 		.4byte	0x111
 7897 1fab 28100000 		.4byte	.LLST92
 7898 1faf 26       		.uleb128 0x26
 7899 1fb0 27020000 		.4byte	.LASF127
 7900 1fb4 01       		.byte	0x1
 7901 1fb5 5E02     		.2byte	0x25e
 7902 1fb7 11010000 		.4byte	0x111
 7903 1fbb 48100000 		.4byte	.LLST93
 7904 1fbf 28       		.uleb128 0x28
 7905 1fc0 4B030000 		.4byte	.LASF128
 7906 1fc4 01       		.byte	0x1
 7907 1fc5 5E02     		.2byte	0x25e
 7908 1fc7 11010000 		.4byte	0x111
 7909 1fcb 02       		.uleb128 0x2
 7910 1fcc 91       		.byte	0x91
 7911 1fcd 00       		.sleb128 0
 7912 1fce 28       		.uleb128 0x28
 7913 1fcf 8F030000 		.4byte	.LASF134
 7914 1fd3 01       		.byte	0x1
 7915 1fd4 5E02     		.2byte	0x25e
ARM GAS  C:\Users\PRAJWA~1\AppData\Local\Temp\ccedcYia.s 			page 157


 7916 1fd6 11010000 		.4byte	0x111
 7917 1fda 02       		.uleb128 0x2
 7918 1fdb 91       		.byte	0x91
 7919 1fdc 04       		.sleb128 4
 7920 1fdd 21       		.uleb128 0x21
 7921 1fde 7D070000 		.4byte	.LASF130
 7922 1fe2 01       		.byte	0x1
 7923 1fe3 6002     		.2byte	0x260
 7924 1fe5 7E000000 		.4byte	0x7e
 7925 1fe9 74100000 		.4byte	.LLST94
 7926 1fed 21       		.uleb128 0x21
 7927 1fee 1F000000 		.4byte	.LASF131
 7928 1ff2 01       		.byte	0x1
 7929 1ff3 6002     		.2byte	0x260
 7930 1ff5 7E000000 		.4byte	0x7e
 7931 1ff9 93100000 		.4byte	.LLST95
 7932 1ffd 21       		.uleb128 0x21
 7933 1ffe 36070000 		.4byte	.LASF132
 7934 2002 01       		.byte	0x1
 7935 2003 6002     		.2byte	0x260
 7936 2005 7E000000 		.4byte	0x7e
 7937 2009 B2100000 		.4byte	.LLST96
 7938 200d 23       		.uleb128 0x23
 7939 200e ED010000 		.4byte	.LASF99
 7940 2012 01       		.byte	0x1
 7941 2013 6002     		.2byte	0x260
 7942 2015 7E000000 		.4byte	0x7e
 7943 2019 25       		.uleb128 0x25
 7944 201a 6900     		.ascii	"i\000"
 7945 201c 01       		.byte	0x1
 7946 201d 6002     		.2byte	0x260
 7947 201f 7E000000 		.4byte	0x7e
 7948 2023 D2100000 		.4byte	.LLST97
 7949 2027 25       		.uleb128 0x25
 7950 2028 6A00     		.ascii	"j\000"
 7951 202a 01       		.byte	0x1
 7952 202b 6002     		.2byte	0x260
 7953 202d 7E000000 		.4byte	0x7e
 7954 2031 F1100000 		.4byte	.LLST98
 7955 2035 20       		.uleb128 0x20
 7956 2036 C1000000 		.4byte	.LASF102
 7957 203a 01       		.byte	0x1
 7958 203b 6102     		.2byte	0x261
 7959 203d 3B1C0000 		.4byte	0x1c3b
 7960 2041 03       		.uleb128 0x3
 7961 2042 91       		.byte	0x91
 7962 2043 A07E     		.sleb128 -224
 7963 2045 20       		.uleb128 0x20
 7964 2046 4C080000 		.4byte	.LASF93
 7965 204a 01       		.byte	0x1
 7966 204b 6102     		.2byte	0x261
 7967 204d 8D210000 		.4byte	0x218d
 7968 2051 03       		.uleb128 0x3
 7969 2052 91       		.byte	0x91
 7970 2053 AC7A     		.sleb128 -724
 7971 2055 13       		.uleb128 0x13
 7972 2056 18000000 		.4byte	.LVL417
ARM GAS  C:\Users\PRAJWA~1\AppData\Local\Temp\ccedcYia.s 			page 158


 7973 205a 56270000 		.4byte	0x2756
 7974 205e 72200000 		.4byte	0x2072
 7975 2062 14       		.uleb128 0x14
 7976 2063 01       		.uleb128 0x1
 7977 2064 50       		.byte	0x50
 7978 2065 02       		.uleb128 0x2
 7979 2066 76       		.byte	0x76
 7980 2067 00       		.sleb128 0
 7981 2068 14       		.uleb128 0x14
 7982 2069 01       		.uleb128 0x1
 7983 206a 51       		.byte	0x51
 7984 206b 05       		.uleb128 0x5
 7985 206c 03       		.byte	0x3
 7986 206d 6C010000 		.4byte	.LC66
 7987 2071 00       		.byte	0
 7988 2072 13       		.uleb128 0x13
 7989 2073 24000000 		.4byte	.LVL418
 7990 2077 56270000 		.4byte	0x2756
 7991 207b 8F200000 		.4byte	0x208f
 7992 207f 14       		.uleb128 0x14
 7993 2080 01       		.uleb128 0x1
 7994 2081 50       		.byte	0x50
 7995 2082 02       		.uleb128 0x2
 7996 2083 76       		.byte	0x76
 7997 2084 00       		.sleb128 0
 7998 2085 14       		.uleb128 0x14
 7999 2086 01       		.uleb128 0x1
 8000 2087 51       		.byte	0x51
 8001 2088 05       		.uleb128 0x5
 8002 2089 03       		.byte	0x3
 8003 208a 74010000 		.4byte	.LC68
 8004 208e 00       		.byte	0
 8005 208f 13       		.uleb128 0x13
 8006 2090 44000000 		.4byte	.LVL424
 8007 2094 56270000 		.4byte	0x2756
 8008 2098 AE200000 		.4byte	0x20ae
 8009 209c 14       		.uleb128 0x14
 8010 209d 01       		.uleb128 0x1
 8011 209e 50       		.byte	0x50
 8012 209f 04       		.uleb128 0x4
 8013 20a0 91       		.byte	0x91
 8014 20a1 A07A     		.sleb128 -736
 8015 20a3 06       		.byte	0x6
 8016 20a4 14       		.uleb128 0x14
 8017 20a5 01       		.uleb128 0x1
 8018 20a6 51       		.byte	0x51
 8019 20a7 05       		.uleb128 0x5
 8020 20a8 03       		.byte	0x3
 8021 20a9 7C010000 		.4byte	.LC70
 8022 20ad 00       		.byte	0
 8023 20ae 13       		.uleb128 0x13
 8024 20af 50000000 		.4byte	.LVL425
 8025 20b3 56270000 		.4byte	0x2756
 8026 20b7 CD200000 		.4byte	0x20cd
 8027 20bb 14       		.uleb128 0x14
 8028 20bc 01       		.uleb128 0x1
 8029 20bd 50       		.byte	0x50
ARM GAS  C:\Users\PRAJWA~1\AppData\Local\Temp\ccedcYia.s 			page 159


 8030 20be 04       		.uleb128 0x4
 8031 20bf 91       		.byte	0x91
 8032 20c0 A07A     		.sleb128 -736
 8033 20c2 06       		.byte	0x6
 8034 20c3 14       		.uleb128 0x14
 8035 20c4 01       		.uleb128 0x1
 8036 20c5 51       		.byte	0x51
 8037 20c6 05       		.uleb128 0x5
 8038 20c7 03       		.byte	0x3
 8039 20c8 84010000 		.4byte	.LC72
 8040 20cc 00       		.byte	0
 8041 20cd 13       		.uleb128 0x13
 8042 20ce 70000000 		.4byte	.LVL427
 8043 20d2 40270000 		.4byte	0x2740
 8044 20d6 07210000 		.4byte	0x2107
 8045 20da 14       		.uleb128 0x14
 8046 20db 01       		.uleb128 0x1
 8047 20dc 50       		.byte	0x50
 8048 20dd 03       		.uleb128 0x3
 8049 20de 91       		.byte	0x91
 8050 20df A07E     		.sleb128 -224
 8051 20e1 14       		.uleb128 0x14
 8052 20e2 01       		.uleb128 0x1
 8053 20e3 51       		.byte	0x51
 8054 20e4 05       		.uleb128 0x5
 8055 20e5 03       		.byte	0x3
 8056 20e6 C4010000 		.4byte	.LC80
 8057 20ea 14       		.uleb128 0x14
 8058 20eb 01       		.uleb128 0x1
 8059 20ec 52       		.byte	0x52
 8060 20ed 02       		.uleb128 0x2
 8061 20ee 76       		.byte	0x76
 8062 20ef 00       		.sleb128 0
 8063 20f0 14       		.uleb128 0x14
 8064 20f1 02       		.uleb128 0x2
 8065 20f2 7D       		.byte	0x7d
 8066 20f3 00       		.sleb128 0
 8067 20f4 02       		.uleb128 0x2
 8068 20f5 77       		.byte	0x77
 8069 20f6 00       		.sleb128 0
 8070 20f7 14       		.uleb128 0x14
 8071 20f8 02       		.uleb128 0x2
 8072 20f9 7D       		.byte	0x7d
 8073 20fa 04       		.sleb128 4
 8074 20fb 02       		.uleb128 0x2
 8075 20fc 75       		.byte	0x75
 8076 20fd 00       		.sleb128 0
 8077 20fe 14       		.uleb128 0x14
 8078 20ff 02       		.uleb128 0x2
 8079 2100 7D       		.byte	0x7d
 8080 2101 08       		.sleb128 8
 8081 2102 03       		.uleb128 0x3
 8082 2103 91       		.byte	0x91
 8083 2104 00       		.sleb128 0
 8084 2105 06       		.byte	0x6
 8085 2106 00       		.byte	0
 8086 2107 13       		.uleb128 0x13
ARM GAS  C:\Users\PRAJWA~1\AppData\Local\Temp\ccedcYia.s 			page 160


 8087 2108 8A000000 		.4byte	.LVL428
 8088 210c 190B0000 		.4byte	0xb19
 8089 2110 38210000 		.4byte	0x2138
 8090 2114 14       		.uleb128 0x14
 8091 2115 01       		.uleb128 0x1
 8092 2116 50       		.byte	0x50
 8093 2117 04       		.uleb128 0x4
 8094 2118 91       		.byte	0x91
 8095 2119 A47A     		.sleb128 -732
 8096 211b 06       		.byte	0x6
 8097 211c 14       		.uleb128 0x14
 8098 211d 01       		.uleb128 0x1
 8099 211e 51       		.byte	0x51
 8100 211f 03       		.uleb128 0x3
 8101 2120 91       		.byte	0x91
 8102 2121 A07E     		.sleb128 -224
 8103 2123 14       		.uleb128 0x14
 8104 2124 01       		.uleb128 0x1
 8105 2125 52       		.byte	0x52
 8106 2126 03       		.uleb128 0x3
 8107 2127 91       		.byte	0x91
 8108 2128 AC7A     		.sleb128 -724
 8109 212a 14       		.uleb128 0x14
 8110 212b 01       		.uleb128 0x1
 8111 212c 53       		.byte	0x53
 8112 212d 03       		.uleb128 0x3
 8113 212e 0A       		.byte	0xa
 8114 212f F401     		.2byte	0x1f4
 8115 2131 14       		.uleb128 0x14
 8116 2132 02       		.uleb128 0x2
 8117 2133 7D       		.byte	0x7d
 8118 2134 08       		.sleb128 8
 8119 2135 01       		.uleb128 0x1
 8120 2136 30       		.byte	0x30
 8121 2137 00       		.byte	0
 8122 2138 13       		.uleb128 0x13
 8123 2139 D4000000 		.4byte	.LVL439
 8124 213d FD260000 		.4byte	0x26fd
 8125 2141 4F210000 		.4byte	0x214f
 8126 2145 14       		.uleb128 0x14
 8127 2146 01       		.uleb128 0x1
 8128 2147 50       		.byte	0x50
 8129 2148 05       		.uleb128 0x5
 8130 2149 03       		.byte	0x3
 8131 214a FC010000 		.4byte	.LC82
 8132 214e 00       		.byte	0
 8133 214f 13       		.uleb128 0x13
 8134 2150 DA000000 		.4byte	.LVL440
 8135 2154 490A0000 		.4byte	0xa49
 8136 2158 64210000 		.4byte	0x2164
 8137 215c 14       		.uleb128 0x14
 8138 215d 01       		.uleb128 0x1
 8139 215e 50       		.byte	0x50
 8140 215f 03       		.uleb128 0x3
 8141 2160 0A       		.byte	0xa
 8142 2161 409C     		.2byte	0x9c40
 8143 2163 00       		.byte	0
ARM GAS  C:\Users\PRAJWA~1\AppData\Local\Temp\ccedcYia.s 			page 161


 8144 2164 13       		.uleb128 0x13
 8145 2165 E0000000 		.4byte	.LVL441
 8146 2169 FD260000 		.4byte	0x26fd
 8147 216d 7B210000 		.4byte	0x217b
 8148 2171 14       		.uleb128 0x14
 8149 2172 01       		.uleb128 0x1
 8150 2173 50       		.byte	0x50
 8151 2174 05       		.uleb128 0x5
 8152 2175 03       		.byte	0x3
 8153 2176 1C020000 		.4byte	.LC84
 8154 217a 00       		.byte	0
 8155 217b 15       		.uleb128 0x15
 8156 217c E6000000 		.4byte	.LVL442
 8157 2180 490A0000 		.4byte	0xa49
 8158 2184 14       		.uleb128 0x14
 8159 2185 01       		.uleb128 0x1
 8160 2186 50       		.byte	0x50
 8161 2187 03       		.uleb128 0x3
 8162 2188 0A       		.byte	0xa
 8163 2189 1027     		.2byte	0x2710
 8164 218b 00       		.byte	0
 8165 218c 00       		.byte	0
 8166 218d 08       		.uleb128 0x8
 8167 218e DF000000 		.4byte	0xdf
 8168 2192 9E210000 		.4byte	0x219e
 8169 2196 27       		.uleb128 0x27
 8170 2197 0A010000 		.4byte	0x10a
 8171 219b F301     		.2byte	0x1f3
 8172 219d 00       		.byte	0
 8173 219e 18       		.uleb128 0x18
 8174 219f 2A050000 		.4byte	.LASF135
 8175 21a3 02       		.byte	0x2
 8176 21a4 13       		.byte	0x13
 8177 21a5 7E000000 		.4byte	0x7e
 8178 21a9 00000000 		.4byte	.LFB62
 8179 21ad 1C000000 		.4byte	.LFE62-.LFB62
 8180 21b1 01       		.uleb128 0x1
 8181 21b2 9C       		.byte	0x9c
 8182 21b3 FB210000 		.4byte	0x21fb
 8183 21b7 19       		.uleb128 0x19
 8184 21b8 18020000 		.4byte	.LASF136
 8185 21bc 02       		.byte	0x2
 8186 21bd 13       		.byte	0x13
 8187 21be 7E000000 		.4byte	0x7e
 8188 21c2 3C110000 		.4byte	.LLST99
 8189 21c6 12       		.uleb128 0x12
 8190 21c7 70747200 		.ascii	"ptr\000"
 8191 21cb 02       		.byte	0x2
 8192 21cc 13       		.byte	0x13
 8193 21cd 11010000 		.4byte	0x111
 8194 21d1 5D110000 		.4byte	.LLST100
 8195 21d5 12       		.uleb128 0x12
 8196 21d6 6C656E00 		.ascii	"len\000"
 8197 21da 02       		.byte	0x2
 8198 21db 13       		.byte	0x13
 8199 21dc 7E000000 		.4byte	0x7e
 8200 21e0 86110000 		.4byte	.LLST101
ARM GAS  C:\Users\PRAJWA~1\AppData\Local\Temp\ccedcYia.s 			page 162


 8201 21e4 1A       		.uleb128 0x1a
 8202 21e5 6900     		.ascii	"i\000"
 8203 21e7 02       		.byte	0x2
 8204 21e8 16       		.byte	0x16
 8205 21e9 7E000000 		.4byte	0x7e
 8206 21ed AF110000 		.4byte	.LLST102
 8207 21f1 17       		.uleb128 0x17
 8208 21f2 10000000 		.4byte	.LVL449
 8209 21f6 61270000 		.4byte	0x2761
 8210 21fa 00       		.byte	0
 8211 21fb 29       		.uleb128 0x29
 8212 21fc 89080000 		.4byte	.LASF173
 8213 2200 02       		.byte	0x2
 8214 2201 20       		.byte	0x20
 8215 2202 7E000000 		.4byte	0x7e
 8216 2206 00000000 		.4byte	.LFB63
 8217 220a 18020000 		.4byte	.LFE63-.LFB63
 8218 220e 01       		.uleb128 0x1
 8219 220f 9C       		.byte	0x9c
 8220 2210 6F260000 		.4byte	0x266f
 8221 2214 1C       		.uleb128 0x1c
 8222 2215 2C020000 		.4byte	.LASF137
 8223 2219 02       		.byte	0x2
 8224 221a 24       		.byte	0x24
 8225 221b EC040000 		.4byte	0x4ec
 8226 221f 03       		.uleb128 0x3
 8227 2220 91       		.byte	0x91
 8228 2221 F47D     		.sleb128 -268
 8229 2223 2A       		.uleb128 0x2a
 8230 2224 706F7300 		.ascii	"pos\000"
 8231 2228 02       		.byte	0x2
 8232 2229 25       		.byte	0x25
 8233 222a C5000000 		.4byte	0xc5
 8234 222e 1A       		.uleb128 0x1a
 8235 222f 6B00     		.ascii	"k\000"
 8236 2231 02       		.byte	0x2
 8237 2232 25       		.byte	0x25
 8238 2233 C5000000 		.4byte	0xc5
 8239 2237 CE110000 		.4byte	.LLST103
 8240 223b 2B       		.uleb128 0x2b
 8241 223c 6900     		.ascii	"i\000"
 8242 223e 02       		.byte	0x2
 8243 223f 26       		.byte	0x26
 8244 2240 AD000000 		.4byte	0xad
 8245 2244 00       		.byte	0
 8246 2245 16       		.uleb128 0x16
 8247 2246 FA070000 		.4byte	.LASF138
 8248 224a 02       		.byte	0x2
 8249 224b 26       		.byte	0x26
 8250 224c AD000000 		.4byte	0xad
 8251 2250 12120000 		.4byte	.LLST104
 8252 2254 2C       		.uleb128 0x2c
 8253 2255 4C080000 		.4byte	.LASF93
 8254 2259 02       		.byte	0x2
 8255 225a 27       		.byte	0x27
 8256 225b 6F260000 		.4byte	0x266f
 8257 225f 16       		.uleb128 0x16
ARM GAS  C:\Users\PRAJWA~1\AppData\Local\Temp\ccedcYia.s 			page 163


 8258 2260 67010000 		.4byte	.LASF139
 8259 2264 02       		.byte	0x2
 8260 2265 28       		.byte	0x28
 8261 2266 70000000 		.4byte	0x70
 8262 226a 3C120000 		.4byte	.LLST105
 8263 226e 17       		.uleb128 0x17
 8264 226f 0A000000 		.4byte	.LVL455
 8265 2273 6D270000 		.4byte	0x276d
 8266 2277 17       		.uleb128 0x17
 8267 2278 10000000 		.4byte	.LVL457
 8268 227c 78270000 		.4byte	0x2778
 8269 2280 17       		.uleb128 0x17
 8270 2281 14000000 		.4byte	.LVL458
 8271 2285 F2260000 		.4byte	0x26f2
 8272 2289 13       		.uleb128 0x13
 8273 228a 1A000000 		.4byte	.LVL459
 8274 228e E7260000 		.4byte	0x26e7
 8275 2292 9C220000 		.4byte	0x229c
 8276 2296 14       		.uleb128 0x14
 8277 2297 01       		.uleb128 0x1
 8278 2298 50       		.byte	0x50
 8279 2299 01       		.uleb128 0x1
 8280 229a 30       		.byte	0x30
 8281 229b 00       		.byte	0
 8282 229c 17       		.uleb128 0x17
 8283 229d 1E000000 		.4byte	.LVL460
 8284 22a1 83270000 		.4byte	0x2783
 8285 22a5 13       		.uleb128 0x13
 8286 22a6 28000000 		.4byte	.LVL461
 8287 22aa 8E270000 		.4byte	0x278e
 8288 22ae BF220000 		.4byte	0x22bf
 8289 22b2 14       		.uleb128 0x14
 8290 22b3 01       		.uleb128 0x1
 8291 22b4 50       		.byte	0x50
 8292 22b5 02       		.uleb128 0x2
 8293 22b6 08       		.byte	0x8
 8294 22b7 8C       		.byte	0x8c
 8295 22b8 14       		.uleb128 0x14
 8296 22b9 01       		.uleb128 0x1
 8297 22ba 51       		.byte	0x51
 8298 22bb 02       		.uleb128 0x2
 8299 22bc 08       		.byte	0x8
 8300 22bd 8C       		.byte	0x8c
 8301 22be 00       		.byte	0
 8302 22bf 17       		.uleb128 0x17
 8303 22c0 2C000000 		.4byte	.LVL462
 8304 22c4 99270000 		.4byte	0x2799
 8305 22c8 13       		.uleb128 0x13
 8306 22c9 34000000 		.4byte	.LVL463
 8307 22cd 490A0000 		.4byte	0xa49
 8308 22d1 DD220000 		.4byte	0x22dd
 8309 22d5 14       		.uleb128 0x14
 8310 22d6 01       		.uleb128 0x1
 8311 22d7 50       		.byte	0x50
 8312 22d8 03       		.uleb128 0x3
 8313 22d9 0A       		.byte	0xa
 8314 22da E803     		.2byte	0x3e8
ARM GAS  C:\Users\PRAJWA~1\AppData\Local\Temp\ccedcYia.s 			page 164


 8315 22dc 00       		.byte	0
 8316 22dd 13       		.uleb128 0x13
 8317 22de 3A000000 		.4byte	.LVL464
 8318 22e2 3F130000 		.4byte	0x133f
 8319 22e6 F2220000 		.4byte	0x22f2
 8320 22ea 14       		.uleb128 0x14
 8321 22eb 01       		.uleb128 0x1
 8322 22ec 50       		.byte	0x50
 8323 22ed 03       		.uleb128 0x3
 8324 22ee 91       		.byte	0x91
 8325 22ef F47D     		.sleb128 -268
 8326 22f1 00       		.byte	0
 8327 22f2 13       		.uleb128 0x13
 8328 22f3 40000000 		.4byte	.LVL465
 8329 22f7 490A0000 		.4byte	0xa49
 8330 22fb 05230000 		.4byte	0x2305
 8331 22ff 14       		.uleb128 0x14
 8332 2300 01       		.uleb128 0x1
 8333 2301 50       		.byte	0x50
 8334 2302 01       		.uleb128 0x1
 8335 2303 44       		.byte	0x44
 8336 2304 00       		.byte	0
 8337 2305 13       		.uleb128 0x13
 8338 2306 46000000 		.4byte	.LVL466
 8339 230a EF0F0000 		.4byte	0xfef
 8340 230e 1A230000 		.4byte	0x231a
 8341 2312 14       		.uleb128 0x14
 8342 2313 01       		.uleb128 0x1
 8343 2314 50       		.byte	0x50
 8344 2315 03       		.uleb128 0x3
 8345 2316 91       		.byte	0x91
 8346 2317 F47D     		.sleb128 -268
 8347 2319 00       		.byte	0
 8348 231a 13       		.uleb128 0x13
 8349 231b 4C000000 		.4byte	.LVL467
 8350 231f 490A0000 		.4byte	0xa49
 8351 2323 2D230000 		.4byte	0x232d
 8352 2327 14       		.uleb128 0x14
 8353 2328 01       		.uleb128 0x1
 8354 2329 50       		.byte	0x50
 8355 232a 01       		.uleb128 0x1
 8356 232b 44       		.byte	0x44
 8357 232c 00       		.byte	0
 8358 232d 13       		.uleb128 0x13
 8359 232e 52000000 		.4byte	.LVL468
 8360 2332 CC100000 		.4byte	0x10cc
 8361 2336 42230000 		.4byte	0x2342
 8362 233a 14       		.uleb128 0x14
 8363 233b 01       		.uleb128 0x1
 8364 233c 50       		.byte	0x50
 8365 233d 03       		.uleb128 0x3
 8366 233e 91       		.byte	0x91
 8367 233f F47D     		.sleb128 -268
 8368 2341 00       		.byte	0
 8369 2342 13       		.uleb128 0x13
 8370 2343 58000000 		.4byte	.LVL469
 8371 2347 490A0000 		.4byte	0xa49
ARM GAS  C:\Users\PRAJWA~1\AppData\Local\Temp\ccedcYia.s 			page 165


 8372 234b 55230000 		.4byte	0x2355
 8373 234f 14       		.uleb128 0x14
 8374 2350 01       		.uleb128 0x1
 8375 2351 50       		.byte	0x50
 8376 2352 01       		.uleb128 0x1
 8377 2353 44       		.byte	0x44
 8378 2354 00       		.byte	0
 8379 2355 13       		.uleb128 0x13
 8380 2356 60000000 		.4byte	.LVL470
 8381 235a 87120000 		.4byte	0x1287
 8382 235e 73230000 		.4byte	0x2373
 8383 2362 14       		.uleb128 0x14
 8384 2363 01       		.uleb128 0x1
 8385 2364 50       		.byte	0x50
 8386 2365 03       		.uleb128 0x3
 8387 2366 91       		.byte	0x91
 8388 2367 F47D     		.sleb128 -268
 8389 2369 14       		.uleb128 0x14
 8390 236a 01       		.uleb128 0x1
 8391 236b 51       		.byte	0x51
 8392 236c 05       		.uleb128 0x5
 8393 236d 03       		.byte	0x3
 8394 236e 34020000 		.4byte	.LC87
 8395 2372 00       		.byte	0
 8396 2373 17       		.uleb128 0x17
 8397 2374 66000000 		.4byte	.LVL472
 8398 2378 A4270000 		.4byte	0x27a4
 8399 237c 17       		.uleb128 0x17
 8400 237d 6E000000 		.4byte	.LVL473
 8401 2381 AF270000 		.4byte	0x27af
 8402 2385 17       		.uleb128 0x17
 8403 2386 72000000 		.4byte	.LVL474
 8404 238a BA270000 		.4byte	0x27ba
 8405 238e 17       		.uleb128 0x17
 8406 238f 76000000 		.4byte	.LVL475
 8407 2393 C5270000 		.4byte	0x27c5
 8408 2397 13       		.uleb128 0x13
 8409 2398 7E000000 		.4byte	.LVL476
 8410 239c D0270000 		.4byte	0x27d0
 8411 23a0 AF230000 		.4byte	0x23af
 8412 23a4 14       		.uleb128 0x14
 8413 23a5 01       		.uleb128 0x1
 8414 23a6 50       		.byte	0x50
 8415 23a7 01       		.uleb128 0x1
 8416 23a8 30       		.byte	0x30
 8417 23a9 14       		.uleb128 0x14
 8418 23aa 01       		.uleb128 0x1
 8419 23ab 51       		.byte	0x51
 8420 23ac 01       		.uleb128 0x1
 8421 23ad 34       		.byte	0x34
 8422 23ae 00       		.byte	0
 8423 23af 13       		.uleb128 0x13
 8424 23b0 8A000000 		.4byte	.LVL477
 8425 23b4 D0270000 		.4byte	0x27d0
 8426 23b8 C7230000 		.4byte	0x23c7
 8427 23bc 14       		.uleb128 0x14
 8428 23bd 01       		.uleb128 0x1
ARM GAS  C:\Users\PRAJWA~1\AppData\Local\Temp\ccedcYia.s 			page 166


 8429 23be 50       		.byte	0x50
 8430 23bf 01       		.uleb128 0x1
 8431 23c0 30       		.byte	0x30
 8432 23c1 14       		.uleb128 0x14
 8433 23c2 01       		.uleb128 0x1
 8434 23c3 51       		.byte	0x51
 8435 23c4 01       		.uleb128 0x1
 8436 23c5 30       		.byte	0x30
 8437 23c6 00       		.byte	0
 8438 23c7 13       		.uleb128 0x13
 8439 23c8 96000000 		.4byte	.LVL479
 8440 23cc 4C140000 		.4byte	0x144c
 8441 23d0 E5230000 		.4byte	0x23e5
 8442 23d4 14       		.uleb128 0x14
 8443 23d5 01       		.uleb128 0x1
 8444 23d6 50       		.byte	0x50
 8445 23d7 03       		.uleb128 0x3
 8446 23d8 91       		.byte	0x91
 8447 23d9 F47D     		.sleb128 -268
 8448 23db 14       		.uleb128 0x14
 8449 23dc 01       		.uleb128 0x1
 8450 23dd 51       		.byte	0x51
 8451 23de 05       		.uleb128 0x5
 8452 23df 03       		.byte	0x3
 8453 23e0 44020000 		.4byte	.LC89
 8454 23e4 00       		.byte	0
 8455 23e5 13       		.uleb128 0x13
 8456 23e6 A8000000 		.4byte	.LVL482
 8457 23ea D0270000 		.4byte	0x27d0
 8458 23ee FD230000 		.4byte	0x23fd
 8459 23f2 14       		.uleb128 0x14
 8460 23f3 01       		.uleb128 0x1
 8461 23f4 50       		.byte	0x50
 8462 23f5 01       		.uleb128 0x1
 8463 23f6 30       		.byte	0x30
 8464 23f7 14       		.uleb128 0x14
 8465 23f8 01       		.uleb128 0x1
 8466 23f9 51       		.byte	0x51
 8467 23fa 01       		.uleb128 0x1
 8468 23fb 34       		.byte	0x34
 8469 23fc 00       		.byte	0
 8470 23fd 13       		.uleb128 0x13
 8471 23fe B4000000 		.4byte	.LVL483
 8472 2402 D0270000 		.4byte	0x27d0
 8473 2406 15240000 		.4byte	0x2415
 8474 240a 14       		.uleb128 0x14
 8475 240b 01       		.uleb128 0x1
 8476 240c 50       		.byte	0x50
 8477 240d 01       		.uleb128 0x1
 8478 240e 30       		.byte	0x30
 8479 240f 14       		.uleb128 0x14
 8480 2410 01       		.uleb128 0x1
 8481 2411 51       		.byte	0x51
 8482 2412 01       		.uleb128 0x1
 8483 2413 31       		.byte	0x31
 8484 2414 00       		.byte	0
 8485 2415 13       		.uleb128 0x13
ARM GAS  C:\Users\PRAJWA~1\AppData\Local\Temp\ccedcYia.s 			page 167


 8486 2416 C6000000 		.4byte	.LVL485
 8487 241a 4C140000 		.4byte	0x144c
 8488 241e 33240000 		.4byte	0x2433
 8489 2422 14       		.uleb128 0x14
 8490 2423 01       		.uleb128 0x1
 8491 2424 50       		.byte	0x50
 8492 2425 03       		.uleb128 0x3
 8493 2426 91       		.byte	0x91
 8494 2427 F47D     		.sleb128 -268
 8495 2429 14       		.uleb128 0x14
 8496 242a 01       		.uleb128 0x1
 8497 242b 51       		.byte	0x51
 8498 242c 05       		.uleb128 0x5
 8499 242d 03       		.byte	0x3
 8500 242e 48020000 		.4byte	.LC91
 8501 2432 00       		.byte	0
 8502 2433 13       		.uleb128 0x13
 8503 2434 CE000000 		.4byte	.LVL486
 8504 2438 D0270000 		.4byte	0x27d0
 8505 243c 4B240000 		.4byte	0x244b
 8506 2440 14       		.uleb128 0x14
 8507 2441 01       		.uleb128 0x1
 8508 2442 50       		.byte	0x50
 8509 2443 01       		.uleb128 0x1
 8510 2444 30       		.byte	0x30
 8511 2445 14       		.uleb128 0x14
 8512 2446 01       		.uleb128 0x1
 8513 2447 51       		.byte	0x51
 8514 2448 01       		.uleb128 0x1
 8515 2449 34       		.byte	0x34
 8516 244a 00       		.byte	0
 8517 244b 13       		.uleb128 0x13
 8518 244c DA000000 		.4byte	.LVL487
 8519 2450 D0270000 		.4byte	0x27d0
 8520 2454 63240000 		.4byte	0x2463
 8521 2458 14       		.uleb128 0x14
 8522 2459 01       		.uleb128 0x1
 8523 245a 50       		.byte	0x50
 8524 245b 01       		.uleb128 0x1
 8525 245c 30       		.byte	0x30
 8526 245d 14       		.uleb128 0x14
 8527 245e 01       		.uleb128 0x1
 8528 245f 51       		.byte	0x51
 8529 2460 01       		.uleb128 0x1
 8530 2461 32       		.byte	0x32
 8531 2462 00       		.byte	0
 8532 2463 13       		.uleb128 0x13
 8533 2464 EC000000 		.4byte	.LVL489
 8534 2468 4C140000 		.4byte	0x144c
 8535 246c 81240000 		.4byte	0x2481
 8536 2470 14       		.uleb128 0x14
 8537 2471 01       		.uleb128 0x1
 8538 2472 50       		.byte	0x50
 8539 2473 03       		.uleb128 0x3
 8540 2474 91       		.byte	0x91
 8541 2475 F47D     		.sleb128 -268
 8542 2477 14       		.uleb128 0x14
ARM GAS  C:\Users\PRAJWA~1\AppData\Local\Temp\ccedcYia.s 			page 168


 8543 2478 01       		.uleb128 0x1
 8544 2479 51       		.byte	0x51
 8545 247a 05       		.uleb128 0x5
 8546 247b 03       		.byte	0x3
 8547 247c 4C020000 		.4byte	.LC93
 8548 2480 00       		.byte	0
 8549 2481 13       		.uleb128 0x13
 8550 2482 F4000000 		.4byte	.LVL490
 8551 2486 D0270000 		.4byte	0x27d0
 8552 248a 99240000 		.4byte	0x2499
 8553 248e 14       		.uleb128 0x14
 8554 248f 01       		.uleb128 0x1
 8555 2490 50       		.byte	0x50
 8556 2491 01       		.uleb128 0x1
 8557 2492 30       		.byte	0x30
 8558 2493 14       		.uleb128 0x14
 8559 2494 01       		.uleb128 0x1
 8560 2495 51       		.byte	0x51
 8561 2496 01       		.uleb128 0x1
 8562 2497 34       		.byte	0x34
 8563 2498 00       		.byte	0
 8564 2499 13       		.uleb128 0x13
 8565 249a 00010000 		.4byte	.LVL491
 8566 249e D0270000 		.4byte	0x27d0
 8567 24a2 B1240000 		.4byte	0x24b1
 8568 24a6 14       		.uleb128 0x14
 8569 24a7 01       		.uleb128 0x1
 8570 24a8 50       		.byte	0x50
 8571 24a9 01       		.uleb128 0x1
 8572 24aa 30       		.byte	0x30
 8573 24ab 14       		.uleb128 0x14
 8574 24ac 01       		.uleb128 0x1
 8575 24ad 51       		.byte	0x51
 8576 24ae 01       		.uleb128 0x1
 8577 24af 33       		.byte	0x33
 8578 24b0 00       		.byte	0
 8579 24b1 13       		.uleb128 0x13
 8580 24b2 12010000 		.4byte	.LVL493
 8581 24b6 4C140000 		.4byte	0x144c
 8582 24ba CF240000 		.4byte	0x24cf
 8583 24be 14       		.uleb128 0x14
 8584 24bf 01       		.uleb128 0x1
 8585 24c0 50       		.byte	0x50
 8586 24c1 03       		.uleb128 0x3
 8587 24c2 91       		.byte	0x91
 8588 24c3 F47D     		.sleb128 -268
 8589 24c5 14       		.uleb128 0x14
 8590 24c6 01       		.uleb128 0x1
 8591 24c7 51       		.byte	0x51
 8592 24c8 05       		.uleb128 0x5
 8593 24c9 03       		.byte	0x3
 8594 24ca 50020000 		.4byte	.LC95
 8595 24ce 00       		.byte	0
 8596 24cf 13       		.uleb128 0x13
 8597 24d0 1A010000 		.4byte	.LVL494
 8598 24d4 D0270000 		.4byte	0x27d0
 8599 24d8 E7240000 		.4byte	0x24e7
ARM GAS  C:\Users\PRAJWA~1\AppData\Local\Temp\ccedcYia.s 			page 169


 8600 24dc 14       		.uleb128 0x14
 8601 24dd 01       		.uleb128 0x1
 8602 24de 50       		.byte	0x50
 8603 24df 01       		.uleb128 0x1
 8604 24e0 30       		.byte	0x30
 8605 24e1 14       		.uleb128 0x14
 8606 24e2 01       		.uleb128 0x1
 8607 24e3 51       		.byte	0x51
 8608 24e4 01       		.uleb128 0x1
 8609 24e5 35       		.byte	0x35
 8610 24e6 00       		.byte	0
 8611 24e7 13       		.uleb128 0x13
 8612 24e8 26010000 		.4byte	.LVL495
 8613 24ec D0270000 		.4byte	0x27d0
 8614 24f0 FF240000 		.4byte	0x24ff
 8615 24f4 14       		.uleb128 0x14
 8616 24f5 01       		.uleb128 0x1
 8617 24f6 50       		.byte	0x50
 8618 24f7 01       		.uleb128 0x1
 8619 24f8 30       		.byte	0x30
 8620 24f9 14       		.uleb128 0x14
 8621 24fa 01       		.uleb128 0x1
 8622 24fb 51       		.byte	0x51
 8623 24fc 01       		.uleb128 0x1
 8624 24fd 30       		.byte	0x30
 8625 24fe 00       		.byte	0
 8626 24ff 13       		.uleb128 0x13
 8627 2500 38010000 		.4byte	.LVL497
 8628 2504 4C140000 		.4byte	0x144c
 8629 2508 1D250000 		.4byte	0x251d
 8630 250c 14       		.uleb128 0x14
 8631 250d 01       		.uleb128 0x1
 8632 250e 50       		.byte	0x50
 8633 250f 03       		.uleb128 0x3
 8634 2510 91       		.byte	0x91
 8635 2511 F47D     		.sleb128 -268
 8636 2513 14       		.uleb128 0x14
 8637 2514 01       		.uleb128 0x1
 8638 2515 51       		.byte	0x51
 8639 2516 05       		.uleb128 0x5
 8640 2517 03       		.byte	0x3
 8641 2518 54020000 		.4byte	.LC97
 8642 251c 00       		.byte	0
 8643 251d 13       		.uleb128 0x13
 8644 251e 40010000 		.4byte	.LVL498
 8645 2522 D0270000 		.4byte	0x27d0
 8646 2526 35250000 		.4byte	0x2535
 8647 252a 14       		.uleb128 0x14
 8648 252b 01       		.uleb128 0x1
 8649 252c 50       		.byte	0x50
 8650 252d 01       		.uleb128 0x1
 8651 252e 30       		.byte	0x30
 8652 252f 14       		.uleb128 0x14
 8653 2530 01       		.uleb128 0x1
 8654 2531 51       		.byte	0x51
 8655 2532 01       		.uleb128 0x1
 8656 2533 35       		.byte	0x35
ARM GAS  C:\Users\PRAJWA~1\AppData\Local\Temp\ccedcYia.s 			page 170


 8657 2534 00       		.byte	0
 8658 2535 13       		.uleb128 0x13
 8659 2536 4C010000 		.4byte	.LVL499
 8660 253a D0270000 		.4byte	0x27d0
 8661 253e 4D250000 		.4byte	0x254d
 8662 2542 14       		.uleb128 0x14
 8663 2543 01       		.uleb128 0x1
 8664 2544 50       		.byte	0x50
 8665 2545 01       		.uleb128 0x1
 8666 2546 30       		.byte	0x30
 8667 2547 14       		.uleb128 0x14
 8668 2548 01       		.uleb128 0x1
 8669 2549 51       		.byte	0x51
 8670 254a 01       		.uleb128 0x1
 8671 254b 31       		.byte	0x31
 8672 254c 00       		.byte	0
 8673 254d 13       		.uleb128 0x13
 8674 254e 5E010000 		.4byte	.LVL501
 8675 2552 4C140000 		.4byte	0x144c
 8676 2556 6B250000 		.4byte	0x256b
 8677 255a 14       		.uleb128 0x14
 8678 255b 01       		.uleb128 0x1
 8679 255c 50       		.byte	0x50
 8680 255d 03       		.uleb128 0x3
 8681 255e 91       		.byte	0x91
 8682 255f F47D     		.sleb128 -268
 8683 2561 14       		.uleb128 0x14
 8684 2562 01       		.uleb128 0x1
 8685 2563 51       		.byte	0x51
 8686 2564 05       		.uleb128 0x5
 8687 2565 03       		.byte	0x3
 8688 2566 58020000 		.4byte	.LC99
 8689 256a 00       		.byte	0
 8690 256b 13       		.uleb128 0x13
 8691 256c 66010000 		.4byte	.LVL502
 8692 2570 D0270000 		.4byte	0x27d0
 8693 2574 83250000 		.4byte	0x2583
 8694 2578 14       		.uleb128 0x14
 8695 2579 01       		.uleb128 0x1
 8696 257a 50       		.byte	0x50
 8697 257b 01       		.uleb128 0x1
 8698 257c 30       		.byte	0x30
 8699 257d 14       		.uleb128 0x14
 8700 257e 01       		.uleb128 0x1
 8701 257f 51       		.byte	0x51
 8702 2580 01       		.uleb128 0x1
 8703 2581 35       		.byte	0x35
 8704 2582 00       		.byte	0
 8705 2583 13       		.uleb128 0x13
 8706 2584 72010000 		.4byte	.LVL503
 8707 2588 D0270000 		.4byte	0x27d0
 8708 258c 9B250000 		.4byte	0x259b
 8709 2590 14       		.uleb128 0x14
 8710 2591 01       		.uleb128 0x1
 8711 2592 50       		.byte	0x50
 8712 2593 01       		.uleb128 0x1
 8713 2594 30       		.byte	0x30
ARM GAS  C:\Users\PRAJWA~1\AppData\Local\Temp\ccedcYia.s 			page 171


 8714 2595 14       		.uleb128 0x14
 8715 2596 01       		.uleb128 0x1
 8716 2597 51       		.byte	0x51
 8717 2598 01       		.uleb128 0x1
 8718 2599 32       		.byte	0x32
 8719 259a 00       		.byte	0
 8720 259b 13       		.uleb128 0x13
 8721 259c 84010000 		.4byte	.LVL505
 8722 25a0 4C140000 		.4byte	0x144c
 8723 25a4 B9250000 		.4byte	0x25b9
 8724 25a8 14       		.uleb128 0x14
 8725 25a9 01       		.uleb128 0x1
 8726 25aa 50       		.byte	0x50
 8727 25ab 03       		.uleb128 0x3
 8728 25ac 91       		.byte	0x91
 8729 25ad F47D     		.sleb128 -268
 8730 25af 14       		.uleb128 0x14
 8731 25b0 01       		.uleb128 0x1
 8732 25b1 51       		.byte	0x51
 8733 25b2 05       		.uleb128 0x5
 8734 25b3 03       		.byte	0x3
 8735 25b4 5C020000 		.4byte	.LC101
 8736 25b8 00       		.byte	0
 8737 25b9 17       		.uleb128 0x17
 8738 25ba 88010000 		.4byte	.LVL506
 8739 25be 6D270000 		.4byte	0x276d
 8740 25c2 13       		.uleb128 0x13
 8741 25c3 96010000 		.4byte	.LVL507
 8742 25c7 DC270000 		.4byte	0x27dc
 8743 25cb D6250000 		.4byte	0x25d6
 8744 25cf 14       		.uleb128 0x14
 8745 25d0 01       		.uleb128 0x1
 8746 25d1 50       		.byte	0x50
 8747 25d2 02       		.uleb128 0x2
 8748 25d3 75       		.byte	0x75
 8749 25d4 00       		.sleb128 0
 8750 25d5 00       		.byte	0
 8751 25d6 17       		.uleb128 0x17
 8752 25d7 9E010000 		.4byte	.LVL510
 8753 25db 6D270000 		.4byte	0x276d
 8754 25df 13       		.uleb128 0x13
 8755 25e0 A8010000 		.4byte	.LVL512
 8756 25e4 D0270000 		.4byte	0x27d0
 8757 25e8 F7250000 		.4byte	0x25f7
 8758 25ec 14       		.uleb128 0x14
 8759 25ed 01       		.uleb128 0x1
 8760 25ee 50       		.byte	0x50
 8761 25ef 01       		.uleb128 0x1
 8762 25f0 30       		.byte	0x30
 8763 25f1 14       		.uleb128 0x14
 8764 25f2 01       		.uleb128 0x1
 8765 25f3 51       		.byte	0x51
 8766 25f4 01       		.uleb128 0x1
 8767 25f5 37       		.byte	0x37
 8768 25f6 00       		.byte	0
 8769 25f7 13       		.uleb128 0x13
 8770 25f8 B4010000 		.4byte	.LVL513
ARM GAS  C:\Users\PRAJWA~1\AppData\Local\Temp\ccedcYia.s 			page 172


 8771 25fc D0270000 		.4byte	0x27d0
 8772 2600 0F260000 		.4byte	0x260f
 8773 2604 14       		.uleb128 0x14
 8774 2605 01       		.uleb128 0x1
 8775 2606 50       		.byte	0x50
 8776 2607 01       		.uleb128 0x1
 8777 2608 30       		.byte	0x30
 8778 2609 14       		.uleb128 0x14
 8779 260a 01       		.uleb128 0x1
 8780 260b 51       		.byte	0x51
 8781 260c 01       		.uleb128 0x1
 8782 260d 31       		.byte	0x31
 8783 260e 00       		.byte	0
 8784 260f 13       		.uleb128 0x13
 8785 2610 C4010000 		.4byte	.LVL515
 8786 2614 3F130000 		.4byte	0x133f
 8787 2618 24260000 		.4byte	0x2624
 8788 261c 14       		.uleb128 0x14
 8789 261d 01       		.uleb128 0x1
 8790 261e 50       		.byte	0x50
 8791 261f 03       		.uleb128 0x3
 8792 2620 91       		.byte	0x91
 8793 2621 F47D     		.sleb128 -268
 8794 2623 00       		.byte	0
 8795 2624 13       		.uleb128 0x13
 8796 2625 CC010000 		.4byte	.LVL516
 8797 2629 D0270000 		.4byte	0x27d0
 8798 262d 3C260000 		.4byte	0x263c
 8799 2631 14       		.uleb128 0x14
 8800 2632 01       		.uleb128 0x1
 8801 2633 50       		.byte	0x50
 8802 2634 01       		.uleb128 0x1
 8803 2635 30       		.byte	0x30
 8804 2636 14       		.uleb128 0x14
 8805 2637 01       		.uleb128 0x1
 8806 2638 51       		.byte	0x51
 8807 2639 01       		.uleb128 0x1
 8808 263a 37       		.byte	0x37
 8809 263b 00       		.byte	0
 8810 263c 13       		.uleb128 0x13
 8811 263d DA010000 		.4byte	.LVL517
 8812 2641 D0270000 		.4byte	0x27d0
 8813 2645 54260000 		.4byte	0x2654
 8814 2649 14       		.uleb128 0x14
 8815 264a 01       		.uleb128 0x1
 8816 264b 50       		.byte	0x50
 8817 264c 01       		.uleb128 0x1
 8818 264d 30       		.byte	0x30
 8819 264e 14       		.uleb128 0x14
 8820 264f 01       		.uleb128 0x1
 8821 2650 51       		.byte	0x51
 8822 2651 01       		.uleb128 0x1
 8823 2652 32       		.byte	0x32
 8824 2653 00       		.byte	0
 8825 2654 15       		.uleb128 0x15
 8826 2655 EE010000 		.4byte	.LVL519
 8827 2659 87120000 		.4byte	0x1287
ARM GAS  C:\Users\PRAJWA~1\AppData\Local\Temp\ccedcYia.s 			page 173


 8828 265d 14       		.uleb128 0x14
 8829 265e 01       		.uleb128 0x1
 8830 265f 50       		.byte	0x50
 8831 2660 03       		.uleb128 0x3
 8832 2661 91       		.byte	0x91
 8833 2662 F47D     		.sleb128 -268
 8834 2664 14       		.uleb128 0x14
 8835 2665 01       		.uleb128 0x1
 8836 2666 51       		.byte	0x51
 8837 2667 05       		.uleb128 0x5
 8838 2668 03       		.byte	0x3
 8839 2669 34020000 		.4byte	.LC87
 8840 266d 00       		.byte	0
 8841 266e 00       		.byte	0
 8842 266f 08       		.uleb128 0x8
 8843 2670 DF000000 		.4byte	0xdf
 8844 2674 80260000 		.4byte	0x2680
 8845 2678 27       		.uleb128 0x27
 8846 2679 0A010000 		.4byte	0x10a
 8847 267d 2B01     		.2byte	0x12b
 8848 267f 00       		.byte	0
 8849 2680 2D       		.uleb128 0x2d
 8850 2681 28030000 		.4byte	.LASF174
 8851 2685 07       		.byte	0x7
 8852 2686 6F04     		.2byte	0x46f
 8853 2688 15040000 		.4byte	0x415
 8854 268c 2E       		.uleb128 0x2e
 8855 268d 0F080000 		.4byte	.LASF140
 8856 2691 0F080000 		.4byte	.LASF140
 8857 2695 09       		.byte	0x9
 8858 2696 33       		.byte	0x33
 8859 2697 2E       		.uleb128 0x2e
 8860 2698 5F030000 		.4byte	.LASF141
 8861 269c 5F030000 		.4byte	.LASF141
 8862 26a0 0A       		.byte	0xa
 8863 26a1 33       		.byte	0x33
 8864 26a2 2E       		.uleb128 0x2e
 8865 26a3 4D020000 		.4byte	.LASF142
 8866 26a7 4D020000 		.4byte	.LASF142
 8867 26ab 0B       		.byte	0xb
 8868 26ac 33       		.byte	0x33
 8869 26ad 2E       		.uleb128 0x2e
 8870 26ae BA050000 		.4byte	.LASF143
 8871 26b2 BA050000 		.4byte	.LASF143
 8872 26b6 0C       		.byte	0xc
 8873 26b7 33       		.byte	0x33
 8874 26b8 2E       		.uleb128 0x2e
 8875 26b9 B4030000 		.4byte	.LASF144
 8876 26bd B4030000 		.4byte	.LASF144
 8877 26c1 0D       		.byte	0xd
 8878 26c2 EC       		.byte	0xec
 8879 26c3 2F       		.uleb128 0x2f
 8880 26c4 54070000 		.4byte	.LASF145
 8881 26c8 54070000 		.4byte	.LASF145
 8882 26cc 0E       		.byte	0xe
 8883 26cd 4603     		.2byte	0x346
 8884 26cf 2F       		.uleb128 0x2f
ARM GAS  C:\Users\PRAJWA~1\AppData\Local\Temp\ccedcYia.s 			page 174


 8885 26d0 65060000 		.4byte	.LASF146
 8886 26d4 65060000 		.4byte	.LASF146
 8887 26d8 0E       		.byte	0xe
 8888 26d9 4703     		.2byte	0x347
 8889 26db 2F       		.uleb128 0x2f
 8890 26dc 94060000 		.4byte	.LASF147
 8891 26e0 94060000 		.4byte	.LASF147
 8892 26e4 0E       		.byte	0xe
 8893 26e5 3F03     		.2byte	0x33f
 8894 26e7 2E       		.uleb128 0x2e
 8895 26e8 50060000 		.4byte	.LASF148
 8896 26ec 50060000 		.4byte	.LASF148
 8897 26f0 0F       		.byte	0xf
 8898 26f1 33       		.byte	0x33
 8899 26f2 2E       		.uleb128 0x2e
 8900 26f3 42020000 		.4byte	.LASF149
 8901 26f7 42020000 		.4byte	.LASF149
 8902 26fb 10       		.byte	0x10
 8903 26fc 72       		.byte	0x72
 8904 26fd 2F       		.uleb128 0x2f
 8905 26fe C3050000 		.4byte	.LASF150
 8906 2702 C3050000 		.4byte	.LASF150
 8907 2706 0E       		.byte	0xe
 8908 2707 2A03     		.2byte	0x32a
 8909 2709 2F       		.uleb128 0x2f
 8910 270a 6C010000 		.4byte	.LASF151
 8911 270e 6C010000 		.4byte	.LASF151
 8912 2712 0E       		.byte	0xe
 8913 2713 3E03     		.2byte	0x33e
 8914 2715 2F       		.uleb128 0x2f
 8915 2716 C1040000 		.4byte	.LASF152
 8916 271a C1040000 		.4byte	.LASF152
 8917 271e 0E       		.byte	0xe
 8918 271f 3D03     		.2byte	0x33d
 8919 2721 2E       		.uleb128 0x2e
 8920 2722 83000000 		.4byte	.LASF153
 8921 2726 83000000 		.4byte	.LASF153
 8922 272a 11       		.byte	0x11
 8923 272b 23       		.byte	0x23
 8924 272c 30       		.uleb128 0x30
 8925 272d 6B040000 		.4byte	.LASF175
 8926 2731 6B040000 		.4byte	.LASF175
 8927 2735 2E       		.uleb128 0x2e
 8928 2736 3C000000 		.4byte	.LASF154
 8929 273a 3C000000 		.4byte	.LASF154
 8930 273e 12       		.byte	0x12
 8931 273f 49       		.byte	0x49
 8932 2740 2E       		.uleb128 0x2e
 8933 2741 FD040000 		.4byte	.LASF155
 8934 2745 FD040000 		.4byte	.LASF155
 8935 2749 13       		.byte	0x13
 8936 274a E7       		.byte	0xe7
 8937 274b 2E       		.uleb128 0x2e
 8938 274c 8E080000 		.4byte	.LASF156
 8939 2750 8E080000 		.4byte	.LASF156
 8940 2754 12       		.byte	0x12
 8941 2755 4D       		.byte	0x4d
ARM GAS  C:\Users\PRAJWA~1\AppData\Local\Temp\ccedcYia.s 			page 175


 8942 2756 2E       		.uleb128 0x2e
 8943 2757 F7080000 		.4byte	.LASF157
 8944 275b F7080000 		.4byte	.LASF157
 8945 275f 11       		.byte	0x11
 8946 2760 1C       		.byte	0x1c
 8947 2761 2F       		.uleb128 0x2f
 8948 2762 4B050000 		.4byte	.LASF158
 8949 2766 4B050000 		.4byte	.LASF158
 8950 276a 0E       		.byte	0xe
 8951 276b 4403     		.2byte	0x344
 8952 276d 2E       		.uleb128 0x2e
 8953 276e 1B070000 		.4byte	.LASF159
 8954 2772 1B070000 		.4byte	.LASF159
 8955 2776 14       		.byte	0x14
 8956 2777 5D       		.byte	0x5d
 8957 2778 2E       		.uleb128 0x2e
 8958 2779 33040000 		.4byte	.LASF160
 8959 277d 33040000 		.4byte	.LASF160
 8960 2781 14       		.byte	0x14
 8961 2782 4F       		.byte	0x4f
 8962 2783 2E       		.uleb128 0x2e
 8963 2784 72020000 		.4byte	.LASF161
 8964 2788 72020000 		.4byte	.LASF161
 8965 278c 15       		.byte	0x15
 8966 278d 72       		.byte	0x72
 8967 278e 2E       		.uleb128 0x2e
 8968 278f AB040000 		.4byte	.LASF162
 8969 2793 AB040000 		.4byte	.LASF162
 8970 2797 16       		.byte	0x16
 8971 2798 A2       		.byte	0xa2
 8972 2799 2E       		.uleb128 0x2e
 8973 279a 1C010000 		.4byte	.LASF163
 8974 279e 1C010000 		.4byte	.LASF163
 8975 27a2 17       		.byte	0x17
 8976 27a3 3B       		.byte	0x3b
 8977 27a4 2E       		.uleb128 0x2e
 8978 27a5 75080000 		.4byte	.LASF164
 8979 27a9 75080000 		.4byte	.LASF164
 8980 27ad 18       		.byte	0x18
 8981 27ae 5A       		.byte	0x5a
 8982 27af 2E       		.uleb128 0x2e
 8983 27b0 BD010000 		.4byte	.LASF165
 8984 27b4 BD010000 		.4byte	.LASF165
 8985 27b8 17       		.byte	0x17
 8986 27b9 3F       		.byte	0x3f
 8987 27ba 2E       		.uleb128 0x2e
 8988 27bb AB000000 		.4byte	.LASF166
 8989 27bf AB000000 		.4byte	.LASF166
 8990 27c3 19       		.byte	0x19
 8991 27c4 49       		.byte	0x49
 8992 27c5 2E       		.uleb128 0x2e
 8993 27c6 98030000 		.4byte	.LASF167
 8994 27ca 98030000 		.4byte	.LASF167
 8995 27ce 18       		.byte	0x18
 8996 27cf 59       		.byte	0x59
 8997 27d0 2F       		.uleb128 0x2f
 8998 27d1 56020000 		.4byte	.LASF168
ARM GAS  C:\Users\PRAJWA~1\AppData\Local\Temp\ccedcYia.s 			page 176


 8999 27d5 56020000 		.4byte	.LASF168
 9000 27d9 07       		.byte	0x7
 9001 27da 8A04     		.2byte	0x48a
 9002 27dc 2E       		.uleb128 0x2e
 9003 27dd 8B000000 		.4byte	.LASF169
 9004 27e1 8B000000 		.4byte	.LASF169
 9005 27e5 1A       		.byte	0x1a
 9006 27e6 33       		.byte	0x33
 9007 27e7 00       		.byte	0
 9008              		.section	.debug_abbrev,"",%progbits
 9009              	.Ldebug_abbrev0:
 9010 0000 01       		.uleb128 0x1
 9011 0001 11       		.uleb128 0x11
 9012 0002 01       		.byte	0x1
 9013 0003 25       		.uleb128 0x25
 9014 0004 0E       		.uleb128 0xe
 9015 0005 13       		.uleb128 0x13
 9016 0006 0B       		.uleb128 0xb
 9017 0007 03       		.uleb128 0x3
 9018 0008 0E       		.uleb128 0xe
 9019 0009 1B       		.uleb128 0x1b
 9020 000a 0E       		.uleb128 0xe
 9021 000b 55       		.uleb128 0x55
 9022 000c 17       		.uleb128 0x17
 9023 000d 11       		.uleb128 0x11
 9024 000e 01       		.uleb128 0x1
 9025 000f 10       		.uleb128 0x10
 9026 0010 17       		.uleb128 0x17
 9027 0011 00       		.byte	0
 9028 0012 00       		.byte	0
 9029 0013 02       		.uleb128 0x2
 9030 0014 24       		.uleb128 0x24
 9031 0015 00       		.byte	0
 9032 0016 0B       		.uleb128 0xb
 9033 0017 0B       		.uleb128 0xb
 9034 0018 3E       		.uleb128 0x3e
 9035 0019 0B       		.uleb128 0xb
 9036 001a 03       		.uleb128 0x3
 9037 001b 0E       		.uleb128 0xe
 9038 001c 00       		.byte	0
 9039 001d 00       		.byte	0
 9040 001e 03       		.uleb128 0x3
 9041 001f 16       		.uleb128 0x16
 9042 0020 00       		.byte	0
 9043 0021 03       		.uleb128 0x3
 9044 0022 0E       		.uleb128 0xe
 9045 0023 3A       		.uleb128 0x3a
 9046 0024 0B       		.uleb128 0xb
 9047 0025 3B       		.uleb128 0x3b
 9048 0026 0B       		.uleb128 0xb
 9049 0027 49       		.uleb128 0x49
 9050 0028 13       		.uleb128 0x13
 9051 0029 00       		.byte	0
 9052 002a 00       		.byte	0
 9053 002b 04       		.uleb128 0x4
 9054 002c 24       		.uleb128 0x24
 9055 002d 00       		.byte	0
ARM GAS  C:\Users\PRAJWA~1\AppData\Local\Temp\ccedcYia.s 			page 177


 9056 002e 0B       		.uleb128 0xb
 9057 002f 0B       		.uleb128 0xb
 9058 0030 3E       		.uleb128 0x3e
 9059 0031 0B       		.uleb128 0xb
 9060 0032 03       		.uleb128 0x3
 9061 0033 08       		.uleb128 0x8
 9062 0034 00       		.byte	0
 9063 0035 00       		.byte	0
 9064 0036 05       		.uleb128 0x5
 9065 0037 16       		.uleb128 0x16
 9066 0038 00       		.byte	0
 9067 0039 03       		.uleb128 0x3
 9068 003a 0E       		.uleb128 0xe
 9069 003b 3A       		.uleb128 0x3a
 9070 003c 0B       		.uleb128 0xb
 9071 003d 3B       		.uleb128 0x3b
 9072 003e 05       		.uleb128 0x5
 9073 003f 49       		.uleb128 0x49
 9074 0040 13       		.uleb128 0x13
 9075 0041 00       		.byte	0
 9076 0042 00       		.byte	0
 9077 0043 06       		.uleb128 0x6
 9078 0044 35       		.uleb128 0x35
 9079 0045 00       		.byte	0
 9080 0046 49       		.uleb128 0x49
 9081 0047 13       		.uleb128 0x13
 9082 0048 00       		.byte	0
 9083 0049 00       		.byte	0
 9084 004a 07       		.uleb128 0x7
 9085 004b 0F       		.uleb128 0xf
 9086 004c 00       		.byte	0
 9087 004d 0B       		.uleb128 0xb
 9088 004e 0B       		.uleb128 0xb
 9089 004f 49       		.uleb128 0x49
 9090 0050 13       		.uleb128 0x13
 9091 0051 00       		.byte	0
 9092 0052 00       		.byte	0
 9093 0053 08       		.uleb128 0x8
 9094 0054 01       		.uleb128 0x1
 9095 0055 01       		.byte	0x1
 9096 0056 49       		.uleb128 0x49
 9097 0057 13       		.uleb128 0x13
 9098 0058 01       		.uleb128 0x1
 9099 0059 13       		.uleb128 0x13
 9100 005a 00       		.byte	0
 9101 005b 00       		.byte	0
 9102 005c 09       		.uleb128 0x9
 9103 005d 21       		.uleb128 0x21
 9104 005e 00       		.byte	0
 9105 005f 49       		.uleb128 0x49
 9106 0060 13       		.uleb128 0x13
 9107 0061 2F       		.uleb128 0x2f
 9108 0062 0B       		.uleb128 0xb
 9109 0063 00       		.byte	0
 9110 0064 00       		.byte	0
 9111 0065 0A       		.uleb128 0xa
 9112 0066 13       		.uleb128 0x13
ARM GAS  C:\Users\PRAJWA~1\AppData\Local\Temp\ccedcYia.s 			page 178


 9113 0067 01       		.byte	0x1
 9114 0068 0B       		.uleb128 0xb
 9115 0069 0B       		.uleb128 0xb
 9116 006a 3A       		.uleb128 0x3a
 9117 006b 0B       		.uleb128 0xb
 9118 006c 3B       		.uleb128 0x3b
 9119 006d 05       		.uleb128 0x5
 9120 006e 01       		.uleb128 0x1
 9121 006f 13       		.uleb128 0x13
 9122 0070 00       		.byte	0
 9123 0071 00       		.byte	0
 9124 0072 0B       		.uleb128 0xb
 9125 0073 0D       		.uleb128 0xd
 9126 0074 00       		.byte	0
 9127 0075 03       		.uleb128 0x3
 9128 0076 0E       		.uleb128 0xe
 9129 0077 3A       		.uleb128 0x3a
 9130 0078 0B       		.uleb128 0xb
 9131 0079 3B       		.uleb128 0x3b
 9132 007a 05       		.uleb128 0x5
 9133 007b 49       		.uleb128 0x49
 9134 007c 13       		.uleb128 0x13
 9135 007d 38       		.uleb128 0x38
 9136 007e 0B       		.uleb128 0xb
 9137 007f 00       		.byte	0
 9138 0080 00       		.byte	0
 9139 0081 0C       		.uleb128 0xc
 9140 0082 0D       		.uleb128 0xd
 9141 0083 00       		.byte	0
 9142 0084 03       		.uleb128 0x3
 9143 0085 08       		.uleb128 0x8
 9144 0086 3A       		.uleb128 0x3a
 9145 0087 0B       		.uleb128 0xb
 9146 0088 3B       		.uleb128 0x3b
 9147 0089 05       		.uleb128 0x5
 9148 008a 49       		.uleb128 0x49
 9149 008b 13       		.uleb128 0x13
 9150 008c 38       		.uleb128 0x38
 9151 008d 0B       		.uleb128 0xb
 9152 008e 00       		.byte	0
 9153 008f 00       		.byte	0
 9154 0090 0D       		.uleb128 0xd
 9155 0091 13       		.uleb128 0x13
 9156 0092 01       		.byte	0x1
 9157 0093 03       		.uleb128 0x3
 9158 0094 0E       		.uleb128 0xe
 9159 0095 0B       		.uleb128 0xb
 9160 0096 0B       		.uleb128 0xb
 9161 0097 3A       		.uleb128 0x3a
 9162 0098 0B       		.uleb128 0xb
 9163 0099 3B       		.uleb128 0x3b
 9164 009a 0B       		.uleb128 0xb
 9165 009b 01       		.uleb128 0x1
 9166 009c 13       		.uleb128 0x13
 9167 009d 00       		.byte	0
 9168 009e 00       		.byte	0
 9169 009f 0E       		.uleb128 0xe
ARM GAS  C:\Users\PRAJWA~1\AppData\Local\Temp\ccedcYia.s 			page 179


 9170 00a0 0D       		.uleb128 0xd
 9171 00a1 00       		.byte	0
 9172 00a2 03       		.uleb128 0x3
 9173 00a3 0E       		.uleb128 0xe
 9174 00a4 3A       		.uleb128 0x3a
 9175 00a5 0B       		.uleb128 0xb
 9176 00a6 3B       		.uleb128 0x3b
 9177 00a7 0B       		.uleb128 0xb
 9178 00a8 49       		.uleb128 0x49
 9179 00a9 13       		.uleb128 0x13
 9180 00aa 38       		.uleb128 0x38
 9181 00ab 0B       		.uleb128 0xb
 9182 00ac 00       		.byte	0
 9183 00ad 00       		.byte	0
 9184 00ae 0F       		.uleb128 0xf
 9185 00af 13       		.uleb128 0x13
 9186 00b0 01       		.byte	0x1
 9187 00b1 0B       		.uleb128 0xb
 9188 00b2 0B       		.uleb128 0xb
 9189 00b3 3A       		.uleb128 0x3a
 9190 00b4 0B       		.uleb128 0xb
 9191 00b5 3B       		.uleb128 0x3b
 9192 00b6 0B       		.uleb128 0xb
 9193 00b7 01       		.uleb128 0x1
 9194 00b8 13       		.uleb128 0x13
 9195 00b9 00       		.byte	0
 9196 00ba 00       		.byte	0
 9197 00bb 10       		.uleb128 0x10
 9198 00bc 0D       		.uleb128 0xd
 9199 00bd 00       		.byte	0
 9200 00be 03       		.uleb128 0x3
 9201 00bf 08       		.uleb128 0x8
 9202 00c0 3A       		.uleb128 0x3a
 9203 00c1 0B       		.uleb128 0xb
 9204 00c2 3B       		.uleb128 0x3b
 9205 00c3 0B       		.uleb128 0xb
 9206 00c4 49       		.uleb128 0x49
 9207 00c5 13       		.uleb128 0x13
 9208 00c6 38       		.uleb128 0x38
 9209 00c7 0B       		.uleb128 0xb
 9210 00c8 00       		.byte	0
 9211 00c9 00       		.byte	0
 9212 00ca 11       		.uleb128 0x11
 9213 00cb 2E       		.uleb128 0x2e
 9214 00cc 01       		.byte	0x1
 9215 00cd 3F       		.uleb128 0x3f
 9216 00ce 19       		.uleb128 0x19
 9217 00cf 03       		.uleb128 0x3
 9218 00d0 0E       		.uleb128 0xe
 9219 00d1 3A       		.uleb128 0x3a
 9220 00d2 0B       		.uleb128 0xb
 9221 00d3 3B       		.uleb128 0x3b
 9222 00d4 0B       		.uleb128 0xb
 9223 00d5 27       		.uleb128 0x27
 9224 00d6 19       		.uleb128 0x19
 9225 00d7 11       		.uleb128 0x11
 9226 00d8 01       		.uleb128 0x1
ARM GAS  C:\Users\PRAJWA~1\AppData\Local\Temp\ccedcYia.s 			page 180


 9227 00d9 12       		.uleb128 0x12
 9228 00da 06       		.uleb128 0x6
 9229 00db 40       		.uleb128 0x40
 9230 00dc 18       		.uleb128 0x18
 9231 00dd 9742     		.uleb128 0x2117
 9232 00df 19       		.uleb128 0x19
 9233 00e0 01       		.uleb128 0x1
 9234 00e1 13       		.uleb128 0x13
 9235 00e2 00       		.byte	0
 9236 00e3 00       		.byte	0
 9237 00e4 12       		.uleb128 0x12
 9238 00e5 05       		.uleb128 0x5
 9239 00e6 00       		.byte	0
 9240 00e7 03       		.uleb128 0x3
 9241 00e8 08       		.uleb128 0x8
 9242 00e9 3A       		.uleb128 0x3a
 9243 00ea 0B       		.uleb128 0xb
 9244 00eb 3B       		.uleb128 0x3b
 9245 00ec 0B       		.uleb128 0xb
 9246 00ed 49       		.uleb128 0x49
 9247 00ee 13       		.uleb128 0x13
 9248 00ef 02       		.uleb128 0x2
 9249 00f0 17       		.uleb128 0x17
 9250 00f1 00       		.byte	0
 9251 00f2 00       		.byte	0
 9252 00f3 13       		.uleb128 0x13
 9253 00f4 898201   		.uleb128 0x4109
 9254 00f7 01       		.byte	0x1
 9255 00f8 11       		.uleb128 0x11
 9256 00f9 01       		.uleb128 0x1
 9257 00fa 31       		.uleb128 0x31
 9258 00fb 13       		.uleb128 0x13
 9259 00fc 01       		.uleb128 0x1
 9260 00fd 13       		.uleb128 0x13
 9261 00fe 00       		.byte	0
 9262 00ff 00       		.byte	0
 9263 0100 14       		.uleb128 0x14
 9264 0101 8A8201   		.uleb128 0x410a
 9265 0104 00       		.byte	0
 9266 0105 02       		.uleb128 0x2
 9267 0106 18       		.uleb128 0x18
 9268 0107 9142     		.uleb128 0x2111
 9269 0109 18       		.uleb128 0x18
 9270 010a 00       		.byte	0
 9271 010b 00       		.byte	0
 9272 010c 15       		.uleb128 0x15
 9273 010d 898201   		.uleb128 0x4109
 9274 0110 01       		.byte	0x1
 9275 0111 11       		.uleb128 0x11
 9276 0112 01       		.uleb128 0x1
 9277 0113 31       		.uleb128 0x31
 9278 0114 13       		.uleb128 0x13
 9279 0115 00       		.byte	0
 9280 0116 00       		.byte	0
 9281 0117 16       		.uleb128 0x16
 9282 0118 34       		.uleb128 0x34
 9283 0119 00       		.byte	0
ARM GAS  C:\Users\PRAJWA~1\AppData\Local\Temp\ccedcYia.s 			page 181


 9284 011a 03       		.uleb128 0x3
 9285 011b 0E       		.uleb128 0xe
 9286 011c 3A       		.uleb128 0x3a
 9287 011d 0B       		.uleb128 0xb
 9288 011e 3B       		.uleb128 0x3b
 9289 011f 0B       		.uleb128 0xb
 9290 0120 49       		.uleb128 0x49
 9291 0121 13       		.uleb128 0x13
 9292 0122 02       		.uleb128 0x2
 9293 0123 17       		.uleb128 0x17
 9294 0124 00       		.byte	0
 9295 0125 00       		.byte	0
 9296 0126 17       		.uleb128 0x17
 9297 0127 898201   		.uleb128 0x4109
 9298 012a 00       		.byte	0
 9299 012b 11       		.uleb128 0x11
 9300 012c 01       		.uleb128 0x1
 9301 012d 31       		.uleb128 0x31
 9302 012e 13       		.uleb128 0x13
 9303 012f 00       		.byte	0
 9304 0130 00       		.byte	0
 9305 0131 18       		.uleb128 0x18
 9306 0132 2E       		.uleb128 0x2e
 9307 0133 01       		.byte	0x1
 9308 0134 3F       		.uleb128 0x3f
 9309 0135 19       		.uleb128 0x19
 9310 0136 03       		.uleb128 0x3
 9311 0137 0E       		.uleb128 0xe
 9312 0138 3A       		.uleb128 0x3a
 9313 0139 0B       		.uleb128 0xb
 9314 013a 3B       		.uleb128 0x3b
 9315 013b 0B       		.uleb128 0xb
 9316 013c 27       		.uleb128 0x27
 9317 013d 19       		.uleb128 0x19
 9318 013e 49       		.uleb128 0x49
 9319 013f 13       		.uleb128 0x13
 9320 0140 11       		.uleb128 0x11
 9321 0141 01       		.uleb128 0x1
 9322 0142 12       		.uleb128 0x12
 9323 0143 06       		.uleb128 0x6
 9324 0144 40       		.uleb128 0x40
 9325 0145 18       		.uleb128 0x18
 9326 0146 9742     		.uleb128 0x2117
 9327 0148 19       		.uleb128 0x19
 9328 0149 01       		.uleb128 0x1
 9329 014a 13       		.uleb128 0x13
 9330 014b 00       		.byte	0
 9331 014c 00       		.byte	0
 9332 014d 19       		.uleb128 0x19
 9333 014e 05       		.uleb128 0x5
 9334 014f 00       		.byte	0
 9335 0150 03       		.uleb128 0x3
 9336 0151 0E       		.uleb128 0xe
 9337 0152 3A       		.uleb128 0x3a
 9338 0153 0B       		.uleb128 0xb
 9339 0154 3B       		.uleb128 0x3b
 9340 0155 0B       		.uleb128 0xb
ARM GAS  C:\Users\PRAJWA~1\AppData\Local\Temp\ccedcYia.s 			page 182


 9341 0156 49       		.uleb128 0x49
 9342 0157 13       		.uleb128 0x13
 9343 0158 02       		.uleb128 0x2
 9344 0159 17       		.uleb128 0x17
 9345 015a 00       		.byte	0
 9346 015b 00       		.byte	0
 9347 015c 1A       		.uleb128 0x1a
 9348 015d 34       		.uleb128 0x34
 9349 015e 00       		.byte	0
 9350 015f 03       		.uleb128 0x3
 9351 0160 08       		.uleb128 0x8
 9352 0161 3A       		.uleb128 0x3a
 9353 0162 0B       		.uleb128 0xb
 9354 0163 3B       		.uleb128 0x3b
 9355 0164 0B       		.uleb128 0xb
 9356 0165 49       		.uleb128 0x49
 9357 0166 13       		.uleb128 0x13
 9358 0167 02       		.uleb128 0x2
 9359 0168 17       		.uleb128 0x17
 9360 0169 00       		.byte	0
 9361 016a 00       		.byte	0
 9362 016b 1B       		.uleb128 0x1b
 9363 016c 34       		.uleb128 0x34
 9364 016d 00       		.byte	0
 9365 016e 03       		.uleb128 0x3
 9366 016f 08       		.uleb128 0x8
 9367 0170 3A       		.uleb128 0x3a
 9368 0171 0B       		.uleb128 0xb
 9369 0172 3B       		.uleb128 0x3b
 9370 0173 0B       		.uleb128 0xb
 9371 0174 49       		.uleb128 0x49
 9372 0175 13       		.uleb128 0x13
 9373 0176 02       		.uleb128 0x2
 9374 0177 18       		.uleb128 0x18
 9375 0178 00       		.byte	0
 9376 0179 00       		.byte	0
 9377 017a 1C       		.uleb128 0x1c
 9378 017b 34       		.uleb128 0x34
 9379 017c 00       		.byte	0
 9380 017d 03       		.uleb128 0x3
 9381 017e 0E       		.uleb128 0xe
 9382 017f 3A       		.uleb128 0x3a
 9383 0180 0B       		.uleb128 0xb
 9384 0181 3B       		.uleb128 0x3b
 9385 0182 0B       		.uleb128 0xb
 9386 0183 49       		.uleb128 0x49
 9387 0184 13       		.uleb128 0x13
 9388 0185 02       		.uleb128 0x2
 9389 0186 18       		.uleb128 0x18
 9390 0187 00       		.byte	0
 9391 0188 00       		.byte	0
 9392 0189 1D       		.uleb128 0x1d
 9393 018a 2E       		.uleb128 0x2e
 9394 018b 01       		.byte	0x1
 9395 018c 3F       		.uleb128 0x3f
 9396 018d 19       		.uleb128 0x19
 9397 018e 03       		.uleb128 0x3
ARM GAS  C:\Users\PRAJWA~1\AppData\Local\Temp\ccedcYia.s 			page 183


 9398 018f 0E       		.uleb128 0xe
 9399 0190 3A       		.uleb128 0x3a
 9400 0191 0B       		.uleb128 0xb
 9401 0192 3B       		.uleb128 0x3b
 9402 0193 0B       		.uleb128 0xb
 9403 0194 27       		.uleb128 0x27
 9404 0195 19       		.uleb128 0x19
 9405 0196 49       		.uleb128 0x49
 9406 0197 13       		.uleb128 0x13
 9407 0198 11       		.uleb128 0x11
 9408 0199 01       		.uleb128 0x1
 9409 019a 12       		.uleb128 0x12
 9410 019b 06       		.uleb128 0x6
 9411 019c 40       		.uleb128 0x40
 9412 019d 18       		.uleb128 0x18
 9413 019e 9642     		.uleb128 0x2116
 9414 01a0 19       		.uleb128 0x19
 9415 01a1 01       		.uleb128 0x1
 9416 01a2 13       		.uleb128 0x13
 9417 01a3 00       		.byte	0
 9418 01a4 00       		.byte	0
 9419 01a5 1E       		.uleb128 0x1e
 9420 01a6 2E       		.uleb128 0x2e
 9421 01a7 01       		.byte	0x1
 9422 01a8 3F       		.uleb128 0x3f
 9423 01a9 19       		.uleb128 0x19
 9424 01aa 03       		.uleb128 0x3
 9425 01ab 0E       		.uleb128 0xe
 9426 01ac 3A       		.uleb128 0x3a
 9427 01ad 0B       		.uleb128 0xb
 9428 01ae 3B       		.uleb128 0x3b
 9429 01af 05       		.uleb128 0x5
 9430 01b0 27       		.uleb128 0x27
 9431 01b1 19       		.uleb128 0x19
 9432 01b2 49       		.uleb128 0x49
 9433 01b3 13       		.uleb128 0x13
 9434 01b4 11       		.uleb128 0x11
 9435 01b5 01       		.uleb128 0x1
 9436 01b6 12       		.uleb128 0x12
 9437 01b7 06       		.uleb128 0x6
 9438 01b8 40       		.uleb128 0x40
 9439 01b9 18       		.uleb128 0x18
 9440 01ba 9742     		.uleb128 0x2117
 9441 01bc 19       		.uleb128 0x19
 9442 01bd 01       		.uleb128 0x1
 9443 01be 13       		.uleb128 0x13
 9444 01bf 00       		.byte	0
 9445 01c0 00       		.byte	0
 9446 01c1 1F       		.uleb128 0x1f
 9447 01c2 05       		.uleb128 0x5
 9448 01c3 00       		.byte	0
 9449 01c4 03       		.uleb128 0x3
 9450 01c5 08       		.uleb128 0x8
 9451 01c6 3A       		.uleb128 0x3a
 9452 01c7 0B       		.uleb128 0xb
 9453 01c8 3B       		.uleb128 0x3b
 9454 01c9 05       		.uleb128 0x5
ARM GAS  C:\Users\PRAJWA~1\AppData\Local\Temp\ccedcYia.s 			page 184


 9455 01ca 49       		.uleb128 0x49
 9456 01cb 13       		.uleb128 0x13
 9457 01cc 02       		.uleb128 0x2
 9458 01cd 17       		.uleb128 0x17
 9459 01ce 00       		.byte	0
 9460 01cf 00       		.byte	0
 9461 01d0 20       		.uleb128 0x20
 9462 01d1 34       		.uleb128 0x34
 9463 01d2 00       		.byte	0
 9464 01d3 03       		.uleb128 0x3
 9465 01d4 0E       		.uleb128 0xe
 9466 01d5 3A       		.uleb128 0x3a
 9467 01d6 0B       		.uleb128 0xb
 9468 01d7 3B       		.uleb128 0x3b
 9469 01d8 05       		.uleb128 0x5
 9470 01d9 49       		.uleb128 0x49
 9471 01da 13       		.uleb128 0x13
 9472 01db 02       		.uleb128 0x2
 9473 01dc 18       		.uleb128 0x18
 9474 01dd 00       		.byte	0
 9475 01de 00       		.byte	0
 9476 01df 21       		.uleb128 0x21
 9477 01e0 34       		.uleb128 0x34
 9478 01e1 00       		.byte	0
 9479 01e2 03       		.uleb128 0x3
 9480 01e3 0E       		.uleb128 0xe
 9481 01e4 3A       		.uleb128 0x3a
 9482 01e5 0B       		.uleb128 0xb
 9483 01e6 3B       		.uleb128 0x3b
 9484 01e7 05       		.uleb128 0x5
 9485 01e8 49       		.uleb128 0x49
 9486 01e9 13       		.uleb128 0x13
 9487 01ea 02       		.uleb128 0x2
 9488 01eb 17       		.uleb128 0x17
 9489 01ec 00       		.byte	0
 9490 01ed 00       		.byte	0
 9491 01ee 22       		.uleb128 0x22
 9492 01ef 34       		.uleb128 0x34
 9493 01f0 00       		.byte	0
 9494 01f1 03       		.uleb128 0x3
 9495 01f2 08       		.uleb128 0x8
 9496 01f3 3A       		.uleb128 0x3a
 9497 01f4 0B       		.uleb128 0xb
 9498 01f5 3B       		.uleb128 0x3b
 9499 01f6 05       		.uleb128 0x5
 9500 01f7 49       		.uleb128 0x49
 9501 01f8 13       		.uleb128 0x13
 9502 01f9 02       		.uleb128 0x2
 9503 01fa 18       		.uleb128 0x18
 9504 01fb 00       		.byte	0
 9505 01fc 00       		.byte	0
 9506 01fd 23       		.uleb128 0x23
 9507 01fe 34       		.uleb128 0x34
 9508 01ff 00       		.byte	0
 9509 0200 03       		.uleb128 0x3
 9510 0201 0E       		.uleb128 0xe
 9511 0202 3A       		.uleb128 0x3a
ARM GAS  C:\Users\PRAJWA~1\AppData\Local\Temp\ccedcYia.s 			page 185


 9512 0203 0B       		.uleb128 0xb
 9513 0204 3B       		.uleb128 0x3b
 9514 0205 05       		.uleb128 0x5
 9515 0206 49       		.uleb128 0x49
 9516 0207 13       		.uleb128 0x13
 9517 0208 00       		.byte	0
 9518 0209 00       		.byte	0
 9519 020a 24       		.uleb128 0x24
 9520 020b 34       		.uleb128 0x34
 9521 020c 00       		.byte	0
 9522 020d 03       		.uleb128 0x3
 9523 020e 08       		.uleb128 0x8
 9524 020f 3A       		.uleb128 0x3a
 9525 0210 0B       		.uleb128 0xb
 9526 0211 3B       		.uleb128 0x3b
 9527 0212 05       		.uleb128 0x5
 9528 0213 49       		.uleb128 0x49
 9529 0214 13       		.uleb128 0x13
 9530 0215 00       		.byte	0
 9531 0216 00       		.byte	0
 9532 0217 25       		.uleb128 0x25
 9533 0218 34       		.uleb128 0x34
 9534 0219 00       		.byte	0
 9535 021a 03       		.uleb128 0x3
 9536 021b 08       		.uleb128 0x8
 9537 021c 3A       		.uleb128 0x3a
 9538 021d 0B       		.uleb128 0xb
 9539 021e 3B       		.uleb128 0x3b
 9540 021f 05       		.uleb128 0x5
 9541 0220 49       		.uleb128 0x49
 9542 0221 13       		.uleb128 0x13
 9543 0222 02       		.uleb128 0x2
 9544 0223 17       		.uleb128 0x17
 9545 0224 00       		.byte	0
 9546 0225 00       		.byte	0
 9547 0226 26       		.uleb128 0x26
 9548 0227 05       		.uleb128 0x5
 9549 0228 00       		.byte	0
 9550 0229 03       		.uleb128 0x3
 9551 022a 0E       		.uleb128 0xe
 9552 022b 3A       		.uleb128 0x3a
 9553 022c 0B       		.uleb128 0xb
 9554 022d 3B       		.uleb128 0x3b
 9555 022e 05       		.uleb128 0x5
 9556 022f 49       		.uleb128 0x49
 9557 0230 13       		.uleb128 0x13
 9558 0231 02       		.uleb128 0x2
 9559 0232 17       		.uleb128 0x17
 9560 0233 00       		.byte	0
 9561 0234 00       		.byte	0
 9562 0235 27       		.uleb128 0x27
 9563 0236 21       		.uleb128 0x21
 9564 0237 00       		.byte	0
 9565 0238 49       		.uleb128 0x49
 9566 0239 13       		.uleb128 0x13
 9567 023a 2F       		.uleb128 0x2f
 9568 023b 05       		.uleb128 0x5
ARM GAS  C:\Users\PRAJWA~1\AppData\Local\Temp\ccedcYia.s 			page 186


 9569 023c 00       		.byte	0
 9570 023d 00       		.byte	0
 9571 023e 28       		.uleb128 0x28
 9572 023f 05       		.uleb128 0x5
 9573 0240 00       		.byte	0
 9574 0241 03       		.uleb128 0x3
 9575 0242 0E       		.uleb128 0xe
 9576 0243 3A       		.uleb128 0x3a
 9577 0244 0B       		.uleb128 0xb
 9578 0245 3B       		.uleb128 0x3b
 9579 0246 05       		.uleb128 0x5
 9580 0247 49       		.uleb128 0x49
 9581 0248 13       		.uleb128 0x13
 9582 0249 02       		.uleb128 0x2
 9583 024a 18       		.uleb128 0x18
 9584 024b 00       		.byte	0
 9585 024c 00       		.byte	0
 9586 024d 29       		.uleb128 0x29
 9587 024e 2E       		.uleb128 0x2e
 9588 024f 01       		.byte	0x1
 9589 0250 3F       		.uleb128 0x3f
 9590 0251 19       		.uleb128 0x19
 9591 0252 03       		.uleb128 0x3
 9592 0253 0E       		.uleb128 0xe
 9593 0254 3A       		.uleb128 0x3a
 9594 0255 0B       		.uleb128 0xb
 9595 0256 3B       		.uleb128 0x3b
 9596 0257 0B       		.uleb128 0xb
 9597 0258 27       		.uleb128 0x27
 9598 0259 19       		.uleb128 0x19
 9599 025a 49       		.uleb128 0x49
 9600 025b 13       		.uleb128 0x13
 9601 025c 8701     		.uleb128 0x87
 9602 025e 19       		.uleb128 0x19
 9603 025f 11       		.uleb128 0x11
 9604 0260 01       		.uleb128 0x1
 9605 0261 12       		.uleb128 0x12
 9606 0262 06       		.uleb128 0x6
 9607 0263 40       		.uleb128 0x40
 9608 0264 18       		.uleb128 0x18
 9609 0265 9742     		.uleb128 0x2117
 9610 0267 19       		.uleb128 0x19
 9611 0268 01       		.uleb128 0x1
 9612 0269 13       		.uleb128 0x13
 9613 026a 00       		.byte	0
 9614 026b 00       		.byte	0
 9615 026c 2A       		.uleb128 0x2a
 9616 026d 34       		.uleb128 0x34
 9617 026e 00       		.byte	0
 9618 026f 03       		.uleb128 0x3
 9619 0270 08       		.uleb128 0x8
 9620 0271 3A       		.uleb128 0x3a
 9621 0272 0B       		.uleb128 0xb
 9622 0273 3B       		.uleb128 0x3b
 9623 0274 0B       		.uleb128 0xb
 9624 0275 49       		.uleb128 0x49
 9625 0276 13       		.uleb128 0x13
ARM GAS  C:\Users\PRAJWA~1\AppData\Local\Temp\ccedcYia.s 			page 187


 9626 0277 00       		.byte	0
 9627 0278 00       		.byte	0
 9628 0279 2B       		.uleb128 0x2b
 9629 027a 34       		.uleb128 0x34
 9630 027b 00       		.byte	0
 9631 027c 03       		.uleb128 0x3
 9632 027d 08       		.uleb128 0x8
 9633 027e 3A       		.uleb128 0x3a
 9634 027f 0B       		.uleb128 0xb
 9635 0280 3B       		.uleb128 0x3b
 9636 0281 0B       		.uleb128 0xb
 9637 0282 49       		.uleb128 0x49
 9638 0283 13       		.uleb128 0x13
 9639 0284 1C       		.uleb128 0x1c
 9640 0285 0B       		.uleb128 0xb
 9641 0286 00       		.byte	0
 9642 0287 00       		.byte	0
 9643 0288 2C       		.uleb128 0x2c
 9644 0289 34       		.uleb128 0x34
 9645 028a 00       		.byte	0
 9646 028b 03       		.uleb128 0x3
 9647 028c 0E       		.uleb128 0xe
 9648 028d 3A       		.uleb128 0x3a
 9649 028e 0B       		.uleb128 0xb
 9650 028f 3B       		.uleb128 0x3b
 9651 0290 0B       		.uleb128 0xb
 9652 0291 49       		.uleb128 0x49
 9653 0292 13       		.uleb128 0x13
 9654 0293 00       		.byte	0
 9655 0294 00       		.byte	0
 9656 0295 2D       		.uleb128 0x2d
 9657 0296 34       		.uleb128 0x34
 9658 0297 00       		.byte	0
 9659 0298 03       		.uleb128 0x3
 9660 0299 0E       		.uleb128 0xe
 9661 029a 3A       		.uleb128 0x3a
 9662 029b 0B       		.uleb128 0xb
 9663 029c 3B       		.uleb128 0x3b
 9664 029d 05       		.uleb128 0x5
 9665 029e 49       		.uleb128 0x49
 9666 029f 13       		.uleb128 0x13
 9667 02a0 3F       		.uleb128 0x3f
 9668 02a1 19       		.uleb128 0x19
 9669 02a2 3C       		.uleb128 0x3c
 9670 02a3 19       		.uleb128 0x19
 9671 02a4 00       		.byte	0
 9672 02a5 00       		.byte	0
 9673 02a6 2E       		.uleb128 0x2e
 9674 02a7 2E       		.uleb128 0x2e
 9675 02a8 00       		.byte	0
 9676 02a9 3F       		.uleb128 0x3f
 9677 02aa 19       		.uleb128 0x19
 9678 02ab 3C       		.uleb128 0x3c
 9679 02ac 19       		.uleb128 0x19
 9680 02ad 6E       		.uleb128 0x6e
 9681 02ae 0E       		.uleb128 0xe
 9682 02af 03       		.uleb128 0x3
ARM GAS  C:\Users\PRAJWA~1\AppData\Local\Temp\ccedcYia.s 			page 188


 9683 02b0 0E       		.uleb128 0xe
 9684 02b1 3A       		.uleb128 0x3a
 9685 02b2 0B       		.uleb128 0xb
 9686 02b3 3B       		.uleb128 0x3b
 9687 02b4 0B       		.uleb128 0xb
 9688 02b5 00       		.byte	0
 9689 02b6 00       		.byte	0
 9690 02b7 2F       		.uleb128 0x2f
 9691 02b8 2E       		.uleb128 0x2e
 9692 02b9 00       		.byte	0
 9693 02ba 3F       		.uleb128 0x3f
 9694 02bb 19       		.uleb128 0x19
 9695 02bc 3C       		.uleb128 0x3c
 9696 02bd 19       		.uleb128 0x19
 9697 02be 6E       		.uleb128 0x6e
 9698 02bf 0E       		.uleb128 0xe
 9699 02c0 03       		.uleb128 0x3
 9700 02c1 0E       		.uleb128 0xe
 9701 02c2 3A       		.uleb128 0x3a
 9702 02c3 0B       		.uleb128 0xb
 9703 02c4 3B       		.uleb128 0x3b
 9704 02c5 05       		.uleb128 0x5
 9705 02c6 00       		.byte	0
 9706 02c7 00       		.byte	0
 9707 02c8 30       		.uleb128 0x30
 9708 02c9 2E       		.uleb128 0x2e
 9709 02ca 00       		.byte	0
 9710 02cb 3F       		.uleb128 0x3f
 9711 02cc 19       		.uleb128 0x19
 9712 02cd 3C       		.uleb128 0x3c
 9713 02ce 19       		.uleb128 0x19
 9714 02cf 6E       		.uleb128 0x6e
 9715 02d0 0E       		.uleb128 0xe
 9716 02d1 03       		.uleb128 0x3
 9717 02d2 0E       		.uleb128 0xe
 9718 02d3 00       		.byte	0
 9719 02d4 00       		.byte	0
 9720 02d5 00       		.byte	0
 9721              		.section	.debug_loc,"",%progbits
 9722              	.Ldebug_loc0:
 9723              	.LLST0:
 9724 0000 00000000 		.4byte	.LVL0
 9725 0004 12000000 		.4byte	.LVL2
 9726 0008 0100     		.2byte	0x1
 9727 000a 50       		.byte	0x50
 9728 000b 12000000 		.4byte	.LVL2
 9729 000f 2A000000 		.4byte	.LVL7
 9730 0013 0400     		.2byte	0x4
 9731 0015 F3       		.byte	0xf3
 9732 0016 01       		.uleb128 0x1
 9733 0017 50       		.byte	0x50
 9734 0018 9F       		.byte	0x9f
 9735 0019 2A000000 		.4byte	.LVL7
 9736 001d 2C000000 		.4byte	.LVL8
 9737 0021 0100     		.2byte	0x1
 9738 0023 50       		.byte	0x50
 9739 0024 2C000000 		.4byte	.LVL8
ARM GAS  C:\Users\PRAJWA~1\AppData\Local\Temp\ccedcYia.s 			page 189


 9740 0028 44000000 		.4byte	.LVL13
 9741 002c 0400     		.2byte	0x4
 9742 002e F3       		.byte	0xf3
 9743 002f 01       		.uleb128 0x1
 9744 0030 50       		.byte	0x50
 9745 0031 9F       		.byte	0x9f
 9746 0032 44000000 		.4byte	.LVL13
 9747 0036 46000000 		.4byte	.LVL14
 9748 003a 0100     		.2byte	0x1
 9749 003c 50       		.byte	0x50
 9750 003d 46000000 		.4byte	.LVL14
 9751 0041 5E000000 		.4byte	.LVL19
 9752 0045 0400     		.2byte	0x4
 9753 0047 F3       		.byte	0xf3
 9754 0048 01       		.uleb128 0x1
 9755 0049 50       		.byte	0x50
 9756 004a 9F       		.byte	0x9f
 9757 004b 5E000000 		.4byte	.LVL19
 9758 004f 60000000 		.4byte	.LVL20
 9759 0053 0100     		.2byte	0x1
 9760 0055 50       		.byte	0x50
 9761 0056 60000000 		.4byte	.LVL20
 9762 005a 78000000 		.4byte	.LVL25
 9763 005e 0400     		.2byte	0x4
 9764 0060 F3       		.byte	0xf3
 9765 0061 01       		.uleb128 0x1
 9766 0062 50       		.byte	0x50
 9767 0063 9F       		.byte	0x9f
 9768 0064 78000000 		.4byte	.LVL25
 9769 0068 7A000000 		.4byte	.LVL26
 9770 006c 0100     		.2byte	0x1
 9771 006e 50       		.byte	0x50
 9772 006f 7A000000 		.4byte	.LVL26
 9773 0073 92000000 		.4byte	.LVL31
 9774 0077 0400     		.2byte	0x4
 9775 0079 F3       		.byte	0xf3
 9776 007a 01       		.uleb128 0x1
 9777 007b 50       		.byte	0x50
 9778 007c 9F       		.byte	0x9f
 9779 007d 92000000 		.4byte	.LVL31
 9780 0081 94000000 		.4byte	.LVL32
 9781 0085 0100     		.2byte	0x1
 9782 0087 50       		.byte	0x50
 9783 0088 94000000 		.4byte	.LVL32
 9784 008c AC000000 		.4byte	.LVL37
 9785 0090 0400     		.2byte	0x4
 9786 0092 F3       		.byte	0xf3
 9787 0093 01       		.uleb128 0x1
 9788 0094 50       		.byte	0x50
 9789 0095 9F       		.byte	0x9f
 9790 0096 AC000000 		.4byte	.LVL37
 9791 009a AE000000 		.4byte	.LVL38
 9792 009e 0100     		.2byte	0x1
 9793 00a0 50       		.byte	0x50
 9794 00a1 AE000000 		.4byte	.LVL38
 9795 00a5 C6000000 		.4byte	.LVL43
 9796 00a9 0400     		.2byte	0x4
ARM GAS  C:\Users\PRAJWA~1\AppData\Local\Temp\ccedcYia.s 			page 190


 9797 00ab F3       		.byte	0xf3
 9798 00ac 01       		.uleb128 0x1
 9799 00ad 50       		.byte	0x50
 9800 00ae 9F       		.byte	0x9f
 9801 00af C6000000 		.4byte	.LVL43
 9802 00b3 C8000000 		.4byte	.LVL44
 9803 00b7 0100     		.2byte	0x1
 9804 00b9 50       		.byte	0x50
 9805 00ba C8000000 		.4byte	.LVL44
 9806 00be E0000000 		.4byte	.LVL49
 9807 00c2 0400     		.2byte	0x4
 9808 00c4 F3       		.byte	0xf3
 9809 00c5 01       		.uleb128 0x1
 9810 00c6 50       		.byte	0x50
 9811 00c7 9F       		.byte	0x9f
 9812 00c8 E0000000 		.4byte	.LVL49
 9813 00cc E2000000 		.4byte	.LVL50
 9814 00d0 0100     		.2byte	0x1
 9815 00d2 50       		.byte	0x50
 9816 00d3 E2000000 		.4byte	.LVL50
 9817 00d7 FA000000 		.4byte	.LVL55
 9818 00db 0400     		.2byte	0x4
 9819 00dd F3       		.byte	0xf3
 9820 00de 01       		.uleb128 0x1
 9821 00df 50       		.byte	0x50
 9822 00e0 9F       		.byte	0x9f
 9823 00e1 FA000000 		.4byte	.LVL55
 9824 00e5 FC000000 		.4byte	.LVL56
 9825 00e9 0100     		.2byte	0x1
 9826 00eb 50       		.byte	0x50
 9827 00ec FC000000 		.4byte	.LVL56
 9828 00f0 14010000 		.4byte	.LVL61
 9829 00f4 0400     		.2byte	0x4
 9830 00f6 F3       		.byte	0xf3
 9831 00f7 01       		.uleb128 0x1
 9832 00f8 50       		.byte	0x50
 9833 00f9 9F       		.byte	0x9f
 9834 00fa 14010000 		.4byte	.LVL61
 9835 00fe 16010000 		.4byte	.LVL62
 9836 0102 0100     		.2byte	0x1
 9837 0104 50       		.byte	0x50
 9838 0105 16010000 		.4byte	.LVL62
 9839 0109 2E010000 		.4byte	.LVL67
 9840 010d 0400     		.2byte	0x4
 9841 010f F3       		.byte	0xf3
 9842 0110 01       		.uleb128 0x1
 9843 0111 50       		.byte	0x50
 9844 0112 9F       		.byte	0x9f
 9845 0113 2E010000 		.4byte	.LVL67
 9846 0117 30010000 		.4byte	.LVL68
 9847 011b 0100     		.2byte	0x1
 9848 011d 50       		.byte	0x50
 9849 011e 30010000 		.4byte	.LVL68
 9850 0122 48010000 		.4byte	.LVL73
 9851 0126 0400     		.2byte	0x4
 9852 0128 F3       		.byte	0xf3
 9853 0129 01       		.uleb128 0x1
ARM GAS  C:\Users\PRAJWA~1\AppData\Local\Temp\ccedcYia.s 			page 191


 9854 012a 50       		.byte	0x50
 9855 012b 9F       		.byte	0x9f
 9856 012c 48010000 		.4byte	.LVL73
 9857 0130 4A010000 		.4byte	.LVL74
 9858 0134 0100     		.2byte	0x1
 9859 0136 50       		.byte	0x50
 9860 0137 4A010000 		.4byte	.LVL74
 9861 013b 62010000 		.4byte	.LVL79
 9862 013f 0400     		.2byte	0x4
 9863 0141 F3       		.byte	0xf3
 9864 0142 01       		.uleb128 0x1
 9865 0143 50       		.byte	0x50
 9866 0144 9F       		.byte	0x9f
 9867 0145 62010000 		.4byte	.LVL79
 9868 0149 64010000 		.4byte	.LVL80
 9869 014d 0100     		.2byte	0x1
 9870 014f 50       		.byte	0x50
 9871 0150 64010000 		.4byte	.LVL80
 9872 0154 7C010000 		.4byte	.LVL85
 9873 0158 0400     		.2byte	0x4
 9874 015a F3       		.byte	0xf3
 9875 015b 01       		.uleb128 0x1
 9876 015c 50       		.byte	0x50
 9877 015d 9F       		.byte	0x9f
 9878 015e 7C010000 		.4byte	.LVL85
 9879 0162 7E010000 		.4byte	.LVL86
 9880 0166 0100     		.2byte	0x1
 9881 0168 50       		.byte	0x50
 9882 0169 7E010000 		.4byte	.LVL86
 9883 016d 96010000 		.4byte	.LVL91
 9884 0171 0400     		.2byte	0x4
 9885 0173 F3       		.byte	0xf3
 9886 0174 01       		.uleb128 0x1
 9887 0175 50       		.byte	0x50
 9888 0176 9F       		.byte	0x9f
 9889 0177 96010000 		.4byte	.LVL91
 9890 017b 98010000 		.4byte	.LVL92
 9891 017f 0100     		.2byte	0x1
 9892 0181 50       		.byte	0x50
 9893 0182 98010000 		.4byte	.LVL92
 9894 0186 B4010000 		.4byte	.LFE35
 9895 018a 0400     		.2byte	0x4
 9896 018c F3       		.byte	0xf3
 9897 018d 01       		.uleb128 0x1
 9898 018e 50       		.byte	0x50
 9899 018f 9F       		.byte	0x9f
 9900 0190 00000000 		.4byte	0
 9901 0194 00000000 		.4byte	0
 9902              	.LLST1:
 9903 0198 00000000 		.4byte	.LVL0
 9904 019c 0A000000 		.4byte	.LVL1
 9905 01a0 0100     		.2byte	0x1
 9906 01a2 51       		.byte	0x51
 9907 01a3 0A000000 		.4byte	.LVL1
 9908 01a7 B4010000 		.4byte	.LFE35
 9909 01ab 0400     		.2byte	0x4
 9910 01ad F3       		.byte	0xf3
ARM GAS  C:\Users\PRAJWA~1\AppData\Local\Temp\ccedcYia.s 			page 192


 9911 01ae 01       		.uleb128 0x1
 9912 01af 51       		.byte	0x51
 9913 01b0 9F       		.byte	0x9f
 9914 01b1 00000000 		.4byte	0
 9915 01b5 00000000 		.4byte	0
 9916              	.LLST2:
 9917 01b9 00000000 		.4byte	.LVL97
 9918 01bd 05000000 		.4byte	.LVL98-1
 9919 01c1 0100     		.2byte	0x1
 9920 01c3 50       		.byte	0x50
 9921 01c4 05000000 		.4byte	.LVL98-1
 9922 01c8 08000000 		.4byte	.LFE36
 9923 01cc 0400     		.2byte	0x4
 9924 01ce F3       		.byte	0xf3
 9925 01cf 01       		.uleb128 0x1
 9926 01d0 50       		.byte	0x50
 9927 01d1 9F       		.byte	0x9f
 9928 01d2 00000000 		.4byte	0
 9929 01d6 00000000 		.4byte	0
 9930              	.LLST3:
 9931 01da 00000000 		.4byte	.LVL99
 9932 01de 08000000 		.4byte	.LVL101
 9933 01e2 0100     		.2byte	0x1
 9934 01e4 50       		.byte	0x50
 9935 01e5 08000000 		.4byte	.LVL101
 9936 01e9 2C000000 		.4byte	.LFE37
 9937 01ed 0400     		.2byte	0x4
 9938 01ef F3       		.byte	0xf3
 9939 01f0 01       		.uleb128 0x1
 9940 01f1 50       		.byte	0x50
 9941 01f2 9F       		.byte	0x9f
 9942 01f3 00000000 		.4byte	0
 9943 01f7 00000000 		.4byte	0
 9944              	.LLST4:
 9945 01fb 04000000 		.4byte	.LVL100
 9946 01ff 08000000 		.4byte	.LVL101
 9947 0203 0400     		.2byte	0x4
 9948 0205 0A       		.byte	0xa
 9949 0206 1027     		.2byte	0x2710
 9950 0208 9F       		.byte	0x9f
 9951 0209 08000000 		.4byte	.LVL101
 9952 020d 0A000000 		.4byte	.LVL102
 9953 0211 0100     		.2byte	0x1
 9954 0213 54       		.byte	0x54
 9955 0214 0C000000 		.4byte	.LVL103
 9956 0218 26000000 		.4byte	.LVL108
 9957 021c 0100     		.2byte	0x1
 9958 021e 54       		.byte	0x54
 9959 021f 00000000 		.4byte	0
 9960 0223 00000000 		.4byte	0
 9961              	.LLST5:
 9962 0227 00000000 		.4byte	.LVL109
 9963 022b 05000000 		.4byte	.LVL110-1
 9964 022f 0100     		.2byte	0x1
 9965 0231 50       		.byte	0x50
 9966 0232 05000000 		.4byte	.LVL110-1
 9967 0236 0E000000 		.4byte	.LFE38
ARM GAS  C:\Users\PRAJWA~1\AppData\Local\Temp\ccedcYia.s 			page 193


 9968 023a 0400     		.2byte	0x4
 9969 023c F3       		.byte	0xf3
 9970 023d 01       		.uleb128 0x1
 9971 023e 50       		.byte	0x50
 9972 023f 9F       		.byte	0x9f
 9973 0240 00000000 		.4byte	0
 9974 0244 00000000 		.4byte	0
 9975              	.LLST6:
 9976 0248 00000000 		.4byte	.LVL112
 9977 024c 18000000 		.4byte	.LVL115
 9978 0250 0100     		.2byte	0x1
 9979 0252 50       		.byte	0x50
 9980 0253 18000000 		.4byte	.LVL115
 9981 0257 B4000000 		.4byte	.LFE39
 9982 025b 0400     		.2byte	0x4
 9983 025d F3       		.byte	0xf3
 9984 025e 01       		.uleb128 0x1
 9985 025f 50       		.byte	0x50
 9986 0260 9F       		.byte	0x9f
 9987 0261 00000000 		.4byte	0
 9988 0265 00000000 		.4byte	0
 9989              	.LLST7:
 9990 0269 00000000 		.4byte	.LVL112
 9991 026d 1B000000 		.4byte	.LVL116-1
 9992 0271 0100     		.2byte	0x1
 9993 0273 51       		.byte	0x51
 9994 0274 1B000000 		.4byte	.LVL116-1
 9995 0278 32000000 		.4byte	.LVL119
 9996 027c 0100     		.2byte	0x1
 9997 027e 56       		.byte	0x56
 9998 027f 32000000 		.4byte	.LVL119
 9999 0283 B4000000 		.4byte	.LFE39
 10000 0287 0400     		.2byte	0x4
 10001 0289 F3       		.byte	0xf3
 10002 028a 01       		.uleb128 0x1
 10003 028b 51       		.byte	0x51
 10004 028c 9F       		.byte	0x9f
 10005 028d 00000000 		.4byte	0
 10006 0291 00000000 		.4byte	0
 10007              	.LLST8:
 10008 0295 00000000 		.4byte	.LVL112
 10009 0299 1B000000 		.4byte	.LVL116-1
 10010 029d 0100     		.2byte	0x1
 10011 029f 52       		.byte	0x52
 10012 02a0 1B000000 		.4byte	.LVL116-1
 10013 02a4 A0000000 		.4byte	.LVL138
 10014 02a8 0100     		.2byte	0x1
 10015 02aa 5A       		.byte	0x5a
 10016 02ab A0000000 		.4byte	.LVL138
 10017 02af B4000000 		.4byte	.LFE39
 10018 02b3 0400     		.2byte	0x4
 10019 02b5 F3       		.byte	0xf3
 10020 02b6 01       		.uleb128 0x1
 10021 02b7 52       		.byte	0x52
 10022 02b8 9F       		.byte	0x9f
 10023 02b9 00000000 		.4byte	0
 10024 02bd 00000000 		.4byte	0
ARM GAS  C:\Users\PRAJWA~1\AppData\Local\Temp\ccedcYia.s 			page 194


 10025              	.LLST9:
 10026 02c1 00000000 		.4byte	.LVL112
 10027 02c5 12000000 		.4byte	.LVL113
 10028 02c9 0100     		.2byte	0x1
 10029 02cb 53       		.byte	0x53
 10030 02cc 12000000 		.4byte	.LVL113
 10031 02d0 A0000000 		.4byte	.LVL136
 10032 02d4 0100     		.2byte	0x1
 10033 02d6 58       		.byte	0x58
 10034 02d7 A0000000 		.4byte	.LVL136
 10035 02db B4000000 		.4byte	.LFE39
 10036 02df 0400     		.2byte	0x4
 10037 02e1 F3       		.byte	0xf3
 10038 02e2 01       		.uleb128 0x1
 10039 02e3 53       		.byte	0x53
 10040 02e4 9F       		.byte	0x9f
 10041 02e5 00000000 		.4byte	0
 10042 02e9 00000000 		.4byte	0
 10043              	.LLST10:
 10044 02ed 00000000 		.4byte	.LVL112
 10045 02f1 12000000 		.4byte	.LVL113
 10046 02f5 0200     		.2byte	0x2
 10047 02f7 91       		.byte	0x91
 10048 02f8 00       		.sleb128 0
 10049 02f9 12000000 		.4byte	.LVL113
 10050 02fd 14000000 		.4byte	.LVL114
 10051 0301 0200     		.2byte	0x2
 10052 0303 73       		.byte	0x73
 10053 0304 00       		.sleb128 0
 10054 0305 14000000 		.4byte	.LVL114
 10055 0309 1B000000 		.4byte	.LVL116-1
 10056 030d 0200     		.2byte	0x2
 10057 030f 73       		.byte	0x73
 10058 0310 78       		.sleb128 -8
 10059 0311 1B000000 		.4byte	.LVL116-1
 10060 0315 B4000000 		.4byte	.LFE39
 10061 0319 0200     		.2byte	0x2
 10062 031b 91       		.byte	0x91
 10063 031c 00       		.sleb128 0
 10064 031d 00000000 		.4byte	0
 10065 0321 00000000 		.4byte	0
 10066              	.LLST11:
 10067 0325 00000000 		.4byte	.LVL112
 10068 0329 12000000 		.4byte	.LVL113
 10069 032d 0200     		.2byte	0x2
 10070 032f 91       		.byte	0x91
 10071 0330 08       		.sleb128 8
 10072 0331 12000000 		.4byte	.LVL113
 10073 0335 14000000 		.4byte	.LVL114
 10074 0339 0200     		.2byte	0x2
 10075 033b 73       		.byte	0x73
 10076 033c 08       		.sleb128 8
 10077 033d 14000000 		.4byte	.LVL114
 10078 0341 1B000000 		.4byte	.LVL116-1
 10079 0345 0200     		.2byte	0x2
 10080 0347 73       		.byte	0x73
 10081 0348 00       		.sleb128 0
ARM GAS  C:\Users\PRAJWA~1\AppData\Local\Temp\ccedcYia.s 			page 195


 10082 0349 1B000000 		.4byte	.LVL116-1
 10083 034d B4000000 		.4byte	.LFE39
 10084 0351 0200     		.2byte	0x2
 10085 0353 91       		.byte	0x91
 10086 0354 08       		.sleb128 8
 10087 0355 00000000 		.4byte	0
 10088 0359 00000000 		.4byte	0
 10089              	.LLST12:
 10090 035d 1C000000 		.4byte	.LVL116
 10091 0361 32000000 		.4byte	.LVL119
 10092 0365 0200     		.2byte	0x2
 10093 0367 30       		.byte	0x30
 10094 0368 9F       		.byte	0x9f
 10095 0369 32000000 		.4byte	.LVL119
 10096 036d 6E000000 		.4byte	.LVL124
 10097 0371 0100     		.2byte	0x1
 10098 0373 56       		.byte	0x56
 10099 0374 6E000000 		.4byte	.LVL124
 10100 0378 70000000 		.4byte	.LVL125
 10101 037c 0300     		.2byte	0x3
 10102 037e 76       		.byte	0x76
 10103 037f 06       		.sleb128 6
 10104 0380 9F       		.byte	0x9f
 10105 0381 70000000 		.4byte	.LVL125
 10106 0385 90000000 		.4byte	.LVL129
 10107 0389 0100     		.2byte	0x1
 10108 038b 56       		.byte	0x56
 10109 038c 94000000 		.4byte	.LVL130
 10110 0390 96000000 		.4byte	.LVL131
 10111 0394 0100     		.2byte	0x1
 10112 0396 56       		.byte	0x56
 10113 0397 00000000 		.4byte	0
 10114 039b 00000000 		.4byte	0
 10115              	.LLST13:
 10116 039f 1C000000 		.4byte	.LVL116
 10117 03a3 6E000000 		.4byte	.LVL124
 10118 03a7 0200     		.2byte	0x2
 10119 03a9 30       		.byte	0x30
 10120 03aa 9F       		.byte	0x9f
 10121 03ab 6E000000 		.4byte	.LVL124
 10122 03af 70000000 		.4byte	.LVL125
 10123 03b3 0100     		.2byte	0x1
 10124 03b5 56       		.byte	0x56
 10125 03b6 70000000 		.4byte	.LVL125
 10126 03ba 98000000 		.4byte	.LVL132
 10127 03be 0200     		.2byte	0x2
 10128 03c0 30       		.byte	0x30
 10129 03c1 9F       		.byte	0x9f
 10130 03c2 98000000 		.4byte	.LVL132
 10131 03c6 A0000000 		.4byte	.LVL135
 10132 03ca 0100     		.2byte	0x1
 10133 03cc 56       		.byte	0x56
 10134 03cd A0000000 		.4byte	.LVL135
 10135 03d1 B4000000 		.4byte	.LFE39
 10136 03d5 0100     		.2byte	0x1
 10137 03d7 50       		.byte	0x50
 10138 03d8 00000000 		.4byte	0
ARM GAS  C:\Users\PRAJWA~1\AppData\Local\Temp\ccedcYia.s 			page 196


 10139 03dc 00000000 		.4byte	0
 10140              	.LLST14:
 10141 03e0 1C000000 		.4byte	.LVL116
 10142 03e4 32000000 		.4byte	.LVL119
 10143 03e8 0100     		.2byte	0x1
 10144 03ea 5A       		.byte	0x5a
 10145 03eb 32000000 		.4byte	.LVL119
 10146 03ef A0000000 		.4byte	.LVL137
 10147 03f3 0100     		.2byte	0x1
 10148 03f5 59       		.byte	0x59
 10149 03f6 00000000 		.4byte	0
 10150 03fa 00000000 		.4byte	0
 10151              	.LLST15:
 10152 03fe 1C000000 		.4byte	.LVL116
 10153 0402 A0000000 		.4byte	.LVL134
 10154 0406 0600     		.2byte	0x6
 10155 0408 54       		.byte	0x54
 10156 0409 93       		.byte	0x93
 10157 040a 04       		.uleb128 0x4
 10158 040b 55       		.byte	0x55
 10159 040c 93       		.byte	0x93
 10160 040d 04       		.uleb128 0x4
 10161 040e 00000000 		.4byte	0
 10162 0412 00000000 		.4byte	0
 10163              	.LLST16:
 10164 0416 00000000 		.4byte	.LVL139
 10165 041a 12000000 		.4byte	.LVL141
 10166 041e 0100     		.2byte	0x1
 10167 0420 50       		.byte	0x50
 10168 0421 12000000 		.4byte	.LVL141
 10169 0425 5E000000 		.4byte	.LVL153
 10170 0429 0100     		.2byte	0x1
 10171 042b 56       		.byte	0x56
 10172 042c 5E000000 		.4byte	.LVL153
 10173 0430 68000000 		.4byte	.LFE40
 10174 0434 0400     		.2byte	0x4
 10175 0436 F3       		.byte	0xf3
 10176 0437 01       		.uleb128 0x1
 10177 0438 50       		.byte	0x50
 10178 0439 9F       		.byte	0x9f
 10179 043a 00000000 		.4byte	0
 10180 043e 00000000 		.4byte	0
 10181              	.LLST17:
 10182 0442 00000000 		.4byte	.LVL139
 10183 0446 12000000 		.4byte	.LVL141
 10184 044a 0100     		.2byte	0x1
 10185 044c 51       		.byte	0x51
 10186 044d 12000000 		.4byte	.LVL141
 10187 0451 5E000000 		.4byte	.LVL152
 10188 0455 0100     		.2byte	0x1
 10189 0457 54       		.byte	0x54
 10190 0458 5E000000 		.4byte	.LVL152
 10191 045c 68000000 		.4byte	.LFE40
 10192 0460 0400     		.2byte	0x4
 10193 0462 F3       		.byte	0xf3
 10194 0463 01       		.uleb128 0x1
 10195 0464 51       		.byte	0x51
ARM GAS  C:\Users\PRAJWA~1\AppData\Local\Temp\ccedcYia.s 			page 197


 10196 0465 9F       		.byte	0x9f
 10197 0466 00000000 		.4byte	0
 10198 046a 00000000 		.4byte	0
 10199              	.LLST18:
 10200 046e 08000000 		.4byte	.LVL140
 10201 0472 3A000000 		.4byte	.LVL144
 10202 0476 0200     		.2byte	0x2
 10203 0478 30       		.byte	0x30
 10204 0479 9F       		.byte	0x9f
 10205 047a 00000000 		.4byte	0
 10206 047e 00000000 		.4byte	0
 10207              	.LLST19:
 10208 0482 08000000 		.4byte	.LVL140
 10209 0486 4C000000 		.4byte	.LVL148
 10210 048a 0200     		.2byte	0x2
 10211 048c 30       		.byte	0x30
 10212 048d 9F       		.byte	0x9f
 10213 048e 4C000000 		.4byte	.LVL148
 10214 0492 50000000 		.4byte	.LVL149
 10215 0496 0100     		.2byte	0x1
 10216 0498 52       		.byte	0x52
 10217 0499 52000000 		.4byte	.LVL150
 10218 049d 68000000 		.4byte	.LFE40
 10219 04a1 0100     		.2byte	0x1
 10220 04a3 52       		.byte	0x52
 10221 04a4 00000000 		.4byte	0
 10222 04a8 00000000 		.4byte	0
 10223              	.LLST20:
 10224 04ac 22000000 		.4byte	.LVL142
 10225 04b0 32000000 		.4byte	.LVL143
 10226 04b4 0400     		.2byte	0x4
 10227 04b6 91       		.byte	0x91
 10228 04b7 907F     		.sleb128 -112
 10229 04b9 9F       		.byte	0x9f
 10230 04ba 32000000 		.4byte	.LVL143
 10231 04be 39000000 		.4byte	.LVL144-1
 10232 04c2 0100     		.2byte	0x1
 10233 04c4 52       		.byte	0x52
 10234 04c5 39000000 		.4byte	.LVL144-1
 10235 04c9 3C000000 		.4byte	.LVL145
 10236 04cd 0400     		.2byte	0x4
 10237 04cf 91       		.byte	0x91
 10238 04d0 907F     		.sleb128 -112
 10239 04d2 9F       		.byte	0x9f
 10240 04d3 3C000000 		.4byte	.LVL145
 10241 04d7 68000000 		.4byte	.LFE40
 10242 04db 0100     		.2byte	0x1
 10243 04dd 53       		.byte	0x53
 10244 04de 00000000 		.4byte	0
 10245 04e2 00000000 		.4byte	0
 10246              	.LLST21:
 10247 04e6 00000000 		.4byte	.LVL154
 10248 04ea 12000000 		.4byte	.LVL155
 10249 04ee 0100     		.2byte	0x1
 10250 04f0 50       		.byte	0x50
 10251 04f1 12000000 		.4byte	.LVL155
 10252 04f5 68000000 		.4byte	.LVL167
ARM GAS  C:\Users\PRAJWA~1\AppData\Local\Temp\ccedcYia.s 			page 198


 10253 04f9 0100     		.2byte	0x1
 10254 04fb 55       		.byte	0x55
 10255 04fc 68000000 		.4byte	.LVL167
 10256 0500 74000000 		.4byte	.LFE41
 10257 0504 0400     		.2byte	0x4
 10258 0506 F3       		.byte	0xf3
 10259 0507 01       		.uleb128 0x1
 10260 0508 50       		.byte	0x50
 10261 0509 9F       		.byte	0x9f
 10262 050a 00000000 		.4byte	0
 10263 050e 00000000 		.4byte	0
 10264              	.LLST22:
 10265 0512 46000000 		.4byte	.LVL158
 10266 0516 4C000000 		.4byte	.LVL159
 10267 051a 0100     		.2byte	0x1
 10268 051c 50       		.byte	0x50
 10269 051d 54000000 		.4byte	.LVL162
 10270 0521 56000000 		.4byte	.LVL163
 10271 0525 0100     		.2byte	0x1
 10272 0527 50       		.byte	0x50
 10273 0528 00000000 		.4byte	0
 10274 052c 00000000 		.4byte	0
 10275              	.LLST23:
 10276 0530 46000000 		.4byte	.LVL158
 10277 0534 50000000 		.4byte	.LVL160
 10278 0538 0300     		.2byte	0x3
 10279 053a 91       		.byte	0x91
 10280 053b 70       		.sleb128 -16
 10281 053c 9F       		.byte	0x9f
 10282 053d 50000000 		.4byte	.LVL160
 10283 0541 54000000 		.4byte	.LVL162
 10284 0545 0100     		.2byte	0x1
 10285 0547 50       		.byte	0x50
 10286 0548 54000000 		.4byte	.LVL162
 10287 054c 56000000 		.4byte	.LVL163
 10288 0550 0300     		.2byte	0x3
 10289 0552 91       		.byte	0x91
 10290 0553 70       		.sleb128 -16
 10291 0554 9F       		.byte	0x9f
 10292 0555 56000000 		.4byte	.LVL163
 10293 0559 61000000 		.4byte	.LVL165-1
 10294 055d 0100     		.2byte	0x1
 10295 055f 50       		.byte	0x50
 10296 0560 00000000 		.4byte	0
 10297 0564 00000000 		.4byte	0
 10298              	.LLST24:
 10299 0568 00000000 		.4byte	.LVL168
 10300 056c 12000000 		.4byte	.LVL169
 10301 0570 0100     		.2byte	0x1
 10302 0572 50       		.byte	0x50
 10303 0573 12000000 		.4byte	.LVL169
 10304 0577 5E000000 		.4byte	.LVL177
 10305 057b 0100     		.2byte	0x1
 10306 057d 55       		.byte	0x55
 10307 057e 5E000000 		.4byte	.LVL177
 10308 0582 6C000000 		.4byte	.LFE42
 10309 0586 0400     		.2byte	0x4
ARM GAS  C:\Users\PRAJWA~1\AppData\Local\Temp\ccedcYia.s 			page 199


 10310 0588 F3       		.byte	0xf3
 10311 0589 01       		.uleb128 0x1
 10312 058a 50       		.byte	0x50
 10313 058b 9F       		.byte	0x9f
 10314 058c 00000000 		.4byte	0
 10315 0590 00000000 		.4byte	0
 10316              	.LLST25:
 10317 0594 00000000 		.4byte	.LVL168
 10318 0598 12000000 		.4byte	.LVL169
 10319 059c 0100     		.2byte	0x1
 10320 059e 51       		.byte	0x51
 10321 059f 12000000 		.4byte	.LVL169
 10322 05a3 5E000000 		.4byte	.LVL176
 10323 05a7 0100     		.2byte	0x1
 10324 05a9 54       		.byte	0x54
 10325 05aa 5E000000 		.4byte	.LVL176
 10326 05ae 6C000000 		.4byte	.LFE42
 10327 05b2 0400     		.2byte	0x4
 10328 05b4 F3       		.byte	0xf3
 10329 05b5 01       		.uleb128 0x1
 10330 05b6 51       		.byte	0x51
 10331 05b7 9F       		.byte	0x9f
 10332 05b8 00000000 		.4byte	0
 10333 05bc 00000000 		.4byte	0
 10334              	.LLST26:
 10335 05c0 4A000000 		.4byte	.LVL172
 10336 05c4 50000000 		.4byte	.LVL173
 10337 05c8 0100     		.2byte	0x1
 10338 05ca 50       		.byte	0x50
 10339 05cb 58000000 		.4byte	.LVL174
 10340 05cf 5A000000 		.4byte	.LVL175
 10341 05d3 0100     		.2byte	0x1
 10342 05d5 50       		.byte	0x50
 10343 05d6 00000000 		.4byte	0
 10344 05da 00000000 		.4byte	0
 10345              	.LLST27:
 10346 05de 00000000 		.4byte	.LVL178
 10347 05e2 12000000 		.4byte	.LVL179
 10348 05e6 0100     		.2byte	0x1
 10349 05e8 50       		.byte	0x50
 10350 05e9 12000000 		.4byte	.LVL179
 10351 05ed 4A000000 		.4byte	.LVL186
 10352 05f1 0100     		.2byte	0x1
 10353 05f3 55       		.byte	0x55
 10354 05f4 4A000000 		.4byte	.LVL186
 10355 05f8 58000000 		.4byte	.LFE43
 10356 05fc 0400     		.2byte	0x4
 10357 05fe F3       		.byte	0xf3
 10358 05ff 01       		.uleb128 0x1
 10359 0600 50       		.byte	0x50
 10360 0601 9F       		.byte	0x9f
 10361 0602 00000000 		.4byte	0
 10362 0606 00000000 		.4byte	0
 10363              	.LLST28:
 10364 060a 36000000 		.4byte	.LVL181
 10365 060e 38000000 		.4byte	.LVL182
 10366 0612 0300     		.2byte	0x3
ARM GAS  C:\Users\PRAJWA~1\AppData\Local\Temp\ccedcYia.s 			page 200


 10367 0614 91       		.byte	0x91
 10368 0615 48       		.sleb128 -56
 10369 0616 9F       		.byte	0x9f
 10370 0617 38000000 		.4byte	.LVL182
 10371 061b 47000000 		.4byte	.LVL185-1
 10372 061f 0100     		.2byte	0x1
 10373 0621 50       		.byte	0x50
 10374 0622 00000000 		.4byte	0
 10375 0626 00000000 		.4byte	0
 10376              	.LLST29:
 10377 062a 00000000 		.4byte	.LVL187
 10378 062e 09000000 		.4byte	.LVL188-1
 10379 0632 0100     		.2byte	0x1
 10380 0634 50       		.byte	0x50
 10381 0635 09000000 		.4byte	.LVL188-1
 10382 0639 68000000 		.4byte	.LVL201
 10383 063d 0100     		.2byte	0x1
 10384 063f 55       		.byte	0x55
 10385 0640 68000000 		.4byte	.LVL201
 10386 0644 74000000 		.4byte	.LFE44
 10387 0648 0400     		.2byte	0x4
 10388 064a F3       		.byte	0xf3
 10389 064b 01       		.uleb128 0x1
 10390 064c 50       		.byte	0x50
 10391 064d 9F       		.byte	0x9f
 10392 064e 00000000 		.4byte	0
 10393 0652 00000000 		.4byte	0
 10394              	.LLST30:
 10395 0656 0A000000 		.4byte	.LVL188
 10396 065a 1A000000 		.4byte	.LVL189
 10397 065e 0100     		.2byte	0x1
 10398 0660 50       		.byte	0x50
 10399 0661 64000000 		.4byte	.LVL199
 10400 0665 66000000 		.4byte	.LVL200
 10401 0669 0100     		.2byte	0x1
 10402 066b 50       		.byte	0x50
 10403 066c 00000000 		.4byte	0
 10404 0670 00000000 		.4byte	0
 10405              	.LLST31:
 10406 0674 46000000 		.4byte	.LVL191
 10407 0678 50000000 		.4byte	.LVL193
 10408 067c 0300     		.2byte	0x3
 10409 067e 91       		.byte	0x91
 10410 067f 54       		.sleb128 -44
 10411 0680 9F       		.byte	0x9f
 10412 0681 50000000 		.4byte	.LVL193
 10413 0685 54000000 		.4byte	.LVL195
 10414 0689 0100     		.2byte	0x1
 10415 068b 50       		.byte	0x50
 10416 068c 54000000 		.4byte	.LVL195
 10417 0690 56000000 		.4byte	.LVL196
 10418 0694 0300     		.2byte	0x3
 10419 0696 91       		.byte	0x91
 10420 0697 54       		.sleb128 -44
 10421 0698 9F       		.byte	0x9f
 10422 0699 56000000 		.4byte	.LVL196
 10423 069d 61000000 		.4byte	.LVL198-1
ARM GAS  C:\Users\PRAJWA~1\AppData\Local\Temp\ccedcYia.s 			page 201


 10424 06a1 0100     		.2byte	0x1
 10425 06a3 50       		.byte	0x50
 10426 06a4 00000000 		.4byte	0
 10427 06a8 00000000 		.4byte	0
 10428              	.LLST32:
 10429 06ac 46000000 		.4byte	.LVL191
 10430 06b0 4C000000 		.4byte	.LVL192
 10431 06b4 0100     		.2byte	0x1
 10432 06b6 50       		.byte	0x50
 10433 06b7 54000000 		.4byte	.LVL195
 10434 06bb 56000000 		.4byte	.LVL196
 10435 06bf 0100     		.2byte	0x1
 10436 06c1 50       		.byte	0x50
 10437 06c2 00000000 		.4byte	0
 10438 06c6 00000000 		.4byte	0
 10439              	.LLST33:
 10440 06ca 00000000 		.4byte	.LVL202
 10441 06ce 09000000 		.4byte	.LVL203-1
 10442 06d2 0100     		.2byte	0x1
 10443 06d4 50       		.byte	0x50
 10444 06d5 09000000 		.4byte	.LVL203-1
 10445 06d9 68000000 		.4byte	.LVL216
 10446 06dd 0100     		.2byte	0x1
 10447 06df 55       		.byte	0x55
 10448 06e0 68000000 		.4byte	.LVL216
 10449 06e4 74000000 		.4byte	.LFE45
 10450 06e8 0400     		.2byte	0x4
 10451 06ea F3       		.byte	0xf3
 10452 06eb 01       		.uleb128 0x1
 10453 06ec 50       		.byte	0x50
 10454 06ed 9F       		.byte	0x9f
 10455 06ee 00000000 		.4byte	0
 10456 06f2 00000000 		.4byte	0
 10457              	.LLST34:
 10458 06f6 0A000000 		.4byte	.LVL203
 10459 06fa 1A000000 		.4byte	.LVL204
 10460 06fe 0100     		.2byte	0x1
 10461 0700 50       		.byte	0x50
 10462 0701 64000000 		.4byte	.LVL214
 10463 0705 66000000 		.4byte	.LVL215
 10464 0709 0100     		.2byte	0x1
 10465 070b 50       		.byte	0x50
 10466 070c 00000000 		.4byte	0
 10467 0710 00000000 		.4byte	0
 10468              	.LLST35:
 10469 0714 46000000 		.4byte	.LVL206
 10470 0718 50000000 		.4byte	.LVL208
 10471 071c 0300     		.2byte	0x3
 10472 071e 91       		.byte	0x91
 10473 071f 54       		.sleb128 -44
 10474 0720 9F       		.byte	0x9f
 10475 0721 50000000 		.4byte	.LVL208
 10476 0725 54000000 		.4byte	.LVL210
 10477 0729 0100     		.2byte	0x1
 10478 072b 50       		.byte	0x50
 10479 072c 54000000 		.4byte	.LVL210
 10480 0730 56000000 		.4byte	.LVL211
ARM GAS  C:\Users\PRAJWA~1\AppData\Local\Temp\ccedcYia.s 			page 202


 10481 0734 0300     		.2byte	0x3
 10482 0736 91       		.byte	0x91
 10483 0737 54       		.sleb128 -44
 10484 0738 9F       		.byte	0x9f
 10485 0739 56000000 		.4byte	.LVL211
 10486 073d 61000000 		.4byte	.LVL213-1
 10487 0741 0100     		.2byte	0x1
 10488 0743 50       		.byte	0x50
 10489 0744 00000000 		.4byte	0
 10490 0748 00000000 		.4byte	0
 10491              	.LLST36:
 10492 074c 46000000 		.4byte	.LVL206
 10493 0750 4C000000 		.4byte	.LVL207
 10494 0754 0100     		.2byte	0x1
 10495 0756 50       		.byte	0x50
 10496 0757 54000000 		.4byte	.LVL210
 10497 075b 56000000 		.4byte	.LVL211
 10498 075f 0100     		.2byte	0x1
 10499 0761 50       		.byte	0x50
 10500 0762 00000000 		.4byte	0
 10501 0766 00000000 		.4byte	0
 10502              	.LLST37:
 10503 076a 00000000 		.4byte	.LVL217
 10504 076e 09000000 		.4byte	.LVL218-1
 10505 0772 0100     		.2byte	0x1
 10506 0774 50       		.byte	0x50
 10507 0775 09000000 		.4byte	.LVL218-1
 10508 0779 68000000 		.4byte	.LVL231
 10509 077d 0100     		.2byte	0x1
 10510 077f 55       		.byte	0x55
 10511 0780 68000000 		.4byte	.LVL231
 10512 0784 74000000 		.4byte	.LFE46
 10513 0788 0400     		.2byte	0x4
 10514 078a F3       		.byte	0xf3
 10515 078b 01       		.uleb128 0x1
 10516 078c 50       		.byte	0x50
 10517 078d 9F       		.byte	0x9f
 10518 078e 00000000 		.4byte	0
 10519 0792 00000000 		.4byte	0
 10520              	.LLST38:
 10521 0796 0A000000 		.4byte	.LVL218
 10522 079a 1A000000 		.4byte	.LVL219
 10523 079e 0100     		.2byte	0x1
 10524 07a0 50       		.byte	0x50
 10525 07a1 64000000 		.4byte	.LVL229
 10526 07a5 66000000 		.4byte	.LVL230
 10527 07a9 0100     		.2byte	0x1
 10528 07ab 50       		.byte	0x50
 10529 07ac 00000000 		.4byte	0
 10530 07b0 00000000 		.4byte	0
 10531              	.LLST39:
 10532 07b4 46000000 		.4byte	.LVL221
 10533 07b8 50000000 		.4byte	.LVL223
 10534 07bc 0300     		.2byte	0x3
 10535 07be 91       		.byte	0x91
 10536 07bf 54       		.sleb128 -44
 10537 07c0 9F       		.byte	0x9f
ARM GAS  C:\Users\PRAJWA~1\AppData\Local\Temp\ccedcYia.s 			page 203


 10538 07c1 50000000 		.4byte	.LVL223
 10539 07c5 54000000 		.4byte	.LVL225
 10540 07c9 0100     		.2byte	0x1
 10541 07cb 50       		.byte	0x50
 10542 07cc 54000000 		.4byte	.LVL225
 10543 07d0 56000000 		.4byte	.LVL226
 10544 07d4 0300     		.2byte	0x3
 10545 07d6 91       		.byte	0x91
 10546 07d7 54       		.sleb128 -44
 10547 07d8 9F       		.byte	0x9f
 10548 07d9 56000000 		.4byte	.LVL226
 10549 07dd 61000000 		.4byte	.LVL228-1
 10550 07e1 0100     		.2byte	0x1
 10551 07e3 50       		.byte	0x50
 10552 07e4 00000000 		.4byte	0
 10553 07e8 00000000 		.4byte	0
 10554              	.LLST40:
 10555 07ec 46000000 		.4byte	.LVL221
 10556 07f0 4C000000 		.4byte	.LVL222
 10557 07f4 0100     		.2byte	0x1
 10558 07f6 50       		.byte	0x50
 10559 07f7 54000000 		.4byte	.LVL225
 10560 07fb 56000000 		.4byte	.LVL226
 10561 07ff 0100     		.2byte	0x1
 10562 0801 50       		.byte	0x50
 10563 0802 00000000 		.4byte	0
 10564 0806 00000000 		.4byte	0
 10565              	.LLST41:
 10566 080a 00000000 		.4byte	.LVL232
 10567 080e 0C000000 		.4byte	.LVL234
 10568 0812 0100     		.2byte	0x1
 10569 0814 50       		.byte	0x50
 10570 0815 0C000000 		.4byte	.LVL234
 10571 0819 36000000 		.4byte	.LVL240
 10572 081d 0100     		.2byte	0x1
 10573 081f 54       		.byte	0x54
 10574 0820 36000000 		.4byte	.LVL240
 10575 0824 40000000 		.4byte	.LFE47
 10576 0828 0400     		.2byte	0x4
 10577 082a F3       		.byte	0xf3
 10578 082b 01       		.uleb128 0x1
 10579 082c 50       		.byte	0x50
 10580 082d 9F       		.byte	0x9f
 10581 082e 00000000 		.4byte	0
 10582 0832 00000000 		.4byte	0
 10583              	.LLST42:
 10584 0836 00000000 		.4byte	.LVL232
 10585 083a 0A000000 		.4byte	.LVL233
 10586 083e 0100     		.2byte	0x1
 10587 0840 51       		.byte	0x51
 10588 0841 0A000000 		.4byte	.LVL233
 10589 0845 0F000000 		.4byte	.LVL235-1
 10590 0849 0100     		.2byte	0x1
 10591 084b 52       		.byte	0x52
 10592 084c 0F000000 		.4byte	.LVL235-1
 10593 0850 40000000 		.4byte	.LFE47
 10594 0854 0400     		.2byte	0x4
ARM GAS  C:\Users\PRAJWA~1\AppData\Local\Temp\ccedcYia.s 			page 204


 10595 0856 F3       		.byte	0xf3
 10596 0857 01       		.uleb128 0x1
 10597 0858 51       		.byte	0x51
 10598 0859 9F       		.byte	0x9f
 10599 085a 00000000 		.4byte	0
 10600 085e 00000000 		.4byte	0
 10601              	.LLST43:
 10602 0862 28000000 		.4byte	.LVL236
 10603 0866 2E000000 		.4byte	.LVL237
 10604 086a 0100     		.2byte	0x1
 10605 086c 50       		.byte	0x50
 10606 086d 30000000 		.4byte	.LVL238
 10607 0871 32000000 		.4byte	.LVL239
 10608 0875 0100     		.2byte	0x1
 10609 0877 50       		.byte	0x50
 10610 0878 00000000 		.4byte	0
 10611 087c 00000000 		.4byte	0
 10612              	.LLST44:
 10613 0880 00000000 		.4byte	.LVL241
 10614 0884 34000000 		.4byte	.LVL242
 10615 0888 0100     		.2byte	0x1
 10616 088a 50       		.byte	0x50
 10617 088b 34000000 		.4byte	.LVL242
 10618 088f 88000000 		.4byte	.LFE48
 10619 0893 0300     		.2byte	0x3
 10620 0895 91       		.byte	0x91
 10621 0896 BC7F     		.sleb128 -68
 10622 0898 00000000 		.4byte	0
 10623 089c 00000000 		.4byte	0
 10624              	.LLST45:
 10625 08a0 66000000 		.4byte	.LVL245
 10626 08a4 6C000000 		.4byte	.LVL246
 10627 08a8 0100     		.2byte	0x1
 10628 08aa 50       		.byte	0x50
 10629 08ab 6E000000 		.4byte	.LVL247
 10630 08af 70000000 		.4byte	.LVL248
 10631 08b3 0100     		.2byte	0x1
 10632 08b5 50       		.byte	0x50
 10633 08b6 00000000 		.4byte	0
 10634 08ba 00000000 		.4byte	0
 10635              	.LLST46:
 10636 08be 00000000 		.4byte	.LVL249
 10637 08c2 0E000000 		.4byte	.LVL251
 10638 08c6 0100     		.2byte	0x1
 10639 08c8 50       		.byte	0x50
 10640 08c9 0E000000 		.4byte	.LVL251
 10641 08cd 40000000 		.4byte	.LFE49
 10642 08d1 0400     		.2byte	0x4
 10643 08d3 F3       		.byte	0xf3
 10644 08d4 01       		.uleb128 0x1
 10645 08d5 50       		.byte	0x50
 10646 08d6 9F       		.byte	0x9f
 10647 08d7 00000000 		.4byte	0
 10648 08db 00000000 		.4byte	0
 10649              	.LLST47:
 10650 08df 00000000 		.4byte	.LVL249
 10651 08e3 0C000000 		.4byte	.LVL250
ARM GAS  C:\Users\PRAJWA~1\AppData\Local\Temp\ccedcYia.s 			page 205


 10652 08e7 0100     		.2byte	0x1
 10653 08e9 51       		.byte	0x51
 10654 08ea 0C000000 		.4byte	.LVL250
 10655 08ee 11000000 		.4byte	.LVL252-1
 10656 08f2 0100     		.2byte	0x1
 10657 08f4 52       		.byte	0x52
 10658 08f5 11000000 		.4byte	.LVL252-1
 10659 08f9 40000000 		.4byte	.LFE49
 10660 08fd 0400     		.2byte	0x4
 10661 08ff F3       		.byte	0xf3
 10662 0900 01       		.uleb128 0x1
 10663 0901 51       		.byte	0x51
 10664 0902 9F       		.byte	0x9f
 10665 0903 00000000 		.4byte	0
 10666 0907 00000000 		.4byte	0
 10667              	.LLST48:
 10668 090b 00000000 		.4byte	.LVL257
 10669 090f 14000000 		.4byte	.LVL259
 10670 0913 0100     		.2byte	0x1
 10671 0915 50       		.byte	0x50
 10672 0916 14000000 		.4byte	.LVL259
 10673 091a 6C000000 		.4byte	.LVL275
 10674 091e 0100     		.2byte	0x1
 10675 0920 55       		.byte	0x55
 10676 0921 6C000000 		.4byte	.LVL275
 10677 0925 78000000 		.4byte	.LFE50
 10678 0929 0400     		.2byte	0x4
 10679 092b F3       		.byte	0xf3
 10680 092c 01       		.uleb128 0x1
 10681 092d 50       		.byte	0x50
 10682 092e 9F       		.byte	0x9f
 10683 092f 00000000 		.4byte	0
 10684 0933 00000000 		.4byte	0
 10685              	.LLST49:
 10686 0937 00000000 		.4byte	.LVL257
 10687 093b 14000000 		.4byte	.LVL259
 10688 093f 0100     		.2byte	0x1
 10689 0941 51       		.byte	0x51
 10690 0942 14000000 		.4byte	.LVL259
 10691 0946 6C000000 		.4byte	.LVL274
 10692 094a 0100     		.2byte	0x1
 10693 094c 54       		.byte	0x54
 10694 094d 6C000000 		.4byte	.LVL274
 10695 0951 78000000 		.4byte	.LFE50
 10696 0955 0400     		.2byte	0x4
 10697 0957 F3       		.byte	0xf3
 10698 0958 01       		.uleb128 0x1
 10699 0959 51       		.byte	0x51
 10700 095a 9F       		.byte	0x9f
 10701 095b 00000000 		.4byte	0
 10702 095f 00000000 		.4byte	0
 10703              	.LLST50:
 10704 0963 3A000000 		.4byte	.LVL261
 10705 0967 40000000 		.4byte	.LVL262
 10706 096b 0400     		.2byte	0x4
 10707 096d 91       		.byte	0x91
 10708 096e AC7F     		.sleb128 -84
ARM GAS  C:\Users\PRAJWA~1\AppData\Local\Temp\ccedcYia.s 			page 206


 10709 0970 9F       		.byte	0x9f
 10710 0971 40000000 		.4byte	.LVL262
 10711 0975 44000000 		.4byte	.LVL264
 10712 0979 0100     		.2byte	0x1
 10713 097b 53       		.byte	0x53
 10714 097c 44000000 		.4byte	.LVL264
 10715 0980 46000000 		.4byte	.LVL265
 10716 0984 0400     		.2byte	0x4
 10717 0986 91       		.byte	0x91
 10718 0987 AC7F     		.sleb128 -84
 10719 0989 9F       		.byte	0x9f
 10720 098a 46000000 		.4byte	.LVL265
 10721 098e 5E000000 		.4byte	.LVL270
 10722 0992 0100     		.2byte	0x1
 10723 0994 53       		.byte	0x53
 10724 0995 00000000 		.4byte	0
 10725 0999 00000000 		.4byte	0
 10726              	.LLST51:
 10727 099d 3A000000 		.4byte	.LVL261
 10728 09a1 64000000 		.4byte	.LVL271
 10729 09a5 0100     		.2byte	0x1
 10730 09a7 50       		.byte	0x50
 10731 09a8 66000000 		.4byte	.LVL272
 10732 09ac 68000000 		.4byte	.LVL273
 10733 09b0 0100     		.2byte	0x1
 10734 09b2 50       		.byte	0x50
 10735 09b3 00000000 		.4byte	0
 10736 09b7 00000000 		.4byte	0
 10737              	.LLST52:
 10738 09bb 08000000 		.4byte	.LVL258
 10739 09bf 52000000 		.4byte	.LVL267
 10740 09c3 0200     		.2byte	0x2
 10741 09c5 30       		.byte	0x30
 10742 09c6 9F       		.byte	0x9f
 10743 09c7 52000000 		.4byte	.LVL267
 10744 09cb 5E000000 		.4byte	.LVL270
 10745 09cf 0100     		.2byte	0x1
 10746 09d1 51       		.byte	0x51
 10747 09d2 00000000 		.4byte	0
 10748 09d6 00000000 		.4byte	0
 10749              	.LLST53:
 10750 09da 00000000 		.4byte	.LVL276
 10751 09de 0A000000 		.4byte	.LVL277
 10752 09e2 0100     		.2byte	0x1
 10753 09e4 50       		.byte	0x50
 10754 09e5 0A000000 		.4byte	.LVL277
 10755 09e9 4C000000 		.4byte	.LVL285
 10756 09ed 0100     		.2byte	0x1
 10757 09ef 55       		.byte	0x55
 10758 09f0 4C000000 		.4byte	.LVL285
 10759 09f4 5C000000 		.4byte	.LFE51
 10760 09f8 0400     		.2byte	0x4
 10761 09fa F3       		.byte	0xf3
 10762 09fb 01       		.uleb128 0x1
 10763 09fc 50       		.byte	0x50
 10764 09fd 9F       		.byte	0x9f
 10765 09fe 00000000 		.4byte	0
ARM GAS  C:\Users\PRAJWA~1\AppData\Local\Temp\ccedcYia.s 			page 207


 10766 0a02 00000000 		.4byte	0
 10767              	.LLST54:
 10768 0a06 38000000 		.4byte	.LVL280
 10769 0a0a 3A000000 		.4byte	.LVL281
 10770 0a0e 0300     		.2byte	0x3
 10771 0a10 91       		.byte	0x91
 10772 0a11 54       		.sleb128 -44
 10773 0a12 9F       		.byte	0x9f
 10774 0a13 3A000000 		.4byte	.LVL281
 10775 0a17 49000000 		.4byte	.LVL284-1
 10776 0a1b 0100     		.2byte	0x1
 10777 0a1d 50       		.byte	0x50
 10778 0a1e 00000000 		.4byte	0
 10779 0a22 00000000 		.4byte	0
 10780              	.LLST55:
 10781 0a26 00000000 		.4byte	.LVL286
 10782 0a2a 14000000 		.4byte	.LVL287
 10783 0a2e 0100     		.2byte	0x1
 10784 0a30 50       		.byte	0x50
 10785 0a31 14000000 		.4byte	.LVL287
 10786 0a35 94000000 		.4byte	.LFE52
 10787 0a39 0300     		.2byte	0x3
 10788 0a3b 91       		.byte	0x91
 10789 0a3c A47F     		.sleb128 -92
 10790 0a3e 00000000 		.4byte	0
 10791 0a42 00000000 		.4byte	0
 10792              	.LLST56:
 10793 0a46 76000000 		.4byte	.LVL292
 10794 0a4a 7C000000 		.4byte	.LVL293
 10795 0a4e 0100     		.2byte	0x1
 10796 0a50 50       		.byte	0x50
 10797 0a51 7E000000 		.4byte	.LVL294
 10798 0a55 80000000 		.4byte	.LVL295
 10799 0a59 0100     		.2byte	0x1
 10800 0a5b 50       		.byte	0x50
 10801 0a5c 00000000 		.4byte	0
 10802 0a60 00000000 		.4byte	0
 10803              	.LLST57:
 10804 0a64 00000000 		.4byte	.LVL296
 10805 0a68 12000000 		.4byte	.LVL297
 10806 0a6c 0100     		.2byte	0x1
 10807 0a6e 50       		.byte	0x50
 10808 0a6f 12000000 		.4byte	.LVL297
 10809 0a73 5C000000 		.4byte	.LVL307
 10810 0a77 0100     		.2byte	0x1
 10811 0a79 55       		.byte	0x55
 10812 0a7a 5C000000 		.4byte	.LVL307
 10813 0a7e 68000000 		.4byte	.LFE53
 10814 0a82 0400     		.2byte	0x4
 10815 0a84 F3       		.byte	0xf3
 10816 0a85 01       		.uleb128 0x1
 10817 0a86 50       		.byte	0x50
 10818 0a87 9F       		.byte	0x9f
 10819 0a88 00000000 		.4byte	0
 10820 0a8c 00000000 		.4byte	0
 10821              	.LLST58:
 10822 0a90 3E000000 		.4byte	.LVL299
ARM GAS  C:\Users\PRAJWA~1\AppData\Local\Temp\ccedcYia.s 			page 208


 10823 0a94 48000000 		.4byte	.LVL301
 10824 0a98 0300     		.2byte	0x3
 10825 0a9a 91       		.byte	0x91
 10826 0a9b 54       		.sleb128 -44
 10827 0a9c 9F       		.byte	0x9f
 10828 0a9d 48000000 		.4byte	.LVL301
 10829 0aa1 4C000000 		.4byte	.LVL303
 10830 0aa5 0100     		.2byte	0x1
 10831 0aa7 50       		.byte	0x50
 10832 0aa8 4C000000 		.4byte	.LVL303
 10833 0aac 4E000000 		.4byte	.LVL304
 10834 0ab0 0300     		.2byte	0x3
 10835 0ab2 91       		.byte	0x91
 10836 0ab3 54       		.sleb128 -44
 10837 0ab4 9F       		.byte	0x9f
 10838 0ab5 4E000000 		.4byte	.LVL304
 10839 0ab9 59000000 		.4byte	.LVL306-1
 10840 0abd 0100     		.2byte	0x1
 10841 0abf 50       		.byte	0x50
 10842 0ac0 00000000 		.4byte	0
 10843 0ac4 00000000 		.4byte	0
 10844              	.LLST59:
 10845 0ac8 3E000000 		.4byte	.LVL299
 10846 0acc 44000000 		.4byte	.LVL300
 10847 0ad0 0100     		.2byte	0x1
 10848 0ad2 50       		.byte	0x50
 10849 0ad3 4C000000 		.4byte	.LVL303
 10850 0ad7 4E000000 		.4byte	.LVL304
 10851 0adb 0100     		.2byte	0x1
 10852 0add 50       		.byte	0x50
 10853 0ade 00000000 		.4byte	0
 10854 0ae2 00000000 		.4byte	0
 10855              	.LLST60:
 10856 0ae6 00000000 		.4byte	.LVL308
 10857 0aea 12000000 		.4byte	.LVL309
 10858 0aee 0100     		.2byte	0x1
 10859 0af0 50       		.byte	0x50
 10860 0af1 12000000 		.4byte	.LVL309
 10861 0af5 5C000000 		.4byte	.LVL319
 10862 0af9 0100     		.2byte	0x1
 10863 0afb 55       		.byte	0x55
 10864 0afc 5C000000 		.4byte	.LVL319
 10865 0b00 68000000 		.4byte	.LFE54
 10866 0b04 0400     		.2byte	0x4
 10867 0b06 F3       		.byte	0xf3
 10868 0b07 01       		.uleb128 0x1
 10869 0b08 50       		.byte	0x50
 10870 0b09 9F       		.byte	0x9f
 10871 0b0a 00000000 		.4byte	0
 10872 0b0e 00000000 		.4byte	0
 10873              	.LLST61:
 10874 0b12 3E000000 		.4byte	.LVL311
 10875 0b16 48000000 		.4byte	.LVL313
 10876 0b1a 0300     		.2byte	0x3
 10877 0b1c 91       		.byte	0x91
 10878 0b1d 54       		.sleb128 -44
 10879 0b1e 9F       		.byte	0x9f
ARM GAS  C:\Users\PRAJWA~1\AppData\Local\Temp\ccedcYia.s 			page 209


 10880 0b1f 48000000 		.4byte	.LVL313
 10881 0b23 4C000000 		.4byte	.LVL315
 10882 0b27 0100     		.2byte	0x1
 10883 0b29 50       		.byte	0x50
 10884 0b2a 4C000000 		.4byte	.LVL315
 10885 0b2e 4E000000 		.4byte	.LVL316
 10886 0b32 0300     		.2byte	0x3
 10887 0b34 91       		.byte	0x91
 10888 0b35 54       		.sleb128 -44
 10889 0b36 9F       		.byte	0x9f
 10890 0b37 4E000000 		.4byte	.LVL316
 10891 0b3b 59000000 		.4byte	.LVL318-1
 10892 0b3f 0100     		.2byte	0x1
 10893 0b41 50       		.byte	0x50
 10894 0b42 00000000 		.4byte	0
 10895 0b46 00000000 		.4byte	0
 10896              	.LLST62:
 10897 0b4a 3E000000 		.4byte	.LVL311
 10898 0b4e 44000000 		.4byte	.LVL312
 10899 0b52 0100     		.2byte	0x1
 10900 0b54 50       		.byte	0x50
 10901 0b55 4C000000 		.4byte	.LVL315
 10902 0b59 4E000000 		.4byte	.LVL316
 10903 0b5d 0100     		.2byte	0x1
 10904 0b5f 50       		.byte	0x50
 10905 0b60 00000000 		.4byte	0
 10906 0b64 00000000 		.4byte	0
 10907              	.LLST63:
 10908 0b68 00000000 		.4byte	.LVL320
 10909 0b6c 12000000 		.4byte	.LVL321
 10910 0b70 0100     		.2byte	0x1
 10911 0b72 50       		.byte	0x50
 10912 0b73 12000000 		.4byte	.LVL321
 10913 0b77 5C000000 		.4byte	.LVL331
 10914 0b7b 0100     		.2byte	0x1
 10915 0b7d 55       		.byte	0x55
 10916 0b7e 5C000000 		.4byte	.LVL331
 10917 0b82 68000000 		.4byte	.LFE55
 10918 0b86 0400     		.2byte	0x4
 10919 0b88 F3       		.byte	0xf3
 10920 0b89 01       		.uleb128 0x1
 10921 0b8a 50       		.byte	0x50
 10922 0b8b 9F       		.byte	0x9f
 10923 0b8c 00000000 		.4byte	0
 10924 0b90 00000000 		.4byte	0
 10925              	.LLST64:
 10926 0b94 3E000000 		.4byte	.LVL323
 10927 0b98 48000000 		.4byte	.LVL325
 10928 0b9c 0300     		.2byte	0x3
 10929 0b9e 91       		.byte	0x91
 10930 0b9f 54       		.sleb128 -44
 10931 0ba0 9F       		.byte	0x9f
 10932 0ba1 48000000 		.4byte	.LVL325
 10933 0ba5 4C000000 		.4byte	.LVL327
 10934 0ba9 0100     		.2byte	0x1
 10935 0bab 50       		.byte	0x50
 10936 0bac 4C000000 		.4byte	.LVL327
ARM GAS  C:\Users\PRAJWA~1\AppData\Local\Temp\ccedcYia.s 			page 210


 10937 0bb0 4E000000 		.4byte	.LVL328
 10938 0bb4 0300     		.2byte	0x3
 10939 0bb6 91       		.byte	0x91
 10940 0bb7 54       		.sleb128 -44
 10941 0bb8 9F       		.byte	0x9f
 10942 0bb9 4E000000 		.4byte	.LVL328
 10943 0bbd 59000000 		.4byte	.LVL330-1
 10944 0bc1 0100     		.2byte	0x1
 10945 0bc3 50       		.byte	0x50
 10946 0bc4 00000000 		.4byte	0
 10947 0bc8 00000000 		.4byte	0
 10948              	.LLST65:
 10949 0bcc 3E000000 		.4byte	.LVL323
 10950 0bd0 44000000 		.4byte	.LVL324
 10951 0bd4 0100     		.2byte	0x1
 10952 0bd6 50       		.byte	0x50
 10953 0bd7 4C000000 		.4byte	.LVL327
 10954 0bdb 4E000000 		.4byte	.LVL328
 10955 0bdf 0100     		.2byte	0x1
 10956 0be1 50       		.byte	0x50
 10957 0be2 00000000 		.4byte	0
 10958 0be6 00000000 		.4byte	0
 10959              	.LLST66:
 10960 0bea 00000000 		.4byte	.LVL332
 10961 0bee 18000000 		.4byte	.LVL334
 10962 0bf2 0100     		.2byte	0x1
 10963 0bf4 50       		.byte	0x50
 10964 0bf5 18000000 		.4byte	.LVL334
 10965 0bf9 46000000 		.4byte	.LVL338
 10966 0bfd 0100     		.2byte	0x1
 10967 0bff 54       		.byte	0x54
 10968 0c00 46000000 		.4byte	.LVL338
 10969 0c04 9C000000 		.4byte	.LFE56
 10970 0c08 0400     		.2byte	0x4
 10971 0c0a F3       		.byte	0xf3
 10972 0c0b 01       		.uleb128 0x1
 10973 0c0c 50       		.byte	0x50
 10974 0c0d 9F       		.byte	0x9f
 10975 0c0e 00000000 		.4byte	0
 10976 0c12 00000000 		.4byte	0
 10977              	.LLST67:
 10978 0c16 00000000 		.4byte	.LVL332
 10979 0c1a 18000000 		.4byte	.LVL334
 10980 0c1e 0100     		.2byte	0x1
 10981 0c20 51       		.byte	0x51
 10982 0c21 18000000 		.4byte	.LVL334
 10983 0c25 82000000 		.4byte	.LVL349
 10984 0c29 0100     		.2byte	0x1
 10985 0c2b 57       		.byte	0x57
 10986 0c2c 82000000 		.4byte	.LVL349
 10987 0c30 9C000000 		.4byte	.LFE56
 10988 0c34 0400     		.2byte	0x4
 10989 0c36 F3       		.byte	0xf3
 10990 0c37 01       		.uleb128 0x1
 10991 0c38 51       		.byte	0x51
 10992 0c39 9F       		.byte	0x9f
 10993 0c3a 00000000 		.4byte	0
ARM GAS  C:\Users\PRAJWA~1\AppData\Local\Temp\ccedcYia.s 			page 211


 10994 0c3e 00000000 		.4byte	0
 10995              	.LLST68:
 10996 0c42 44000000 		.4byte	.LVL337
 10997 0c46 54000000 		.4byte	.LVL341
 10998 0c4a 0100     		.2byte	0x1
 10999 0c4c 50       		.byte	0x50
 11000 0c4d 54000000 		.4byte	.LVL341
 11001 0c51 7C000000 		.4byte	.LVL347
 11002 0c55 0100     		.2byte	0x1
 11003 0c57 58       		.byte	0x58
 11004 0c58 7C000000 		.4byte	.LVL347
 11005 0c5c 9C000000 		.4byte	.LFE56
 11006 0c60 0100     		.2byte	0x1
 11007 0c62 53       		.byte	0x53
 11008 0c63 00000000 		.4byte	0
 11009 0c67 00000000 		.4byte	0
 11010              	.LLST69:
 11011 0c6b 0C000000 		.4byte	.LVL333
 11012 0c6f 54000000 		.4byte	.LVL341
 11013 0c73 0200     		.2byte	0x2
 11014 0c75 30       		.byte	0x30
 11015 0c76 9F       		.byte	0x9f
 11016 0c77 54000000 		.4byte	.LVL341
 11017 0c7b 6C000000 		.4byte	.LVL345
 11018 0c7f 0100     		.2byte	0x1
 11019 0c81 56       		.byte	0x56
 11020 0c82 00000000 		.4byte	0
 11021 0c86 00000000 		.4byte	0
 11022              	.LLST70:
 11023 0c8a 44000000 		.4byte	.LVL337
 11024 0c8e 48000000 		.4byte	.LVL339
 11025 0c92 0100     		.2byte	0x1
 11026 0c94 57       		.byte	0x57
 11027 0c95 48000000 		.4byte	.LVL339
 11028 0c99 82000000 		.4byte	.LVL348
 11029 0c9d 0100     		.2byte	0x1
 11030 0c9f 54       		.byte	0x54
 11031 0ca0 00000000 		.4byte	0
 11032 0ca4 00000000 		.4byte	0
 11033              	.LLST71:
 11034 0ca8 00000000 		.4byte	.LVL350
 11035 0cac 0C000000 		.4byte	.LVL351
 11036 0cb0 0100     		.2byte	0x1
 11037 0cb2 50       		.byte	0x50
 11038 0cb3 0C000000 		.4byte	.LVL351
 11039 0cb7 5A000000 		.4byte	.LVL363
 11040 0cbb 0100     		.2byte	0x1
 11041 0cbd 55       		.byte	0x55
 11042 0cbe 5A000000 		.4byte	.LVL363
 11043 0cc2 74000000 		.4byte	.LFE57
 11044 0cc6 0400     		.2byte	0x4
 11045 0cc8 F3       		.byte	0xf3
 11046 0cc9 01       		.uleb128 0x1
 11047 0cca 50       		.byte	0x50
 11048 0ccb 9F       		.byte	0x9f
 11049 0ccc 00000000 		.4byte	0
 11050 0cd0 00000000 		.4byte	0
ARM GAS  C:\Users\PRAJWA~1\AppData\Local\Temp\ccedcYia.s 			page 212


 11051              	.LLST72:
 11052 0cd4 00000000 		.4byte	.LVL350
 11053 0cd8 0F000000 		.4byte	.LVL352-1
 11054 0cdc 0100     		.2byte	0x1
 11055 0cde 51       		.byte	0x51
 11056 0cdf 0F000000 		.4byte	.LVL352-1
 11057 0ce3 5A000000 		.4byte	.LVL362
 11058 0ce7 0100     		.2byte	0x1
 11059 0ce9 54       		.byte	0x54
 11060 0cea 5A000000 		.4byte	.LVL362
 11061 0cee 74000000 		.4byte	.LFE57
 11062 0cf2 0400     		.2byte	0x4
 11063 0cf4 F3       		.byte	0xf3
 11064 0cf5 01       		.uleb128 0x1
 11065 0cf6 51       		.byte	0x51
 11066 0cf7 9F       		.byte	0x9f
 11067 0cf8 00000000 		.4byte	0
 11068 0cfc 00000000 		.4byte	0
 11069              	.LLST73:
 11070 0d00 00000000 		.4byte	.LVL350
 11071 0d04 0F000000 		.4byte	.LVL352-1
 11072 0d08 0100     		.2byte	0x1
 11073 0d0a 52       		.byte	0x52
 11074 0d0b 0F000000 		.4byte	.LVL352-1
 11075 0d0f 5A000000 		.4byte	.LVL364
 11076 0d13 0100     		.2byte	0x1
 11077 0d15 56       		.byte	0x56
 11078 0d16 5A000000 		.4byte	.LVL364
 11079 0d1a 74000000 		.4byte	.LFE57
 11080 0d1e 0400     		.2byte	0x4
 11081 0d20 F3       		.byte	0xf3
 11082 0d21 01       		.uleb128 0x1
 11083 0d22 52       		.byte	0x52
 11084 0d23 9F       		.byte	0x9f
 11085 0d24 00000000 		.4byte	0
 11086 0d28 00000000 		.4byte	0
 11087              	.LLST74:
 11088 0d2c 40000000 		.4byte	.LVL356
 11089 0d30 46000000 		.4byte	.LVL357
 11090 0d34 0100     		.2byte	0x1
 11091 0d36 50       		.byte	0x50
 11092 0d37 4E000000 		.4byte	.LVL359
 11093 0d3b 50000000 		.4byte	.LVL360
 11094 0d3f 0100     		.2byte	0x1
 11095 0d41 50       		.byte	0x50
 11096 0d42 00000000 		.4byte	0
 11097 0d46 00000000 		.4byte	0
 11098              	.LLST75:
 11099 0d4a 00000000 		.4byte	.LVL365
 11100 0d4e 29000000 		.4byte	.LVL366-1
 11101 0d52 0100     		.2byte	0x1
 11102 0d54 50       		.byte	0x50
 11103 0d55 29000000 		.4byte	.LVL366-1
 11104 0d59 44000000 		.4byte	.LFE58
 11105 0d5d 0400     		.2byte	0x4
 11106 0d5f F3       		.byte	0xf3
 11107 0d60 01       		.uleb128 0x1
ARM GAS  C:\Users\PRAJWA~1\AppData\Local\Temp\ccedcYia.s 			page 213


 11108 0d61 50       		.byte	0x50
 11109 0d62 9F       		.byte	0x9f
 11110 0d63 00000000 		.4byte	0
 11111 0d67 00000000 		.4byte	0
 11112              	.LLST76:
 11113 0d6b 2A000000 		.4byte	.LVL366
 11114 0d6f 30000000 		.4byte	.LVL367
 11115 0d73 0100     		.2byte	0x1
 11116 0d75 50       		.byte	0x50
 11117 0d76 32000000 		.4byte	.LVL368
 11118 0d7a 34000000 		.4byte	.LVL369
 11119 0d7e 0100     		.2byte	0x1
 11120 0d80 50       		.byte	0x50
 11121 0d81 00000000 		.4byte	0
 11122 0d85 00000000 		.4byte	0
 11123              	.LLST77:
 11124 0d89 00000000 		.4byte	.LVL370
 11125 0d8d 14000000 		.4byte	.LVL372
 11126 0d91 0100     		.2byte	0x1
 11127 0d93 50       		.byte	0x50
 11128 0d94 14000000 		.4byte	.LVL372
 11129 0d98 78000000 		.4byte	.LVL389
 11130 0d9c 0100     		.2byte	0x1
 11131 0d9e 55       		.byte	0x55
 11132 0d9f 78000000 		.4byte	.LVL389
 11133 0da3 84000000 		.4byte	.LFE59
 11134 0da7 0400     		.2byte	0x4
 11135 0da9 F3       		.byte	0xf3
 11136 0daa 01       		.uleb128 0x1
 11137 0dab 50       		.byte	0x50
 11138 0dac 9F       		.byte	0x9f
 11139 0dad 00000000 		.4byte	0
 11140 0db1 00000000 		.4byte	0
 11141              	.LLST78:
 11142 0db5 00000000 		.4byte	.LVL370
 11143 0db9 14000000 		.4byte	.LVL372
 11144 0dbd 0100     		.2byte	0x1
 11145 0dbf 51       		.byte	0x51
 11146 0dc0 14000000 		.4byte	.LVL372
 11147 0dc4 78000000 		.4byte	.LVL388
 11148 0dc8 0100     		.2byte	0x1
 11149 0dca 54       		.byte	0x54
 11150 0dcb 78000000 		.4byte	.LVL388
 11151 0dcf 84000000 		.4byte	.LFE59
 11152 0dd3 0400     		.2byte	0x4
 11153 0dd5 F3       		.byte	0xf3
 11154 0dd6 01       		.uleb128 0x1
 11155 0dd7 51       		.byte	0x51
 11156 0dd8 9F       		.byte	0x9f
 11157 0dd9 00000000 		.4byte	0
 11158 0ddd 00000000 		.4byte	0
 11159              	.LLST79:
 11160 0de1 40000000 		.4byte	.LVL374
 11161 0de5 70000000 		.4byte	.LVL385
 11162 0de9 0100     		.2byte	0x1
 11163 0deb 50       		.byte	0x50
 11164 0dec 72000000 		.4byte	.LVL386
ARM GAS  C:\Users\PRAJWA~1\AppData\Local\Temp\ccedcYia.s 			page 214


 11165 0df0 74000000 		.4byte	.LVL387
 11166 0df4 0100     		.2byte	0x1
 11167 0df6 50       		.byte	0x50
 11168 0df7 00000000 		.4byte	0
 11169 0dfb 00000000 		.4byte	0
 11170              	.LLST80:
 11171 0dff 08000000 		.4byte	.LVL371
 11172 0e03 58000000 		.4byte	.LVL380
 11173 0e07 0200     		.2byte	0x2
 11174 0e09 30       		.byte	0x30
 11175 0e0a 9F       		.byte	0x9f
 11176 0e0b 58000000 		.4byte	.LVL380
 11177 0e0f 66000000 		.4byte	.LVL383
 11178 0e13 0100     		.2byte	0x1
 11179 0e15 51       		.byte	0x51
 11180 0e16 00000000 		.4byte	0
 11181 0e1a 00000000 		.4byte	0
 11182              	.LLST81:
 11183 0e1e 40000000 		.4byte	.LVL374
 11184 0e22 46000000 		.4byte	.LVL375
 11185 0e26 0400     		.2byte	0x4
 11186 0e28 91       		.byte	0x91
 11187 0e29 A87E     		.sleb128 -216
 11188 0e2b 9F       		.byte	0x9f
 11189 0e2c 46000000 		.4byte	.LVL375
 11190 0e30 4A000000 		.4byte	.LVL377
 11191 0e34 0100     		.2byte	0x1
 11192 0e36 53       		.byte	0x53
 11193 0e37 4A000000 		.4byte	.LVL377
 11194 0e3b 4C000000 		.4byte	.LVL378
 11195 0e3f 0400     		.2byte	0x4
 11196 0e41 91       		.byte	0x91
 11197 0e42 A87E     		.sleb128 -216
 11198 0e44 9F       		.byte	0x9f
 11199 0e45 4C000000 		.4byte	.LVL378
 11200 0e49 68000000 		.4byte	.LVL384
 11201 0e4d 0100     		.2byte	0x1
 11202 0e4f 53       		.byte	0x53
 11203 0e50 00000000 		.4byte	0
 11204 0e54 00000000 		.4byte	0
 11205              	.LLST82:
 11206 0e58 00000000 		.4byte	.LVL390
 11207 0e5c 10000000 		.4byte	.LVL393
 11208 0e60 0100     		.2byte	0x1
 11209 0e62 50       		.byte	0x50
 11210 0e63 10000000 		.4byte	.LVL393
 11211 0e67 B0000000 		.4byte	.LFE60
 11212 0e6b 0300     		.2byte	0x3
 11213 0e6d 91       		.byte	0x91
 11214 0e6e D47C     		.sleb128 -428
 11215 0e70 00000000 		.4byte	0
 11216 0e74 00000000 		.4byte	0
 11217              	.LLST83:
 11218 0e78 00000000 		.4byte	.LVL390
 11219 0e7c 0E000000 		.4byte	.LVL392
 11220 0e80 0100     		.2byte	0x1
 11221 0e82 51       		.byte	0x51
ARM GAS  C:\Users\PRAJWA~1\AppData\Local\Temp\ccedcYia.s 			page 215


 11222 0e83 0E000000 		.4byte	.LVL392
 11223 0e87 28000000 		.4byte	.LVL396
 11224 0e8b 0100     		.2byte	0x1
 11225 0e8d 55       		.byte	0x55
 11226 0e8e 28000000 		.4byte	.LVL396
 11227 0e92 2A000000 		.4byte	.LVL397
 11228 0e96 0400     		.2byte	0x4
 11229 0e98 F3       		.byte	0xf3
 11230 0e99 01       		.uleb128 0x1
 11231 0e9a 51       		.byte	0x51
 11232 0e9b 9F       		.byte	0x9f
 11233 0e9c 2A000000 		.4byte	.LVL397
 11234 0ea0 30000000 		.4byte	.LVL398
 11235 0ea4 0100     		.2byte	0x1
 11236 0ea6 55       		.byte	0x55
 11237 0ea7 30000000 		.4byte	.LVL398
 11238 0eab 32000000 		.4byte	.LVL399
 11239 0eaf 0400     		.2byte	0x4
 11240 0eb1 F3       		.byte	0xf3
 11241 0eb2 01       		.uleb128 0x1
 11242 0eb3 51       		.byte	0x51
 11243 0eb4 9F       		.byte	0x9f
 11244 0eb5 32000000 		.4byte	.LVL399
 11245 0eb9 38000000 		.4byte	.LVL400
 11246 0ebd 0100     		.2byte	0x1
 11247 0ebf 55       		.byte	0x55
 11248 0ec0 38000000 		.4byte	.LVL400
 11249 0ec4 B0000000 		.4byte	.LFE60
 11250 0ec8 0400     		.2byte	0x4
 11251 0eca F3       		.byte	0xf3
 11252 0ecb 01       		.uleb128 0x1
 11253 0ecc 51       		.byte	0x51
 11254 0ecd 9F       		.byte	0x9f
 11255 0ece 00000000 		.4byte	0
 11256 0ed2 00000000 		.4byte	0
 11257              	.LLST84:
 11258 0ed6 00000000 		.4byte	.LVL390
 11259 0eda 13000000 		.4byte	.LVL394-1
 11260 0ede 0100     		.2byte	0x1
 11261 0ee0 52       		.byte	0x52
 11262 0ee1 13000000 		.4byte	.LVL394-1
 11263 0ee5 96000000 		.4byte	.LVL409
 11264 0ee9 0100     		.2byte	0x1
 11265 0eeb 54       		.byte	0x54
 11266 0eec 96000000 		.4byte	.LVL409
 11267 0ef0 B0000000 		.4byte	.LFE60
 11268 0ef4 0400     		.2byte	0x4
 11269 0ef6 F3       		.byte	0xf3
 11270 0ef7 01       		.uleb128 0x1
 11271 0ef8 52       		.byte	0x52
 11272 0ef9 9F       		.byte	0x9f
 11273 0efa 00000000 		.4byte	0
 11274 0efe 00000000 		.4byte	0
 11275              	.LLST85:
 11276 0f02 00000000 		.4byte	.LVL390
 11277 0f06 13000000 		.4byte	.LVL394-1
 11278 0f0a 0100     		.2byte	0x1
ARM GAS  C:\Users\PRAJWA~1\AppData\Local\Temp\ccedcYia.s 			page 216


 11279 0f0c 53       		.byte	0x53
 11280 0f0d 13000000 		.4byte	.LVL394-1
 11281 0f11 96000000 		.4byte	.LVL412
 11282 0f15 0100     		.2byte	0x1
 11283 0f17 57       		.byte	0x57
 11284 0f18 96000000 		.4byte	.LVL412
 11285 0f1c B0000000 		.4byte	.LFE60
 11286 0f20 0400     		.2byte	0x4
 11287 0f22 F3       		.byte	0xf3
 11288 0f23 01       		.uleb128 0x1
 11289 0f24 53       		.byte	0x53
 11290 0f25 9F       		.byte	0x9f
 11291 0f26 00000000 		.4byte	0
 11292 0f2a 00000000 		.4byte	0
 11293              	.LLST86:
 11294 0f2e 0C000000 		.4byte	.LVL391
 11295 0f32 38000000 		.4byte	.LVL400
 11296 0f36 0200     		.2byte	0x2
 11297 0f38 31       		.byte	0x31
 11298 0f39 9F       		.byte	0x9f
 11299 0f3a 38000000 		.4byte	.LVL400
 11300 0f3e 96000000 		.4byte	.LVL410
 11301 0f42 0100     		.2byte	0x1
 11302 0f44 55       		.byte	0x55
 11303 0f45 00000000 		.4byte	0
 11304 0f49 00000000 		.4byte	0
 11305              	.LLST87:
 11306 0f4d 38000000 		.4byte	.LVL400
 11307 0f51 5A000000 		.4byte	.LVL403
 11308 0f55 0200     		.2byte	0x2
 11309 0f57 32       		.byte	0x32
 11310 0f58 9F       		.byte	0x9f
 11311 0f59 5A000000 		.4byte	.LVL403
 11312 0f5d 6F000000 		.4byte	.LVL404-1
 11313 0f61 0100     		.2byte	0x1
 11314 0f63 53       		.byte	0x53
 11315 0f64 00000000 		.4byte	0
 11316 0f68 00000000 		.4byte	0
 11317              	.LLST88:
 11318 0f6c 0C000000 		.4byte	.LVL391
 11319 0f70 38000000 		.4byte	.LVL400
 11320 0f74 0300     		.2byte	0x3
 11321 0f76 08       		.byte	0x8
 11322 0f77 50       		.byte	0x50
 11323 0f78 9F       		.byte	0x9f
 11324 0f79 38000000 		.4byte	.LVL400
 11325 0f7d 96000000 		.4byte	.LVL411
 11326 0f81 0100     		.2byte	0x1
 11327 0f83 56       		.byte	0x56
 11328 0f84 00000000 		.4byte	0
 11329 0f88 00000000 		.4byte	0
 11330              	.LLST89:
 11331 0f8c 88000000 		.4byte	.LVL405
 11332 0f90 8E000000 		.4byte	.LVL406
 11333 0f94 0100     		.2byte	0x1
 11334 0f96 50       		.byte	0x50
 11335 0f97 90000000 		.4byte	.LVL407
ARM GAS  C:\Users\PRAJWA~1\AppData\Local\Temp\ccedcYia.s 			page 217


 11336 0f9b 92000000 		.4byte	.LVL408
 11337 0f9f 0100     		.2byte	0x1
 11338 0fa1 50       		.byte	0x50
 11339 0fa2 00000000 		.4byte	0
 11340 0fa6 00000000 		.4byte	0
 11341              	.LLST90:
 11342 0faa 00000000 		.4byte	.LVL413
 11343 0fae 14000000 		.4byte	.LVL416
 11344 0fb2 0100     		.2byte	0x1
 11345 0fb4 50       		.byte	0x50
 11346 0fb5 14000000 		.4byte	.LVL416
 11347 0fb9 28010000 		.4byte	.LFE61
 11348 0fbd 0300     		.2byte	0x3
 11349 0fbf 91       		.byte	0x91
 11350 0fc0 A47A     		.sleb128 -732
 11351 0fc2 00000000 		.4byte	0
 11352 0fc6 00000000 		.4byte	0
 11353              	.LLST91:
 11354 0fca 00000000 		.4byte	.LVL413
 11355 0fce 12000000 		.4byte	.LVL415
 11356 0fd2 0100     		.2byte	0x1
 11357 0fd4 51       		.byte	0x51
 11358 0fd5 12000000 		.4byte	.LVL415
 11359 0fd9 2C000000 		.4byte	.LVL419
 11360 0fdd 0100     		.2byte	0x1
 11361 0fdf 56       		.byte	0x56
 11362 0fe0 2C000000 		.4byte	.LVL419
 11363 0fe4 2E000000 		.4byte	.LVL420
 11364 0fe8 0400     		.2byte	0x4
 11365 0fea F3       		.byte	0xf3
 11366 0feb 01       		.uleb128 0x1
 11367 0fec 51       		.byte	0x51
 11368 0fed 9F       		.byte	0x9f
 11369 0fee 2E000000 		.4byte	.LVL420
 11370 0ff2 34000000 		.4byte	.LVL421
 11371 0ff6 0100     		.2byte	0x1
 11372 0ff8 56       		.byte	0x56
 11373 0ff9 34000000 		.4byte	.LVL421
 11374 0ffd 36000000 		.4byte	.LVL422
 11375 1001 0400     		.2byte	0x4
 11376 1003 F3       		.byte	0xf3
 11377 1004 01       		.uleb128 0x1
 11378 1005 51       		.byte	0x51
 11379 1006 9F       		.byte	0x9f
 11380 1007 36000000 		.4byte	.LVL422
 11381 100b 3C000000 		.4byte	.LVL423
 11382 100f 0100     		.2byte	0x1
 11383 1011 56       		.byte	0x56
 11384 1012 3C000000 		.4byte	.LVL423
 11385 1016 28010000 		.4byte	.LFE61
 11386 101a 0400     		.2byte	0x4
 11387 101c F3       		.byte	0xf3
 11388 101d 01       		.uleb128 0x1
 11389 101e 51       		.byte	0x51
 11390 101f 9F       		.byte	0x9f
 11391 1020 00000000 		.4byte	0
 11392 1024 00000000 		.4byte	0
ARM GAS  C:\Users\PRAJWA~1\AppData\Local\Temp\ccedcYia.s 			page 218


 11393              	.LLST92:
 11394 1028 00000000 		.4byte	.LVL413
 11395 102c 17000000 		.4byte	.LVL417-1
 11396 1030 0100     		.2byte	0x1
 11397 1032 52       		.byte	0x52
 11398 1033 17000000 		.4byte	.LVL417-1
 11399 1037 28010000 		.4byte	.LFE61
 11400 103b 0300     		.2byte	0x3
 11401 103d 91       		.byte	0x91
 11402 103e A07A     		.sleb128 -736
 11403 1040 00000000 		.4byte	0
 11404 1044 00000000 		.4byte	0
 11405              	.LLST93:
 11406 1048 00000000 		.4byte	.LVL413
 11407 104c 17000000 		.4byte	.LVL417-1
 11408 1050 0100     		.2byte	0x1
 11409 1052 53       		.byte	0x53
 11410 1053 17000000 		.4byte	.LVL417-1
 11411 1057 FA000000 		.4byte	.LVL444
 11412 105b 0100     		.2byte	0x1
 11413 105d 57       		.byte	0x57
 11414 105e FA000000 		.4byte	.LVL444
 11415 1062 28010000 		.4byte	.LFE61
 11416 1066 0400     		.2byte	0x4
 11417 1068 F3       		.byte	0xf3
 11418 1069 01       		.uleb128 0x1
 11419 106a 53       		.byte	0x53
 11420 106b 9F       		.byte	0x9f
 11421 106c 00000000 		.4byte	0
 11422 1070 00000000 		.4byte	0
 11423              	.LLST94:
 11424 1074 10000000 		.4byte	.LVL414
 11425 1078 3C000000 		.4byte	.LVL423
 11426 107c 0200     		.2byte	0x2
 11427 107e 31       		.byte	0x31
 11428 107f 9F       		.byte	0x9f
 11429 1080 3C000000 		.4byte	.LVL423
 11430 1084 FA000000 		.4byte	.LVL443
 11431 1088 0100     		.2byte	0x1
 11432 108a 56       		.byte	0x56
 11433 108b 00000000 		.4byte	0
 11434 108f 00000000 		.4byte	0
 11435              	.LLST95:
 11436 1093 3C000000 		.4byte	.LVL423
 11437 1097 5E000000 		.4byte	.LVL426
 11438 109b 0200     		.2byte	0x2
 11439 109d 32       		.byte	0x32
 11440 109e 9F       		.byte	0x9f
 11441 109f 5E000000 		.4byte	.LVL426
 11442 10a3 6F000000 		.4byte	.LVL427-1
 11443 10a7 0100     		.2byte	0x1
 11444 10a9 53       		.byte	0x53
 11445 10aa 00000000 		.4byte	0
 11446 10ae 00000000 		.4byte	0
 11447              	.LLST96:
 11448 10b2 10000000 		.4byte	.LVL414
 11449 10b6 3C000000 		.4byte	.LVL423
ARM GAS  C:\Users\PRAJWA~1\AppData\Local\Temp\ccedcYia.s 			page 219


 11450 10ba 0300     		.2byte	0x3
 11451 10bc 08       		.byte	0x8
 11452 10bd 50       		.byte	0x50
 11453 10be 9F       		.byte	0x9f
 11454 10bf 3C000000 		.4byte	.LVL423
 11455 10c3 BA000000 		.4byte	.LVL435
 11456 10c7 0100     		.2byte	0x1
 11457 10c9 55       		.byte	0x55
 11458 10ca 00000000 		.4byte	0
 11459 10ce 00000000 		.4byte	0
 11460              	.LLST97:
 11461 10d2 10000000 		.4byte	.LVL414
 11462 10d6 8E000000 		.4byte	.LVL429
 11463 10da 0200     		.2byte	0x2
 11464 10dc 30       		.byte	0x30
 11465 10dd 9F       		.byte	0x9f
 11466 10de 8E000000 		.4byte	.LVL429
 11467 10e2 BA000000 		.4byte	.LVL435
 11468 10e6 0100     		.2byte	0x1
 11469 10e8 53       		.byte	0x53
 11470 10e9 00000000 		.4byte	0
 11471 10ed 00000000 		.4byte	0
 11472              	.LLST98:
 11473 10f1 10000000 		.4byte	.LVL414
 11474 10f5 9C000000 		.4byte	.LVL431
 11475 10f9 0200     		.2byte	0x2
 11476 10fb 30       		.byte	0x30
 11477 10fc 9F       		.byte	0x9f
 11478 10fd 9C000000 		.4byte	.LVL431
 11479 1101 BA000000 		.4byte	.LVL435
 11480 1105 0100     		.2byte	0x1
 11481 1107 52       		.byte	0x52
 11482 1108 BA000000 		.4byte	.LVL435
 11483 110c BC000000 		.4byte	.LVL436
 11484 1110 0100     		.2byte	0x1
 11485 1112 51       		.byte	0x51
 11486 1113 BC000000 		.4byte	.LVL436
 11487 1117 C6000000 		.4byte	.LVL437
 11488 111b 0100     		.2byte	0x1
 11489 111d 52       		.byte	0x52
 11490 111e C6000000 		.4byte	.LVL437
 11491 1122 C8000000 		.4byte	.LVL438
 11492 1126 0100     		.2byte	0x1
 11493 1128 51       		.byte	0x51
 11494 1129 C8000000 		.4byte	.LVL438
 11495 112d D3000000 		.4byte	.LVL439-1
 11496 1131 0100     		.2byte	0x1
 11497 1133 52       		.byte	0x52
 11498 1134 00000000 		.4byte	0
 11499 1138 00000000 		.4byte	0
 11500              	.LLST99:
 11501 113c 00000000 		.4byte	.LVL445
 11502 1140 08000000 		.4byte	.LVL447
 11503 1144 0100     		.2byte	0x1
 11504 1146 50       		.byte	0x50
 11505 1147 08000000 		.4byte	.LVL447
 11506 114b 1C000000 		.4byte	.LFE62
ARM GAS  C:\Users\PRAJWA~1\AppData\Local\Temp\ccedcYia.s 			page 220


 11507 114f 0400     		.2byte	0x4
 11508 1151 F3       		.byte	0xf3
 11509 1152 01       		.uleb128 0x1
 11510 1153 50       		.byte	0x50
 11511 1154 9F       		.byte	0x9f
 11512 1155 00000000 		.4byte	0
 11513 1159 00000000 		.4byte	0
 11514              	.LLST100:
 11515 115d 00000000 		.4byte	.LVL445
 11516 1161 0A000000 		.4byte	.LVL448
 11517 1165 0100     		.2byte	0x1
 11518 1167 51       		.byte	0x51
 11519 1168 0A000000 		.4byte	.LVL448
 11520 116c 14000000 		.4byte	.LVL451
 11521 1170 0100     		.2byte	0x1
 11522 1172 55       		.byte	0x55
 11523 1173 14000000 		.4byte	.LVL451
 11524 1177 1C000000 		.4byte	.LFE62
 11525 117b 0100     		.2byte	0x1
 11526 117d 51       		.byte	0x51
 11527 117e 00000000 		.4byte	0
 11528 1182 00000000 		.4byte	0
 11529              	.LLST101:
 11530 1186 00000000 		.4byte	.LVL445
 11531 118a 08000000 		.4byte	.LVL447
 11532 118e 0100     		.2byte	0x1
 11533 1190 52       		.byte	0x52
 11534 1191 08000000 		.4byte	.LVL447
 11535 1195 1A000000 		.4byte	.LVL453
 11536 1199 0100     		.2byte	0x1
 11537 119b 56       		.byte	0x56
 11538 119c 1A000000 		.4byte	.LVL453
 11539 11a0 1C000000 		.4byte	.LFE62
 11540 11a4 0100     		.2byte	0x1
 11541 11a6 50       		.byte	0x50
 11542 11a7 00000000 		.4byte	0
 11543 11ab 00000000 		.4byte	0
 11544              	.LLST102:
 11545 11af 04000000 		.4byte	.LVL446
 11546 11b3 08000000 		.4byte	.LVL447
 11547 11b7 0200     		.2byte	0x2
 11548 11b9 30       		.byte	0x30
 11549 11ba 9F       		.byte	0x9f
 11550 11bb 08000000 		.4byte	.LVL447
 11551 11bf 1A000000 		.4byte	.LVL452
 11552 11c3 0100     		.2byte	0x1
 11553 11c5 54       		.byte	0x54
 11554 11c6 00000000 		.4byte	0
 11555 11ca 00000000 		.4byte	0
 11556              	.LLST103:
 11557 11ce 06000000 		.4byte	.LVL454
 11558 11d2 8E000000 		.4byte	.LVL478
 11559 11d6 0200     		.2byte	0x2
 11560 11d8 30       		.byte	0x30
 11561 11d9 9F       		.byte	0x9f
 11562 11da 8E000000 		.4byte	.LVL478
 11563 11de 9A000000 		.4byte	.LVL480
ARM GAS  C:\Users\PRAJWA~1\AppData\Local\Temp\ccedcYia.s 			page 221


 11564 11e2 0200     		.2byte	0x2
 11565 11e4 31       		.byte	0x31
 11566 11e5 9F       		.byte	0x9f
 11567 11e6 9A000000 		.4byte	.LVL480
 11568 11ea A0000000 		.4byte	.LVL481
 11569 11ee 0200     		.2byte	0x2
 11570 11f0 30       		.byte	0x30
 11571 11f1 9F       		.byte	0x9f
 11572 11f2 A0000000 		.4byte	.LVL481
 11573 11f6 E0010000 		.4byte	.LVL518
 11574 11fa 0100     		.2byte	0x1
 11575 11fc 54       		.byte	0x54
 11576 11fd E0010000 		.4byte	.LVL518
 11577 1201 18020000 		.4byte	.LFE63
 11578 1205 0300     		.2byte	0x3
 11579 1207 74       		.byte	0x74
 11580 1208 01       		.sleb128 1
 11581 1209 9F       		.byte	0x9f
 11582 120a 00000000 		.4byte	0
 11583 120e 00000000 		.4byte	0
 11584              	.LLST104:
 11585 1212 06000000 		.4byte	.LVL454
 11586 1216 62000000 		.4byte	.LVL471
 11587 121a 0200     		.2byte	0x2
 11588 121c 31       		.byte	0x31
 11589 121d 9F       		.byte	0x9f
 11590 121e 62000000 		.4byte	.LVL471
 11591 1222 98010000 		.4byte	.LVL508
 11592 1226 0100     		.2byte	0x1
 11593 1228 55       		.byte	0x55
 11594 1229 9A010000 		.4byte	.LVL509
 11595 122d 18020000 		.4byte	.LFE63
 11596 1231 0100     		.2byte	0x1
 11597 1233 55       		.byte	0x55
 11598 1234 00000000 		.4byte	0
 11599 1238 00000000 		.4byte	0
 11600              	.LLST105:
 11601 123c 0C000000 		.4byte	.LVL456
 11602 1240 0F000000 		.4byte	.LVL457-1
 11603 1244 0100     		.2byte	0x1
 11604 1246 50       		.byte	0x50
 11605 1247 0F000000 		.4byte	.LVL457-1
 11606 124b 18020000 		.4byte	.LFE63
 11607 124f 0100     		.2byte	0x1
 11608 1251 56       		.byte	0x56
 11609 1252 00000000 		.4byte	0
 11610 1256 00000000 		.4byte	0
 11611              		.section	.debug_aranges,"",%progbits
 11612 0000 FC000000 		.4byte	0xfc
 11613 0004 0200     		.2byte	0x2
 11614 0006 00000000 		.4byte	.Ldebug_info0
 11615 000a 04       		.byte	0x4
 11616 000b 00       		.byte	0
 11617 000c 0000     		.2byte	0
 11618 000e 0000     		.2byte	0
 11619 0010 00000000 		.4byte	.LFB35
 11620 0014 B4010000 		.4byte	.LFE35-.LFB35
ARM GAS  C:\Users\PRAJWA~1\AppData\Local\Temp\ccedcYia.s 			page 222


 11621 0018 00000000 		.4byte	.LFB36
 11622 001c 08000000 		.4byte	.LFE36-.LFB36
 11623 0020 00000000 		.4byte	.LFB37
 11624 0024 2C000000 		.4byte	.LFE37-.LFB37
 11625 0028 00000000 		.4byte	.LFB38
 11626 002c 0E000000 		.4byte	.LFE38-.LFB38
 11627 0030 00000000 		.4byte	.LFB39
 11628 0034 B4000000 		.4byte	.LFE39-.LFB39
 11629 0038 00000000 		.4byte	.LFB40
 11630 003c 68000000 		.4byte	.LFE40-.LFB40
 11631 0040 00000000 		.4byte	.LFB41
 11632 0044 74000000 		.4byte	.LFE41-.LFB41
 11633 0048 00000000 		.4byte	.LFB42
 11634 004c 6C000000 		.4byte	.LFE42-.LFB42
 11635 0050 00000000 		.4byte	.LFB43
 11636 0054 58000000 		.4byte	.LFE43-.LFB43
 11637 0058 00000000 		.4byte	.LFB44
 11638 005c 74000000 		.4byte	.LFE44-.LFB44
 11639 0060 00000000 		.4byte	.LFB45
 11640 0064 74000000 		.4byte	.LFE45-.LFB45
 11641 0068 00000000 		.4byte	.LFB46
 11642 006c 74000000 		.4byte	.LFE46-.LFB46
 11643 0070 00000000 		.4byte	.LFB47
 11644 0074 40000000 		.4byte	.LFE47-.LFB47
 11645 0078 00000000 		.4byte	.LFB48
 11646 007c 88000000 		.4byte	.LFE48-.LFB48
 11647 0080 00000000 		.4byte	.LFB49
 11648 0084 40000000 		.4byte	.LFE49-.LFB49
 11649 0088 00000000 		.4byte	.LFB50
 11650 008c 78000000 		.4byte	.LFE50-.LFB50
 11651 0090 00000000 		.4byte	.LFB51
 11652 0094 5C000000 		.4byte	.LFE51-.LFB51
 11653 0098 00000000 		.4byte	.LFB52
 11654 009c 94000000 		.4byte	.LFE52-.LFB52
 11655 00a0 00000000 		.4byte	.LFB53
 11656 00a4 68000000 		.4byte	.LFE53-.LFB53
 11657 00a8 00000000 		.4byte	.LFB54
 11658 00ac 68000000 		.4byte	.LFE54-.LFB54
 11659 00b0 00000000 		.4byte	.LFB55
 11660 00b4 68000000 		.4byte	.LFE55-.LFB55
 11661 00b8 00000000 		.4byte	.LFB56
 11662 00bc 9C000000 		.4byte	.LFE56-.LFB56
 11663 00c0 00000000 		.4byte	.LFB57
 11664 00c4 74000000 		.4byte	.LFE57-.LFB57
 11665 00c8 00000000 		.4byte	.LFB58
 11666 00cc 44000000 		.4byte	.LFE58-.LFB58
 11667 00d0 00000000 		.4byte	.LFB59
 11668 00d4 84000000 		.4byte	.LFE59-.LFB59
 11669 00d8 00000000 		.4byte	.LFB60
 11670 00dc B0000000 		.4byte	.LFE60-.LFB60
 11671 00e0 00000000 		.4byte	.LFB61
 11672 00e4 28010000 		.4byte	.LFE61-.LFB61
 11673 00e8 00000000 		.4byte	.LFB62
 11674 00ec 1C000000 		.4byte	.LFE62-.LFB62
 11675 00f0 00000000 		.4byte	.LFB63
 11676 00f4 18020000 		.4byte	.LFE63-.LFB63
 11677 00f8 00000000 		.4byte	0
ARM GAS  C:\Users\PRAJWA~1\AppData\Local\Temp\ccedcYia.s 			page 223


 11678 00fc 00000000 		.4byte	0
 11679              		.section	.debug_ranges,"",%progbits
 11680              	.Ldebug_ranges0:
 11681 0000 00000000 		.4byte	.LFB35
 11682 0004 B4010000 		.4byte	.LFE35
 11683 0008 00000000 		.4byte	.LFB36
 11684 000c 08000000 		.4byte	.LFE36
 11685 0010 00000000 		.4byte	.LFB37
 11686 0014 2C000000 		.4byte	.LFE37
 11687 0018 00000000 		.4byte	.LFB38
 11688 001c 0E000000 		.4byte	.LFE38
 11689 0020 00000000 		.4byte	.LFB39
 11690 0024 B4000000 		.4byte	.LFE39
 11691 0028 00000000 		.4byte	.LFB40
 11692 002c 68000000 		.4byte	.LFE40
 11693 0030 00000000 		.4byte	.LFB41
 11694 0034 74000000 		.4byte	.LFE41
 11695 0038 00000000 		.4byte	.LFB42
 11696 003c 6C000000 		.4byte	.LFE42
 11697 0040 00000000 		.4byte	.LFB43
 11698 0044 58000000 		.4byte	.LFE43
 11699 0048 00000000 		.4byte	.LFB44
 11700 004c 74000000 		.4byte	.LFE44
 11701 0050 00000000 		.4byte	.LFB45
 11702 0054 74000000 		.4byte	.LFE45
 11703 0058 00000000 		.4byte	.LFB46
 11704 005c 74000000 		.4byte	.LFE46
 11705 0060 00000000 		.4byte	.LFB47
 11706 0064 40000000 		.4byte	.LFE47
 11707 0068 00000000 		.4byte	.LFB48
 11708 006c 88000000 		.4byte	.LFE48
 11709 0070 00000000 		.4byte	.LFB49
 11710 0074 40000000 		.4byte	.LFE49
 11711 0078 00000000 		.4byte	.LFB50
 11712 007c 78000000 		.4byte	.LFE50
 11713 0080 00000000 		.4byte	.LFB51
 11714 0084 5C000000 		.4byte	.LFE51
 11715 0088 00000000 		.4byte	.LFB52
 11716 008c 94000000 		.4byte	.LFE52
 11717 0090 00000000 		.4byte	.LFB53
 11718 0094 68000000 		.4byte	.LFE53
 11719 0098 00000000 		.4byte	.LFB54
 11720 009c 68000000 		.4byte	.LFE54
 11721 00a0 00000000 		.4byte	.LFB55
 11722 00a4 68000000 		.4byte	.LFE55
 11723 00a8 00000000 		.4byte	.LFB56
 11724 00ac 9C000000 		.4byte	.LFE56
 11725 00b0 00000000 		.4byte	.LFB57
 11726 00b4 74000000 		.4byte	.LFE57
 11727 00b8 00000000 		.4byte	.LFB58
 11728 00bc 44000000 		.4byte	.LFE58
 11729 00c0 00000000 		.4byte	.LFB59
 11730 00c4 84000000 		.4byte	.LFE59
 11731 00c8 00000000 		.4byte	.LFB60
 11732 00cc B0000000 		.4byte	.LFE60
 11733 00d0 00000000 		.4byte	.LFB61
 11734 00d4 28010000 		.4byte	.LFE61
ARM GAS  C:\Users\PRAJWA~1\AppData\Local\Temp\ccedcYia.s 			page 224


 11735 00d8 00000000 		.4byte	.LFB62
 11736 00dc 1C000000 		.4byte	.LFE62
 11737 00e0 00000000 		.4byte	.LFB63
 11738 00e4 18020000 		.4byte	.LFE63
 11739 00e8 00000000 		.4byte	0
 11740 00ec 00000000 		.4byte	0
 11741              		.section	.debug_line,"",%progbits
 11742              	.Ldebug_line0:
 11743 0000 98070000 		.section	.debug_str,"MS",%progbits,1
 11743      0200F702 
 11743      00000201 
 11743      FB0E0D00 
 11743      01010101 
 11744              	.LASF22:
 11745 0000 4D75785F 		.ascii	"Mux_CapSense_LOW_BSLN_RST_TYPE\000"
 11745      43617053 
 11745      656E7365 
 11745      5F4C4F57 
 11745      5F42534C 
 11746              	.LASF131:
 11747 001f 6F707479 		.ascii	"optype\000"
 11747      706500
 11748              	.LASF80:
 11749 0026 70617373 		.ascii	"password\000"
 11749      776F7264 
 11749      00
 11750              	.LASF122:
 11751 002f 57694669 		.ascii	"WiFi_connect\000"
 11751      5F636F6E 
 11751      6E656374 
 11751      00
 11752              	.LASF154:
 11753 003c 61746F66 		.ascii	"atof\000"
 11753      00
 11754              	.LASF44:
 11755 0041 4D75785F 		.ascii	"Mux_CapSense_RAM_WD_LIST_STRUCT\000"
 11755      43617053 
 11755      656E7365 
 11755      5F52414D 
 11755      5F57445F 
 11756              	.LASF84:
 11757 0061 415F445F 		.ascii	"A_D_period\000"
 11757      70657269 
 11757      6F6400
 11758              	.LASF171:
 11759 006c 6D61696E 		.ascii	"main.c\000"
 11759      2E6300
 11760              	.LASF85:
 11761 0073 636F6E5F 		.ascii	"con_\000"
 11761      00
 11762              	.LASF105:
 11763 0078 626C654F 		.ascii	"bleON_host\000"
 11763      4E5F686F 
 11763      737400
 11764              	.LASF153:
 11765 0083 7374726E 		.ascii	"strncmp\000"
 11765      636D7000 
ARM GAS  C:\Users\PRAJWA~1\AppData\Local\Temp\ccedcYia.s 			page 225


 11766              	.LASF169:
 11767 008b 50696E5F 		.ascii	"Pin_Green_Write\000"
 11767      47726565 
 11767      6E5F5772 
 11767      69746500 
 11768              	.LASF65:
 11769 009b 736E7254 		.ascii	"snrTestWidgetId\000"
 11769      65737457 
 11769      69646765 
 11769      74496400 
 11770              	.LASF166:
 11771 00ab 4D75785F 		.ascii	"Mux_CapSense_RunTuner\000"
 11771      43617053 
 11771      656E7365 
 11771      5F52756E 
 11771      54756E65 
 11772              	.LASF102:
 11773 00c1 62756666 		.ascii	"buffer\000"
 11773      657200
 11774              	.LASF103:
 11775 00c8 626C655F 		.ascii	"ble_status\000"
 11775      73746174 
 11775      757300
 11776              	.LASF11:
 11777 00d3 756E7369 		.ascii	"unsigned int\000"
 11777      676E6564 
 11777      20696E74 
 11777      00
 11778              	.LASF100:
 11779 00e0 626C655F 		.ascii	"ble_checkRFpower\000"
 11779      63686563 
 11779      6B524670 
 11779      6F776572 
 11779      00
 11780              	.LASF56:
 11781 00f1 7363616E 		.ascii	"scanCounter\000"
 11781      436F756E 
 11781      74657200 
 11782              	.LASF54:
 11783 00fd 6877436C 		.ascii	"hwClock\000"
 11783      6F636B00 
 11784              	.LASF69:
 11785 0105 7363616E 		.ascii	"scanCsdISC\000"
 11785      43736449 
 11785      534300
 11786              	.LASF107:
 11787 0110 626C655F 		.ascii	"ble_connect\000"
 11787      636F6E6E 
 11787      65637400 
 11788              	.LASF163:
 11789 011c 4D75785F 		.ascii	"Mux_CapSense_Start\000"
 11789      43617053 
 11789      656E7365 
 11789      5F537461 
 11789      727400
 11790              	.LASF104:
 11791 012f 626C655F 		.ascii	"ble_OFF\000"
ARM GAS  C:\Users\PRAJWA~1\AppData\Local\Temp\ccedcYia.s 			page 226


 11791      4F464600 
 11792              	.LASF81:
 11793 0137 626F6172 		.ascii	"boardconf\000"
 11793      64636F6E 
 11793      6600
 11794              	.LASF42:
 11795 0141 4D75785F 		.ascii	"Mux_CapSense_RAM_WD_CSD_MATRIX_STRUCT\000"
 11795      43617053 
 11795      656E7365 
 11795      5F52414D 
 11795      5F57445F 
 11796              	.LASF139:
 11797 0167 70726576 		.ascii	"prev\000"
 11797      00
 11798              	.LASF151:
 11799 016c 55415254 		.ascii	"UART_SpiUartGetRxBufferSize\000"
 11799      5F537069 
 11799      55617274 
 11799      47657452 
 11799      78427566 
 11800              	.LASF78:
 11801 0188 64657669 		.ascii	"device_id\000"
 11801      63655F69 
 11801      6400
 11802              	.LASF40:
 11803 0192 706F7352 		.ascii	"posRow\000"
 11803      6F7700
 11804              	.LASF14:
 11805 0199 75696E74 		.ascii	"uint32_t\000"
 11805      33325F74 
 11805      00
 11806              	.LASF12:
 11807 01a2 696E7438 		.ascii	"int8_t\000"
 11807      5F7400
 11808              	.LASF34:
 11809 01a9 69646163 		.ascii	"idacGainIndex\000"
 11809      4761696E 
 11809      496E6465 
 11809      7800
 11810              	.LASF18:
 11811 01b7 666C6F61 		.ascii	"float\000"
 11811      7400
 11812              	.LASF165:
 11813 01bd 4D75785F 		.ascii	"Mux_CapSense_ProcessAllWidgets\000"
 11813      43617053 
 11813      656E7365 
 11813      5F50726F 
 11813      63657373 
 11814              	.LASF115:
 11815 01dc 57694669 		.ascii	"WiFi_OFF\000"
 11815      5F4F4646 
 11815      00
 11816              	.LASF64:
 11817 01e5 736E734C 		.ascii	"snsList\000"
 11817      69737400 
 11818              	.LASF99:
 11819 01ed 72657375 		.ascii	"result\000"
ARM GAS  C:\Users\PRAJWA~1\AppData\Local\Temp\ccedcYia.s 			page 227


 11819      6C7400
 11820              	.LASF111:
 11821 01f4 626C655F 		.ascii	"ble_sendData\000"
 11821      73656E64 
 11821      44617461 
 11821      00
 11822              	.LASF0:
 11823 0201 6C6F6E67 		.ascii	"long long unsigned int\000"
 11823      206C6F6E 
 11823      6720756E 
 11823      7369676E 
 11823      65642069 
 11824              	.LASF136:
 11825 0218 66696C65 		.ascii	"file\000"
 11825      00
 11826              	.LASF119:
 11827 021d 57694669 		.ascii	"WiFiON_AP\000"
 11827      4F4E5F41 
 11827      5000
 11828              	.LASF127:
 11829 0227 686F7374 		.ascii	"host\000"
 11829      00
 11830              	.LASF137:
 11831 022c 70726F63 		.ascii	"proc1\000"
 11831      3100
 11832              	.LASF66:
 11833 0232 736E7254 		.ascii	"snrTestSensorId\000"
 11833      65737453 
 11833      656E736F 
 11833      72496400 
 11834              	.LASF149:
 11835 0242 55415254 		.ascii	"UART_Start\000"
 11835      5F537461 
 11835      727400
 11836              	.LASF142:
 11837 024d 53315F57 		.ascii	"S1_Write\000"
 11837      72697465 
 11837      00
 11838              	.LASF168:
 11839 0256 4D75785F 		.ascii	"Mux_CapSense_IsSensorActive\000"
 11839      43617053 
 11839      656E7365 
 11839      5F497353 
 11839      656E736F 
 11840              	.LASF161:
 11841 0272 455A4932 		.ascii	"EZI2C_Start\000"
 11841      435F5374 
 11841      61727400 
 11842              	.LASF170:
 11843 027e 474E5520 		.ascii	"GNU C11 5.4.1 20160609 (release) [ARM/embedded-5-br"
 11843      43313120 
 11843      352E342E 
 11843      31203230 
 11843      31363036 
 11844 02b1 616E6368 		.ascii	"anch revision 237715] -mcpu=cortex-m0 -mthumb -g -O"
 11844      20726576 
 11844      6973696F 
ARM GAS  C:\Users\PRAJWA~1\AppData\Local\Temp\ccedcYia.s 			page 228


 11844      6E203233 
 11844      37373135 
 11845 02e4 67202D66 		.ascii	"g -ffunction-sections -ffat-lto-objects\000"
 11845      66756E63 
 11845      74696F6E 
 11845      2D736563 
 11845      74696F6E 
 11846              	.LASF62:
 11847 030c 6D6F6443 		.ascii	"modCsdClk\000"
 11847      7364436C 
 11847      6B00
 11848              	.LASF116:
 11849 0316 636D6452 		.ascii	"cmdRst\000"
 11849      737400
 11850              	.LASF29:
 11851 031d 68797374 		.ascii	"hysteresis\000"
 11851      65726573 
 11851      697300
 11852              	.LASF174:
 11853 0328 4D75785F 		.ascii	"Mux_CapSense_dsRam\000"
 11853      43617053 
 11853      656E7365 
 11853      5F647352 
 11853      616D00
 11854              	.LASF31:
 11855 033b 6C6F7742 		.ascii	"lowBslnRst\000"
 11855      736C6E52 
 11855      737400
 11856              	.LASF77:
 11857 0346 66726571 		.ascii	"freq\000"
 11857      00
 11858              	.LASF128:
 11859 034b 70617468 		.ascii	"path\000"
 11859      00
 11860              	.LASF101:
 11861 0350 626C655F 		.ascii	"ble_setRFpower\000"
 11861      73657452 
 11861      46706F77 
 11861      657200
 11862              	.LASF141:
 11863 035f 53325F57 		.ascii	"S2_Write\000"
 11863      72697465 
 11863      00
 11864              	.LASF27:
 11865 0368 6E6F6973 		.ascii	"noiseTh\000"
 11865      65546800 
 11866              	.LASF79:
 11867 0370 73736964 		.ascii	"ssid\000"
 11867      00
 11868              	.LASF20:
 11869 0375 63686172 		.ascii	"char\000"
 11869      00
 11870              	.LASF38:
 11871 037a 726F7753 		.ascii	"rowSnsClkSource\000"
 11871      6E73436C 
 11871      6B536F75 
 11871      72636500 
ARM GAS  C:\Users\PRAJWA~1\AppData\Local\Temp\ccedcYia.s 			page 229


 11872              	.LASF112:
 11873 038a 73656E64 		.ascii	"send\000"
 11873      00
 11874              	.LASF134:
 11875 038f 72656164 		.ascii	"readData\000"
 11875      44617461 
 11875      00
 11876              	.LASF167:
 11877 0398 4D75785F 		.ascii	"Mux_CapSense_ScanAllWidgets\000"
 11877      43617053 
 11877      656E7365 
 11877      5F536361 
 11877      6E416C6C 
 11878              	.LASF144:
 11879 03b4 43794465 		.ascii	"CyDelay\000"
 11879      6C617900 
 11880              	.LASF16:
 11881 03bc 75696E74 		.ascii	"uint16\000"
 11881      313600
 11882              	.LASF36:
 11883 03c3 726F7753 		.ascii	"rowSnsClk\000"
 11883      6E73436C 
 11883      6B00
 11884              	.LASF25:
 11885 03cd 7265736F 		.ascii	"resolution\000"
 11885      6C757469 
 11885      6F6E00
 11886              	.LASF13:
 11887 03d8 75696E74 		.ascii	"uint8_t\000"
 11887      385F7400 
 11888              	.LASF57:
 11889 03e0 73746174 		.ascii	"status\000"
 11889      757300
 11890              	.LASF125:
 11891 03e7 57694669 		.ascii	"WiFi_sendData\000"
 11891      5F73656E 
 11891      64446174 
 11891      6100
 11892              	.LASF49:
 11893 03f5 69646163 		.ascii	"idacComp\000"
 11893      436F6D70 
 11893      00
 11894              	.LASF10:
 11895 03fe 6C6F6E67 		.ascii	"long long int\000"
 11895      206C6F6E 
 11895      6720696E 
 11895      7400
 11896              	.LASF30:
 11897 040c 6F6E4465 		.ascii	"onDebounce\000"
 11897      626F756E 
 11897      636500
 11898              	.LASF21:
 11899 0417 4D75785F 		.ascii	"Mux_CapSense_THRESHOLD_TYPE\000"
 11899      43617053 
 11899      656E7365 
 11899      5F544852 
 11899      4553484F 
ARM GAS  C:\Users\PRAJWA~1\AppData\Local\Temp\ccedcYia.s 			page 230


 11900              	.LASF160:
 11901 0433 436F756E 		.ascii	"Counter_micros_Start\000"
 11901      7465725F 
 11901      6D696372 
 11901      6F735F53 
 11901      74617274 
 11902              	.LASF63:
 11903 0448 77646774 		.ascii	"wdgtList\000"
 11903      4C697374 
 11903      00
 11904              	.LASF109:
 11905 0451 636D6431 		.ascii	"cmd1\000"
 11905      00
 11906              	.LASF110:
 11907 0456 636D6432 		.ascii	"cmd2\000"
 11907      00
 11908              	.LASF68:
 11909 045b 736E7254 		.ascii	"snrTestRawCount\000"
 11909      65737452 
 11909      6177436F 
 11909      756E7400 
 11910              	.LASF175:
 11911 046b 6D656D73 		.ascii	"memset\000"
 11911      657400
 11912              	.LASF28:
 11913 0472 6E4E6F69 		.ascii	"nNoiseTh\000"
 11913      73655468 
 11913      00
 11914              	.LASF61:
 11915 047b 63736430 		.ascii	"csd0Config\000"
 11915      436F6E66 
 11915      696700
 11916              	.LASF75:
 11917 0486 6272646E 		.ascii	"brdno\000"
 11917      6F00
 11918              	.LASF43:
 11919 048c 6D617472 		.ascii	"matrixbuttons0\000"
 11919      69786275 
 11919      74746F6E 
 11919      733000
 11920              	.LASF17:
 11921 049b 75696E74 		.ascii	"uint32\000"
 11921      333200
 11922              	.LASF83:
 11923 04a2 415F4473 		.ascii	"A_Dstate\000"
 11923      74617465 
 11923      00
 11924              	.LASF162:
 11925 04ab 455A4932 		.ascii	"EZI2C_EzI2CSetBuffer1\000"
 11925      435F457A 
 11925      49324353 
 11925      65744275 
 11925      66666572 
 11926              	.LASF152:
 11927 04c1 55415254 		.ascii	"UART_SpiUartReadRxData\000"
 11927      5F537069 
 11927      55617274 
ARM GAS  C:\Users\PRAJWA~1\AppData\Local\Temp\ccedcYia.s 			page 231


 11927      52656164 
 11927      52784461 
 11928              	.LASF2:
 11929 04d8 5F5F696E 		.ascii	"__int8_t\000"
 11929      74385F74 
 11929      00
 11930              	.LASF124:
 11931 04e1 57694669 		.ascii	"WiFi_whoRu\000"
 11931      5F77686F 
 11931      527500
 11932              	.LASF129:
 11933 04ec 64617461 		.ascii	"data\000"
 11933      00
 11934              	.LASF23:
 11935 04f1 6C6F6E67 		.ascii	"long double\000"
 11935      20646F75 
 11935      626C6500 
 11936              	.LASF155:
 11937 04fd 73707269 		.ascii	"sprintf\000"
 11937      6E746600 
 11938              	.LASF67:
 11939 0505 736E7254 		.ascii	"snrTestScanCounter\000"
 11939      65737453 
 11939      63616E43 
 11939      6F756E74 
 11939      657200
 11940              	.LASF92:
 11941 0518 5053435F 		.ascii	"PSC_McM_6_00_init\000"
 11941      4D634D5F 
 11941      365F3030 
 11941      5F696E69 
 11941      7400
 11942              	.LASF135:
 11943 052a 5F777269 		.ascii	"_write\000"
 11943      746500
 11944              	.LASF52:
 11945 0531 636F6E66 		.ascii	"configId\000"
 11945      69674964 
 11945      00
 11946              	.LASF91:
 11947 053a 73776974 		.ascii	"switchTo\000"
 11947      6368546F 
 11947      00
 11948              	.LASF74:
 11949 0543 62726474 		.ascii	"brdtype\000"
 11949      79706500 
 11950              	.LASF158:
 11951 054b 55415254 		.ascii	"UART_SpiUartWriteTxData\000"
 11951      5F537069 
 11951      55617274 
 11951      57726974 
 11951      65547844 
 11952              	.LASF60:
 11953 0563 736E7353 		.ascii	"snsStatus\000"
 11953      74617475 
 11953      7300
 11954              	.LASF37:
ARM GAS  C:\Users\PRAJWA~1\AppData\Local\Temp\ccedcYia.s 			page 232


 11955 056d 736E7343 		.ascii	"snsClkSource\000"
 11955      6C6B536F 
 11955      75726365 
 11955      00
 11956              	.LASF41:
 11957 057a 706F7353 		.ascii	"posSnsId\000"
 11957      6E734964 
 11957      00
 11958              	.LASF5:
 11959 0583 73686F72 		.ascii	"short int\000"
 11959      7420696E 
 11959      7400
 11960              	.LASF7:
 11961 058d 6C6F6E67 		.ascii	"long int\000"
 11961      20696E74 
 11961      00
 11962              	.LASF90:
 11963 0596 64656C61 		.ascii	"delay\000"
 11963      7900
 11964              	.LASF58:
 11965 059c 77646774 		.ascii	"wdgtEnable\000"
 11965      456E6162 
 11965      6C6500
 11966              	.LASF47:
 11967 05a7 64696666 		.ascii	"diff\000"
 11967      00
 11968              	.LASF55:
 11969 05ac 74756E65 		.ascii	"tunerCmd\000"
 11969      72436D64 
 11969      00
 11970              	.LASF96:
 11971 05b5 74656D70 		.ascii	"temp\000"
 11971      00
 11972              	.LASF143:
 11973 05ba 53305F57 		.ascii	"S0_Write\000"
 11973      72697465 
 11973      00
 11974              	.LASF150:
 11975 05c3 55415254 		.ascii	"UART_UartPutString\000"
 11975      5F556172 
 11975      74507574 
 11975      53747269 
 11975      6E6700
 11976              	.LASF172:
 11977 05d6 433A5C55 		.ascii	"C:\\Users\\Prajwal Trachealth\\Documents\\PSoC Crea"
 11977      73657273 
 11977      5C507261 
 11977      6A77616C 
 11977      20547261 
 11978 0605 746F725C 		.ascii	"tor\\E-Lagori PSoC 11th April 2023\\PSoC CapSense_H"
 11978      452D4C61 
 11978      676F7269 
 11978      2050536F 
 11978      43203131 
 11979 0636 6578546F 		.ascii	"exTouch.cydsn\000"
 11979      7563682E 
 11979      63796473 
ARM GAS  C:\Users\PRAJWA~1\AppData\Local\Temp\ccedcYia.s 			page 233


 11979      6E00
 11980              	.LASF106:
 11981 0644 626C654F 		.ascii	"bleON_slave\000"
 11981      4E5F736C 
 11981      61766500 
 11982              	.LASF148:
 11983 0650 4354524C 		.ascii	"CTRL_Write\000"
 11983      5F577269 
 11983      746500
 11984              	.LASF121:
 11985 065b 57694669 		.ascii	"WiFi_scan\000"
 11985      5F736361 
 11985      6E00
 11986              	.LASF146:
 11987 0665 55415254 		.ascii	"UART_SpiUartClearTxBuffer\000"
 11987      5F537069 
 11987      55617274 
 11987      436C6561 
 11987      72547842 
 11988              	.LASF3:
 11989 067f 5F5F7569 		.ascii	"__uint8_t\000"
 11989      6E74385F 
 11989      7400
 11990              	.LASF33:
 11991 0689 726F7749 		.ascii	"rowIdacMod\000"
 11991      6461634D 
 11991      6F6400
 11992              	.LASF147:
 11993 0694 55415254 		.ascii	"UART_SpiUartClearRxBuffer\000"
 11993      5F537069 
 11993      55617274 
 11993      436C6561 
 11993      72527842 
 11994              	.LASF120:
 11995 06ae 57694669 		.ascii	"WiFiON_AP_STA\000"
 11995      4F4E5F41 
 11995      505F5354 
 11995      4100
 11996              	.LASF59:
 11997 06bc 77646774 		.ascii	"wdgtStatus\000"
 11997      53746174 
 11997      757300
 11998              	.LASF114:
 11999 06c7 57694669 		.ascii	"WiFi_status\000"
 11999      5F737461 
 11999      74757300 
 12000              	.LASF108:
 12001 06d3 626C655F 		.ascii	"ble_disconnect\000"
 12001      64697363 
 12001      6F6E6E65 
 12001      637400
 12002              	.LASF123:
 12003 06e2 57694669 		.ascii	"WiFi_disconnect\000"
 12003      5F646973 
 12003      636F6E6E 
 12003      65637400 
 12004              	.LASF24:
ARM GAS  C:\Users\PRAJWA~1\AppData\Local\Temp\ccedcYia.s 			page 234


 12005 06f2 73697A65 		.ascii	"sizetype\000"
 12005      74797065 
 12005      00
 12006              	.LASF9:
 12007 06fb 6C6F6E67 		.ascii	"long unsigned int\000"
 12007      20756E73 
 12007      69676E65 
 12007      6420696E 
 12007      7400
 12008              	.LASF86:
 12009 070d 73796E63 		.ascii	"sync_\000"
 12009      5F00
 12010              	.LASF32:
 12011 0713 69646163 		.ascii	"idacMod\000"
 12011      4D6F6400 
 12012              	.LASF159:
 12013 071b 436F756E 		.ascii	"Counter_micros_ReadCounter\000"
 12013      7465725F 
 12013      6D696372 
 12013      6F735F52 
 12013      65616443 
 12014              	.LASF132:
 12015 0736 706F7274 		.ascii	"port\000"
 12015      00
 12016              	.LASF26:
 12017 073b 66696E67 		.ascii	"fingerTh\000"
 12017      65725468 
 12017      00
 12018              	.LASF98:
 12019 0744 626C655F 		.ascii	"ble_mac\000"
 12019      6D616300 
 12020              	.LASF46:
 12021 074c 62736C6E 		.ascii	"bslnExt\000"
 12021      45787400 
 12022              	.LASF145:
 12023 0754 55415254 		.ascii	"UART_SpiUartGetTxBufferSize\000"
 12023      5F537069 
 12023      55617274 
 12023      47657454 
 12023      78427566 
 12024              	.LASF82:
 12025 0770 5053435F 		.ascii	"PSC_McM_6_00\000"
 12025      4D634D5F 
 12025      365F3030 
 12025      00
 12026              	.LASF130:
 12027 077d 74797065 		.ascii	"type\000"
 12027      00
 12028              	.LASF4:
 12029 0782 756E7369 		.ascii	"unsigned char\000"
 12029      676E6564 
 12029      20636861 
 12029      7200
 12030              	.LASF87:
 12031 0790 666C6173 		.ascii	"flash\000"
 12031      6800
 12032              	.LASF8:
ARM GAS  C:\Users\PRAJWA~1\AppData\Local\Temp\ccedcYia.s 			page 235


 12033 0796 5F5F7569 		.ascii	"__uint32_t\000"
 12033      6E743332 
 12033      5F7400
 12034              	.LASF88:
 12035 07a1 626C6557 		.ascii	"bleWiFi\000"
 12035      69466900 
 12036              	.LASF94:
 12037 07a9 74696D65 		.ascii	"timeout\000"
 12037      6F757400 
 12038              	.LASF95:
 12039 07b1 44656C61 		.ascii	"Delay\000"
 12039      7900
 12040              	.LASF71:
 12041 07b7 4D75785F 		.ascii	"Mux_CapSense_RAM_STRUCT\000"
 12041      43617053 
 12041      656E7365 
 12041      5F52414D 
 12041      5F535452 
 12042              	.LASF70:
 12043 07cf 7363616E 		.ascii	"scanCurrentISC\000"
 12043      43757272 
 12043      656E7449 
 12043      534300
 12044              	.LASF133:
 12045 07de 57694669 		.ascii	"WiFi_receiveData\000"
 12045      5F726563 
 12045      65697665 
 12045      44617461 
 12045      00
 12046              	.LASF126:
 12047 07ef 7472616E 		.ascii	"trans_type\000"
 12047      735F7479 
 12047      706500
 12048              	.LASF138:
 12049 07fa 73746174 		.ascii	"state\000"
 12049      6500
 12050              	.LASF117:
 12051 0800 636D6457 		.ascii	"cmdWoff\000"
 12051      6F666600 
 12052              	.LASF89:
 12053 0808 7365746D 		.ascii	"setmux\000"
 12053      757800
 12054              	.LASF140:
 12055 080f 53335F57 		.ascii	"S3_Write\000"
 12055      72697465 
 12055      00
 12056              	.LASF35:
 12057 0818 736E7343 		.ascii	"snsClk\000"
 12057      6C6B00
 12058              	.LASF51:
 12059 081f 4D75785F 		.ascii	"Mux_CapSense_RAM_SNS_LIST_STRUCT\000"
 12059      43617053 
 12059      656E7365 
 12059      5F52414D 
 12059      5F534E53 
 12060              	.LASF1:
 12061 0840 7369676E 		.ascii	"signed char\000"
ARM GAS  C:\Users\PRAJWA~1\AppData\Local\Temp\ccedcYia.s 			page 236


 12061      65642063 
 12061      68617200 
 12062              	.LASF93:
 12063 084c 7265635F 		.ascii	"rec_data\000"
 12063      64617461 
 12063      00
 12064              	.LASF97:
 12065 0855 73656E64 		.ascii	"sendCmd\000"
 12065      436D6400 
 12066              	.LASF45:
 12067 085d 62736C6E 		.ascii	"bsln\000"
 12067      00
 12068              	.LASF6:
 12069 0862 73686F72 		.ascii	"short unsigned int\000"
 12069      7420756E 
 12069      7369676E 
 12069      65642069 
 12069      6E7400
 12070              	.LASF164:
 12071 0875 4D75785F 		.ascii	"Mux_CapSense_IsBusy\000"
 12071      43617053 
 12071      656E7365 
 12071      5F497342 
 12071      75737900 
 12072              	.LASF173:
 12073 0889 6D61696E 		.ascii	"main\000"
 12073      00
 12074              	.LASF156:
 12075 088e 61746F69 		.ascii	"atoi\000"
 12075      00
 12076              	.LASF73:
 12077 0893 72657365 		.ascii	"reserved\000"
 12077      72766564 
 12077      00
 12078              	.LASF113:
 12079 089c 57694669 		.ascii	"WiFi_mac\000"
 12079      5F6D6163 
 12079      00
 12080              	.LASF39:
 12081 08a5 706F7343 		.ascii	"posCol\000"
 12081      6F6C00
 12082              	.LASF72:
 12083 08ac 75696E74 		.ascii	"uint\000"
 12083      00
 12084              	.LASF15:
 12085 08b1 75696E74 		.ascii	"uint8\000"
 12085      3800
 12086              	.LASF19:
 12087 08b7 646F7562 		.ascii	"double\000"
 12087      6C6500
 12088              	.LASF48:
 12089 08be 6E656742 		.ascii	"negBslnRstCnt\000"
 12089      736C6E52 
 12089      7374436E 
 12089      7400
 12090              	.LASF76:
 12091 08cc 74696D65 		.ascii	"timer\000"
ARM GAS  C:\Users\PRAJWA~1\AppData\Local\Temp\ccedcYia.s 			page 237


 12091      7200
 12092              	.LASF53:
 12093 08d2 64657669 		.ascii	"deviceId\000"
 12093      63654964 
 12093      00
 12094              	.LASF50:
 12095 08db 4D75785F 		.ascii	"Mux_CapSense_RAM_SNS_STRUCT\000"
 12095      43617053 
 12095      656E7365 
 12095      5F52414D 
 12095      5F534E53 
 12096              	.LASF157:
 12097 08f7 73747263 		.ascii	"strcmp\000"
 12097      6D7000
 12098              	.LASF118:
 12099 08fe 57694669 		.ascii	"WiFiON_STA\000"
 12099      4F4E5F53 
 12099      544100
 12100              		.ident	"GCC: (GNU Tools for ARM Embedded Processors) 5.4.1 20160609 (release) [ARM/embedded-5-bran
